
/home/stephan/pico/picoprobe/build/debugprobe.elf:     file format elf32-littlearm

Sections:
Idx Name          Size      VMA       LMA       File off  Algn
  0 .boot2        00000100  10000000  10000000  00001000  2**0
                  CONTENTS, ALLOC, LOAD, READONLY, CODE
  1 .flashtext    000001d8  10000100  10000100  00001100  2**3
                  CONTENTS, ALLOC, LOAD, READONLY, CODE
  2 .rodata       00000000  100002d8  100002d8  0000c200  2**0
                  CONTENTS, ALLOC, LOAD, DATA
  3 .binary_info  00000048  100002d8  100002d8  000012d8  2**2
                  CONTENTS, ALLOC, LOAD, READONLY, DATA
  4 .ram_vector_table 000000c0  20000000  20000000  0000d000  2**2
                  ALLOC
  5 .text         00008cc8  200000c0  10000320  000020c0  2**2
                  CONTENTS, ALLOC, LOAD, READONLY, CODE
  6 .data         00001470  20008d90  10008fe8  0000ad90  2**4
                  CONTENTS, ALLOC, LOAD, CODE
  7 .uninitialized_data 00000000  2000a200  2000a200  0000c200  2**0
                  CONTENTS
  8 .scratch_x    00000000  20040000  20040000  0000c200  2**0
                  CONTENTS
  9 .scratch_y    00000000  20041000  20041000  0000c200  2**0
                  CONTENTS
 10 .bss          00016398  2000a200  2000a200  0000c200  2**3
                  ALLOC
 11 .heap         00000800  20020598  20020598  0000c200  2**2
                  CONTENTS, READONLY
 12 .stack1_dummy 00000800  20040000  20040000  0000d000  2**2
                  ALLOC
 13 .stack_dummy  00000800  20041000  20041000  0000ca00  2**5
                  CONTENTS, READONLY
 14 .ARM.attributes 00000028  00000000  00000000  0000d200  2**0
                  CONTENTS, READONLY
 15 .comment      00000059  00000000  00000000  0000d228  2**0
                  CONTENTS, READONLY
 16 .debug_line   00000280  00000000  00000000  0000d281  2**0
                  CONTENTS, READONLY, DEBUGGING, OCTETS
 17 .debug_line_str 00000097  00000000  00000000  0000d501  2**0
                  CONTENTS, READONLY, DEBUGGING, OCTETS
 18 .debug_info   000003f9  00000000  00000000  0000d598  2**0
                  CONTENTS, READONLY, DEBUGGING, OCTETS
 19 .debug_abbrev 00000182  00000000  00000000  0000d991  2**0
                  CONTENTS, READONLY, DEBUGGING, OCTETS
 20 .debug_aranges 00000060  00000000  00000000  0000db18  2**3
                  CONTENTS, READONLY, DEBUGGING, OCTETS
 21 .debug_str    0000076f  00000000  00000000  0000db78  2**0
                  CONTENTS, READONLY, DEBUGGING, OCTETS
 22 .debug_loclists 0000003b  00000000  00000000  0000e2e7  2**0
                  CONTENTS, READONLY, DEBUGGING, OCTETS
 23 .debug_frame  00000048  00000000  00000000  0000e324  2**2
                  CONTENTS, READONLY, DEBUGGING, OCTETS
 24 .debug_loc    00000090  00000000  00000000  0000e36c  2**0
                  CONTENTS, READONLY, DEBUGGING, OCTETS

/home/stephan/pico/picoprobe/build/debugprobe.elf:     file format elf32-littlearm


Disassembly of section .boot2:

10000000 <__boot2_start__>:
10000000:	4b32b500 	.word	0x4b32b500
10000004:	60582021 	.word	0x60582021
10000008:	21026898 	.word	0x21026898
1000000c:	60984388 	.word	0x60984388
10000010:	611860d8 	.word	0x611860d8
10000014:	4b2e6158 	.word	0x4b2e6158
10000018:	60992100 	.word	0x60992100
1000001c:	61592102 	.word	0x61592102
10000020:	22f02101 	.word	0x22f02101
10000024:	492b5099 	.word	0x492b5099
10000028:	21016019 	.word	0x21016019
1000002c:	20356099 	.word	0x20356099
10000030:	f844f000 	.word	0xf844f000
10000034:	42902202 	.word	0x42902202
10000038:	2106d014 	.word	0x2106d014
1000003c:	f0006619 	.word	0xf0006619
10000040:	6e19f834 	.word	0x6e19f834
10000044:	66192101 	.word	0x66192101
10000048:	66182000 	.word	0x66182000
1000004c:	f000661a 	.word	0xf000661a
10000050:	6e19f82c 	.word	0x6e19f82c
10000054:	6e196e19 	.word	0x6e196e19
10000058:	f0002005 	.word	0xf0002005
1000005c:	2101f82f 	.word	0x2101f82f
10000060:	d1f94208 	.word	0xd1f94208
10000064:	60992100 	.word	0x60992100
10000068:	6019491b 	.word	0x6019491b
1000006c:	60592100 	.word	0x60592100
10000070:	481b491a 	.word	0x481b491a
10000074:	21016001 	.word	0x21016001
10000078:	21eb6099 	.word	0x21eb6099
1000007c:	21a06619 	.word	0x21a06619
10000080:	f0006619 	.word	0xf0006619
10000084:	2100f812 	.word	0x2100f812
10000088:	49166099 	.word	0x49166099
1000008c:	60014814 	.word	0x60014814
10000090:	60992101 	.word	0x60992101
10000094:	2800bc01 	.word	0x2800bc01
10000098:	4700d000 	.word	0x4700d000
1000009c:	49134812 	.word	0x49134812
100000a0:	c8036008 	.word	0xc8036008
100000a4:	8808f380 	.word	0x8808f380
100000a8:	b5034708 	.word	0xb5034708
100000ac:	20046a99 	.word	0x20046a99
100000b0:	d0fb4201 	.word	0xd0fb4201
100000b4:	42012001 	.word	0x42012001
100000b8:	bd03d1f8 	.word	0xbd03d1f8
100000bc:	6618b502 	.word	0x6618b502
100000c0:	f7ff6618 	.word	0xf7ff6618
100000c4:	6e18fff2 	.word	0x6e18fff2
100000c8:	bd026e18 	.word	0xbd026e18
100000cc:	40020000 	.word	0x40020000
100000d0:	18000000 	.word	0x18000000
100000d4:	00070000 	.word	0x00070000
100000d8:	005f0300 	.word	0x005f0300
100000dc:	00002221 	.word	0x00002221
100000e0:	180000f4 	.word	0x180000f4
100000e4:	a0002022 	.word	0xa0002022
100000e8:	10000100 	.word	0x10000100
100000ec:	e000ed08 	.word	0xe000ed08
	...
100000fc:	7a4eb274 	.word	0x7a4eb274

Disassembly of section .flashtext:

10000100 <__VECTOR_TABLE>:
10000100:	20042000 	.word	0x20042000
10000104:	100001f7 	.word	0x100001f7
10000108:	100001c3 	.word	0x100001c3
1000010c:	100001c5 	.word	0x100001c5
10000110:	100001c1 	.word	0x100001c1
10000114:	100001c1 	.word	0x100001c1
10000118:	100001c1 	.word	0x100001c1
1000011c:	100001c1 	.word	0x100001c1
10000120:	100001c1 	.word	0x100001c1
10000124:	100001c1 	.word	0x100001c1
10000128:	100001c1 	.word	0x100001c1
1000012c:	100001c7 	.word	0x100001c7
10000130:	100001c1 	.word	0x100001c1
10000134:	100001c1 	.word	0x100001c1
10000138:	100001c9 	.word	0x100001c9
1000013c:	100001cb 	.word	0x100001cb
10000140:	100001cd 	.word	0x100001cd
10000144:	100001cd 	.word	0x100001cd
10000148:	100001cd 	.word	0x100001cd
1000014c:	100001cd 	.word	0x100001cd
10000150:	100001cd 	.word	0x100001cd
10000154:	100001cd 	.word	0x100001cd
10000158:	100001cd 	.word	0x100001cd
1000015c:	100001cd 	.word	0x100001cd
10000160:	100001cd 	.word	0x100001cd
10000164:	100001cd 	.word	0x100001cd
10000168:	100001cd 	.word	0x100001cd
1000016c:	100001cd 	.word	0x100001cd
10000170:	100001cd 	.word	0x100001cd
10000174:	100001cd 	.word	0x100001cd
10000178:	100001cd 	.word	0x100001cd
1000017c:	100001cd 	.word	0x100001cd
10000180:	100001cd 	.word	0x100001cd
10000184:	100001cd 	.word	0x100001cd
10000188:	100001cd 	.word	0x100001cd
1000018c:	100001cd 	.word	0x100001cd
10000190:	100001cd 	.word	0x100001cd
10000194:	100001cd 	.word	0x100001cd
10000198:	100001cd 	.word	0x100001cd
1000019c:	100001cd 	.word	0x100001cd
100001a0:	100001cd 	.word	0x100001cd
100001a4:	100001cd 	.word	0x100001cd
100001a8:	100001cd 	.word	0x100001cd
100001ac:	100001cd 	.word	0x100001cd
100001b0:	100001cd 	.word	0x100001cd
100001b4:	100001cd 	.word	0x100001cd
100001b8:	100001cd 	.word	0x100001cd
100001bc:	100001cd 	.word	0x100001cd

100001c0 <isr_invalid>:
100001c0:	be00      	bkpt	0x0000

100001c2 <isr_nmi>:
100001c2:	be00      	bkpt	0x0000

100001c4 <isr_hardfault>:
100001c4:	be00      	bkpt	0x0000

100001c6 <isr_svcall>:
100001c6:	be00      	bkpt	0x0000

100001c8 <isr_pendsv>:
100001c8:	be00      	bkpt	0x0000

100001ca <isr_systick>:
100001ca:	be00      	bkpt	0x0000

100001cc <__unhandled_user_irq>:
100001cc:	f3ef 8005 	mrs	r0, IPSR
100001d0:	3810      	subs	r0, #16

100001d2 <unhandled_user_irq_num_in_r0>:
100001d2:	be00      	bkpt	0x0000

100001d4 <binary_info_header>:
100001d4:	7188ebf2 	.word	0x7188ebf2
100001d8:	100002d8 	.word	0x100002d8
100001dc:	10000320 	.word	0x10000320
100001e0:	10000234 	.word	0x10000234
100001e4:	e71aa390 	.word	0xe71aa390

100001e8 <_entry_point>:
100001e8:	2000      	movs	r0, #0
100001ea:	4922      	ldr	r1, [pc, #136]	; (10000274 <hold_non_core0_in_bootrom+0xa>)
100001ec:	6008      	str	r0, [r1, #0]
100001ee:	c806      	ldmia	r0!, {r1, r2}
100001f0:	f381 8808 	msr	MSP, r1
100001f4:	4710      	bx	r2

100001f6 <_reset_handler>:
100001f6:	4820      	ldr	r0, [pc, #128]	; (10000278 <hold_non_core0_in_bootrom+0xe>)
100001f8:	6800      	ldr	r0, [r0, #0]
100001fa:	2800      	cmp	r0, #0
100001fc:	d135      	bne.n	1000026a <hold_non_core0_in_bootrom>
100001fe:	a40d      	add	r4, pc, #52	; (adr r4, 10000234 <data_cpy_table>)
10000200:	cc0e      	ldmia	r4!, {r1, r2, r3}
10000202:	2900      	cmp	r1, #0
10000204:	d002      	beq.n	1000020c <_reset_handler+0x16>
10000206:	f000 f812 	bl	1000022e <data_cpy>
1000020a:	e7f9      	b.n	10000200 <_reset_handler+0xa>
1000020c:	491b      	ldr	r1, [pc, #108]	; (1000027c <hold_non_core0_in_bootrom+0x12>)
1000020e:	4a1c      	ldr	r2, [pc, #112]	; (10000280 <hold_non_core0_in_bootrom+0x16>)
10000210:	2000      	movs	r0, #0
10000212:	e000      	b.n	10000216 <bss_fill_test>

10000214 <bss_fill_loop>:
10000214:	c101      	stmia	r1!, {r0}

10000216 <bss_fill_test>:
10000216:	4291      	cmp	r1, r2
10000218:	d1fc      	bne.n	10000214 <bss_fill_loop>

1000021a <platform_entry>:
1000021a:	491a      	ldr	r1, [pc, #104]	; (10000284 <hold_non_core0_in_bootrom+0x1a>)
1000021c:	4788      	blx	r1
1000021e:	491a      	ldr	r1, [pc, #104]	; (10000288 <hold_non_core0_in_bootrom+0x1e>)
10000220:	4788      	blx	r1
10000222:	491a      	ldr	r1, [pc, #104]	; (1000028c <hold_non_core0_in_bootrom+0x22>)
10000224:	4788      	blx	r1
10000226:	be00      	bkpt	0x0000
10000228:	e7fd      	b.n	10000226 <platform_entry+0xc>

1000022a <data_cpy_loop>:
1000022a:	c901      	ldmia	r1!, {r0}
1000022c:	c201      	stmia	r2!, {r0}

1000022e <data_cpy>:
1000022e:	429a      	cmp	r2, r3
10000230:	d3fb      	bcc.n	1000022a <data_cpy_loop>
10000232:	4770      	bx	lr

10000234 <data_cpy_table>:
10000234:	10000320 	.word	0x10000320
10000238:	200000c0 	.word	0x200000c0
1000023c:	20008d88 	.word	0x20008d88
10000240:	10008fe8 	.word	0x10008fe8
10000244:	20008d90 	.word	0x20008d90
10000248:	2000a200 	.word	0x2000a200
1000024c:	1000a458 	.word	0x1000a458
10000250:	20040000 	.word	0x20040000
10000254:	20040000 	.word	0x20040000
10000258:	1000a458 	.word	0x1000a458
1000025c:	20041000 	.word	0x20041000
10000260:	20041000 	.word	0x20041000
10000264:	00000000 	.word	0x00000000
10000268:	4770      	bx	lr

1000026a <hold_non_core0_in_bootrom>:
1000026a:	4809      	ldr	r0, [pc, #36]	; (10000290 <hold_non_core0_in_bootrom+0x26>)
1000026c:	f000 f814 	bl	10000298 <__rom_func_lookup_veneer>
10000270:	4700      	bx	r0
10000272:	0000      	.short	0x0000
10000274:	e000ed08 	.word	0xe000ed08
10000278:	d0000000 	.word	0xd0000000
1000027c:	2000a200 	.word	0x2000a200
10000280:	20020598 	.word	0x20020598
10000284:	20003881 	.word	0x20003881
10000288:	200001f1 	.word	0x200001f1
1000028c:	20003975 	.word	0x20003975
10000290:	00005657 	.word	0x00005657
10000294:	00000000 	.word	0x00000000

10000298 <__rom_func_lookup_veneer>:
10000298:	b401      	push	{r0}
1000029a:	4802      	ldr	r0, [pc, #8]	; (100002a4 <__rom_func_lookup_veneer+0xc>)
1000029c:	4684      	mov	ip, r0
1000029e:	bc01      	pop	{r0}
100002a0:	4760      	bx	ip
100002a2:	bf00      	nop
100002a4:	20003a21 	.word	0x20003a21

100002a8 <__bi_50>:
100002a8:	50520006 5360b3ab 20009e14              ..RP..`S... 

100002b4 <__bi_38>:
100002b4:	50520006 02031c86 20009e24              ..RP....$.. 

100002c0 <__bi_30>:
100002c0:	50520006 9da22254 20009e30              ..RPT"..0.. 

100002cc <__bi_22>:
100002cc:	50520005 68f465de 1000a458              ..RP.e.hX...

Disassembly of section .text:

200000c0 <_init>:
200000c0:	b5f8      	push	{r3, r4, r5, r6, r7, lr}
200000c2:	46c0      	nop			; (mov r8, r8)

200000c4 <deregister_tm_clones>:
200000c4:	4804      	ldr	r0, [pc, #16]	; (200000d8 <deregister_tm_clones+0x14>)
200000c6:	4b05      	ldr	r3, [pc, #20]	; (200000dc <deregister_tm_clones+0x18>)
200000c8:	b510      	push	{r4, lr}
200000ca:	4283      	cmp	r3, r0
200000cc:	d003      	beq.n	200000d6 <deregister_tm_clones+0x12>
200000ce:	4b04      	ldr	r3, [pc, #16]	; (200000e0 <deregister_tm_clones+0x1c>)
200000d0:	2b00      	cmp	r3, #0
200000d2:	d000      	beq.n	200000d6 <deregister_tm_clones+0x12>
200000d4:	4798      	blx	r3
200000d6:	bd10      	pop	{r4, pc}
200000d8:	2000a200 	.word	0x2000a200
200000dc:	2000a200 	.word	0x2000a200
200000e0:	00000000 	.word	0x00000000

200000e4 <register_tm_clones>:
200000e4:	4806      	ldr	r0, [pc, #24]	; (20000100 <register_tm_clones+0x1c>)
200000e6:	4907      	ldr	r1, [pc, #28]	; (20000104 <register_tm_clones+0x20>)
200000e8:	1a09      	subs	r1, r1, r0
200000ea:	108b      	asrs	r3, r1, #2
200000ec:	0fc9      	lsrs	r1, r1, #31
200000ee:	18c9      	adds	r1, r1, r3
200000f0:	b510      	push	{r4, lr}
200000f2:	1049      	asrs	r1, r1, #1
200000f4:	d003      	beq.n	200000fe <register_tm_clones+0x1a>
200000f6:	4b04      	ldr	r3, [pc, #16]	; (20000108 <register_tm_clones+0x24>)
200000f8:	2b00      	cmp	r3, #0
200000fa:	d000      	beq.n	200000fe <register_tm_clones+0x1a>
200000fc:	4798      	blx	r3
200000fe:	bd10      	pop	{r4, pc}
20000100:	2000a200 	.word	0x2000a200
20000104:	2000a200 	.word	0x2000a200
20000108:	00000000 	.word	0x00000000

2000010c <__do_global_dtors_aux>:
2000010c:	b510      	push	{r4, lr}
2000010e:	4c07      	ldr	r4, [pc, #28]	; (2000012c <__do_global_dtors_aux+0x20>)
20000110:	7823      	ldrb	r3, [r4, #0]
20000112:	2b00      	cmp	r3, #0
20000114:	d109      	bne.n	2000012a <__do_global_dtors_aux+0x1e>
20000116:	f7ff ffd5 	bl	200000c4 <deregister_tm_clones>
2000011a:	4b05      	ldr	r3, [pc, #20]	; (20000130 <__do_global_dtors_aux+0x24>)
2000011c:	2b00      	cmp	r3, #0
2000011e:	d002      	beq.n	20000126 <__do_global_dtors_aux+0x1a>
20000120:	4804      	ldr	r0, [pc, #16]	; (20000134 <__do_global_dtors_aux+0x28>)
20000122:	e000      	b.n	20000126 <__do_global_dtors_aux+0x1a>
20000124:	bf00      	nop
20000126:	2301      	movs	r3, #1
20000128:	7023      	strb	r3, [r4, #0]
2000012a:	bd10      	pop	{r4, pc}
2000012c:	2000a568 	.word	0x2000a568
20000130:	00000000 	.word	0x00000000
20000134:	20008d88 	.word	0x20008d88

20000138 <frame_dummy>:
20000138:	4b05      	ldr	r3, [pc, #20]	; (20000150 <frame_dummy+0x18>)
2000013a:	b510      	push	{r4, lr}
2000013c:	2b00      	cmp	r3, #0
2000013e:	d003      	beq.n	20000148 <frame_dummy+0x10>
20000140:	4904      	ldr	r1, [pc, #16]	; (20000154 <frame_dummy+0x1c>)
20000142:	4805      	ldr	r0, [pc, #20]	; (20000158 <frame_dummy+0x20>)
20000144:	e000      	b.n	20000148 <frame_dummy+0x10>
20000146:	bf00      	nop
20000148:	f7ff ffcc 	bl	200000e4 <register_tm_clones>
2000014c:	bd10      	pop	{r4, pc}
2000014e:	46c0      	nop			; (mov r8, r8)
20000150:	00000000 	.word	0x00000000
20000154:	2000a56c 	.word	0x2000a56c
20000158:	20008d88 	.word	0x20008d88

2000015c <bi_decl_config>:
2000015c:	4770      	bx	lr
2000015e:	46c0      	nop			; (mov r8, r8)

20000160 <led_init>:
20000160:	b510      	push	{r4, lr}
20000162:	2002      	movs	r0, #2
20000164:	24d0      	movs	r4, #208	; 0xd0
20000166:	f003 f853 	bl	20003210 <gpio_init>
2000016a:	2304      	movs	r3, #4
2000016c:	0624      	lsls	r4, r4, #24
2000016e:	6263      	str	r3, [r4, #36]	; 0x24
20000170:	200f      	movs	r0, #15
20000172:	f003 f84d 	bl	20003210 <gpio_init>
20000176:	2380      	movs	r3, #128	; 0x80
20000178:	021b      	lsls	r3, r3, #8
2000017a:	6263      	str	r3, [r4, #36]	; 0x24
2000017c:	2010      	movs	r0, #16
2000017e:	f003 f847 	bl	20003210 <gpio_init>
20000182:	2380      	movs	r3, #128	; 0x80
20000184:	025b      	lsls	r3, r3, #9
20000186:	6263      	str	r3, [r4, #36]	; 0x24
20000188:	2007      	movs	r0, #7
2000018a:	f003 f841 	bl	20003210 <gpio_init>
2000018e:	2380      	movs	r3, #128	; 0x80
20000190:	2008      	movs	r0, #8
20000192:	6263      	str	r3, [r4, #36]	; 0x24
20000194:	f003 f83c 	bl	20003210 <gpio_init>
20000198:	2380      	movs	r3, #128	; 0x80
2000019a:	005b      	lsls	r3, r3, #1
2000019c:	6263      	str	r3, [r4, #36]	; 0x24
2000019e:	bd10      	pop	{r4, pc}

200001a0 <usb_thread>:
200001a0:	b530      	push	{r4, r5, lr}
200001a2:	b083      	sub	sp, #12
200001a4:	f007 fedc 	bl	20007f60 <xTaskGetTickCount>
200001a8:	24d0      	movs	r4, #208	; 0xd0
200001aa:	2501      	movs	r5, #1
200001ac:	9001      	str	r0, [sp, #4]
200001ae:	0624      	lsls	r4, r4, #24
200001b0:	2001      	movs	r0, #1
200001b2:	2100      	movs	r1, #0
200001b4:	4240      	negs	r0, r0
200001b6:	f004 fc61 	bl	20004a7c <tud_task_ext>
200001ba:	6863      	ldr	r3, [r4, #4]
200001bc:	089b      	lsrs	r3, r3, #2
200001be:	421d      	tst	r5, r3
200001c0:	d00a      	beq.n	200001d8 <usb_thread+0x38>
200001c2:	2304      	movs	r3, #4
200001c4:	61a3      	str	r3, [r4, #24]
200001c6:	f004 fc49 	bl	20004a5c <tud_task_event_ready>
200001ca:	2800      	cmp	r0, #0
200001cc:	d1f0      	bne.n	200001b0 <usb_thread+0x10>
200001ce:	2101      	movs	r1, #1
200001d0:	a801      	add	r0, sp, #4
200001d2:	f008 f865 	bl	200082a0 <xTaskDelayUntil>
200001d6:	e7eb      	b.n	200001b0 <usb_thread+0x10>
200001d8:	f004 fba8 	bl	2000492c <tud_mounted>
200001dc:	2800      	cmp	r0, #0
200001de:	d0f0      	beq.n	200001c2 <usb_thread+0x22>
200001e0:	f004 fbac 	bl	2000493c <tud_suspended>
200001e4:	2800      	cmp	r0, #0
200001e6:	d1ec      	bne.n	200001c2 <usb_thread+0x22>
200001e8:	2304      	movs	r3, #4
200001ea:	6163      	str	r3, [r4, #20]
200001ec:	e7eb      	b.n	200001c6 <usb_thread+0x26>
200001ee:	46c0      	nop			; (mov r8, r8)

200001f0 <main>:
200001f0:	b510      	push	{r4, lr}
200001f2:	b082      	sub	sp, #8
200001f4:	f7ff ffb2 	bl	2000015c <bi_decl_config>
200001f8:	f006 fb60 	bl	200068bc <board_init>
200001fc:	f000 fbf4 	bl	200009e8 <usb_serial_init>
20000200:	f000 fa1e 	bl	20000640 <cdc_uart_init>
20000204:	f005 ff5c 	bl	200060c0 <tusb_init>
20000208:	f004 f94a 	bl	200044a0 <stdio_uart_init>
2000020c:	f001 fda2 	bl	20001d54 <DAP_Setup>
20000210:	f7ff ffa6 	bl	20000160 <led_init>
20000214:	4b12      	ldr	r3, [pc, #72]	; (20000260 <main+0x70>)
20000216:	2480      	movs	r4, #128	; 0x80
20000218:	9301      	str	r3, [sp, #4]
2000021a:	2303      	movs	r3, #3
2000021c:	0064      	lsls	r4, r4, #1
2000021e:	0022      	movs	r2, r4
20000220:	9300      	str	r3, [sp, #0]
20000222:	4910      	ldr	r1, [pc, #64]	; (20000264 <main+0x74>)
20000224:	2300      	movs	r3, #0
20000226:	4810      	ldr	r0, [pc, #64]	; (20000268 <main+0x78>)
20000228:	f007 fbd0 	bl	200079cc <xTaskCreate>
2000022c:	4b0f      	ldr	r3, [pc, #60]	; (2000026c <main+0x7c>)
2000022e:	0022      	movs	r2, r4
20000230:	9301      	str	r3, [sp, #4]
20000232:	2302      	movs	r3, #2
20000234:	490e      	ldr	r1, [pc, #56]	; (20000270 <main+0x80>)
20000236:	9300      	str	r3, [sp, #0]
20000238:	480e      	ldr	r0, [pc, #56]	; (20000274 <main+0x84>)
2000023a:	2300      	movs	r3, #0
2000023c:	f007 fbc6 	bl	200079cc <xTaskCreate>
20000240:	4b0d      	ldr	r3, [pc, #52]	; (20000278 <main+0x88>)
20000242:	0022      	movs	r2, r4
20000244:	9301      	str	r3, [sp, #4]
20000246:	2301      	movs	r3, #1
20000248:	490c      	ldr	r1, [pc, #48]	; (2000027c <main+0x8c>)
2000024a:	9300      	str	r3, [sp, #0]
2000024c:	480c      	ldr	r0, [pc, #48]	; (20000280 <main+0x90>)
2000024e:	2300      	movs	r3, #0
20000250:	f007 fbbc 	bl	200079cc <xTaskCreate>
20000254:	f007 fd8e 	bl	20007d74 <vTaskStartScheduler>
20000258:	2000      	movs	r0, #0
2000025a:	b002      	add	sp, #8
2000025c:	bd10      	pop	{r4, pc}
2000025e:	46c0      	nop			; (mov r8, r8)
20000260:	20010494 	.word	0x20010494
20000264:	20009b04 	.word	0x20009b04
20000268:	20000819 	.word	0x20000819
2000026c:	20010458 	.word	0x20010458
20000270:	20009b0c 	.word	0x20009b0c
20000274:	200001a1 	.word	0x200001a1
20000278:	2000fcf8 	.word	0x2000fcf8
2000027c:	20009b10 	.word	0x20009b10
20000280:	20000f91 	.word	0x20000f91

20000284 <tud_hid_get_report_cb>:
20000284:	2000      	movs	r0, #0
20000286:	4770      	bx	lr

20000288 <tud_hid_set_report_cb>:
20000288:	b570      	push	{r4, r5, r6, lr}
2000028a:	0018      	movs	r0, r3
2000028c:	4c08      	ldr	r4, [pc, #32]	; (200002b0 <tud_hid_set_report_cb+0x28>)
2000028e:	ab04      	add	r3, sp, #16
20000290:	881d      	ldrh	r5, [r3, #0]
20000292:	0021      	movs	r1, r4
20000294:	f000 ff50 	bl	20001138 <DAP_ProcessCommand>
20000298:	1c2b      	adds	r3, r5, #0
2000029a:	2d40      	cmp	r5, #64	; 0x40
2000029c:	d900      	bls.n	200002a0 <tud_hid_set_report_cb+0x18>
2000029e:	2340      	movs	r3, #64	; 0x40
200002a0:	0022      	movs	r2, r4
200002a2:	2100      	movs	r1, #0
200002a4:	b29b      	uxth	r3, r3
200002a6:	2000      	movs	r0, #0
200002a8:	f005 fc48 	bl	20005b3c <tud_hid_n_report>
200002ac:	bd70      	pop	{r4, r5, r6, pc}
200002ae:	46c0      	nop			; (mov r8, r8)
200002b0:	2000a620 	.word	0x2000a620

200002b4 <tud_vendor_control_xfer_cb>:
200002b4:	b5f0      	push	{r4, r5, r6, r7, lr}
200002b6:	0005      	movs	r5, r0
200002b8:	0014      	movs	r4, r2
200002ba:	2001      	movs	r0, #1
200002bc:	b083      	sub	sp, #12
200002be:	2901      	cmp	r1, #1
200002c0:	d105      	bne.n	200002ce <tud_vendor_control_xfer_cb+0x1a>
200002c2:	7813      	ldrb	r3, [r2, #0]
200002c4:	2000      	movs	r0, #0
200002c6:	065b      	lsls	r3, r3, #25
200002c8:	0f9b      	lsrs	r3, r3, #30
200002ca:	2b02      	cmp	r3, #2
200002cc:	d001      	beq.n	200002d2 <tud_vendor_control_xfer_cb+0x1e>
200002ce:	b003      	add	sp, #12
200002d0:	bdf0      	pop	{r4, r5, r6, r7, pc}
200002d2:	7853      	ldrb	r3, [r2, #1]
200002d4:	2b01      	cmp	r3, #1
200002d6:	d1fa      	bne.n	200002ce <tud_vendor_control_xfer_cb+0x1a>
200002d8:	7963      	ldrb	r3, [r4, #5]
200002da:	7912      	ldrb	r2, [r2, #4]
200002dc:	021b      	lsls	r3, r3, #8
200002de:	4313      	orrs	r3, r2
200002e0:	2b07      	cmp	r3, #7
200002e2:	d1f4      	bne.n	200002ce <tud_vendor_control_xfer_cb+0x1a>
200002e4:	466b      	mov	r3, sp
200002e6:	4e07      	ldr	r6, [pc, #28]	; (20000304 <tud_vendor_control_xfer_cb+0x50>)
200002e8:	1d9f      	adds	r7, r3, #6
200002ea:	0031      	movs	r1, r6
200002ec:	2202      	movs	r2, #2
200002ee:	0038      	movs	r0, r7
200002f0:	f003 fed2 	bl	20004098 <__wrap___aeabi_memcpy>
200002f4:	0032      	movs	r2, r6
200002f6:	0021      	movs	r1, r4
200002f8:	0028      	movs	r0, r5
200002fa:	883b      	ldrh	r3, [r7, #0]
200002fc:	3a08      	subs	r2, #8
200002fe:	f005 f859 	bl	200053b4 <tud_control_xfer>
20000302:	e7e4      	b.n	200002ce <tud_vendor_control_xfer_cb+0x1a>
20000304:	20009b5c 	.word	0x20009b5c

20000308 <vApplicationTickHook>:
20000308:	4770      	bx	lr
2000030a:	46c0      	nop			; (mov r8, r8)

2000030c <vApplicationStackOverflowHook>:
2000030c:	b510      	push	{r4, lr}
2000030e:	4802      	ldr	r0, [pc, #8]	; (20000318 <vApplicationStackOverflowHook+0xc>)
20000310:	7809      	ldrb	r1, [r1, #0]
20000312:	f003 fb33 	bl	2000397c <panic>
20000316:	46c0      	nop			; (mov r8, r8)
20000318:	20009b14 	.word	0x20009b14

2000031c <vApplicationMallocFailedHook>:
2000031c:	b510      	push	{r4, lr}
2000031e:	4801      	ldr	r0, [pc, #4]	; (20000324 <vApplicationMallocFailedHook+0x8>)
20000320:	f003 fb2c 	bl	2000397c <panic>
20000324:	20009b44 	.word	0x20009b44

20000328 <tud_descriptor_device_cb>:
20000328:	4800      	ldr	r0, [pc, #0]	; (2000032c <tud_descriptor_device_cb+0x4>)
2000032a:	4770      	bx	lr
2000032c:	20009cc4 	.word	0x20009cc4

20000330 <tud_hid_descriptor_report_cb>:
20000330:	4800      	ldr	r0, [pc, #0]	; (20000334 <tud_hid_descriptor_report_cb+0x4>)
20000332:	4770      	bx	lr
20000334:	20009ca0 	.word	0x20009ca0

20000338 <tud_descriptor_configuration_cb>:
20000338:	233e      	movs	r3, #62	; 0x3e
2000033a:	2206      	movs	r2, #6
2000033c:	4801      	ldr	r0, [pc, #4]	; (20000344 <tud_descriptor_configuration_cb+0xc>)
2000033e:	54c2      	strb	r2, [r0, r3]
20000340:	4770      	bx	lr
20000342:	46c0      	nop			; (mov r8, r8)
20000344:	2000a088 	.word	0x2000a088

20000348 <tud_descriptor_string_cb>:
20000348:	b510      	push	{r4, lr}
2000034a:	2800      	cmp	r0, #0
2000034c:	d025      	beq.n	2000039a <tud_descriptor_string_cb+0x52>
2000034e:	2806      	cmp	r0, #6
20000350:	d82e      	bhi.n	200003b0 <tud_descriptor_string_cb+0x68>
20000352:	4b18      	ldr	r3, [pc, #96]	; (200003b4 <tud_descriptor_string_cb+0x6c>)
20000354:	0080      	lsls	r0, r0, #2
20000356:	58c4      	ldr	r4, [r0, r3]
20000358:	0020      	movs	r0, r4
2000035a:	f008 fce5 	bl	20008d28 <strlen>
2000035e:	b2c0      	uxtb	r0, r0
20000360:	1c01      	adds	r1, r0, #0
20000362:	281f      	cmp	r0, #31
20000364:	d814      	bhi.n	20000390 <tud_descriptor_string_cb+0x48>
20000366:	b2c9      	uxtb	r1, r1
20000368:	2800      	cmp	r0, #0
2000036a:	d01f      	beq.n	200003ac <tud_descriptor_string_cb+0x64>
2000036c:	2300      	movs	r3, #0
2000036e:	4a12      	ldr	r2, [pc, #72]	; (200003b8 <tud_descriptor_string_cb+0x70>)
20000370:	5ce0      	ldrb	r0, [r4, r3]
20000372:	3301      	adds	r3, #1
20000374:	8010      	strh	r0, [r2, #0]
20000376:	b2d8      	uxtb	r0, r3
20000378:	3202      	adds	r2, #2
2000037a:	4281      	cmp	r1, r0
2000037c:	d8f8      	bhi.n	20000370 <tud_descriptor_string_cb+0x28>
2000037e:	23c0      	movs	r3, #192	; 0xc0
20000380:	3101      	adds	r1, #1
20000382:	b2c9      	uxtb	r1, r1
20000384:	0049      	lsls	r1, r1, #1
20000386:	009b      	lsls	r3, r3, #2
20000388:	430b      	orrs	r3, r1
2000038a:	480c      	ldr	r0, [pc, #48]	; (200003bc <tud_descriptor_string_cb+0x74>)
2000038c:	8003      	strh	r3, [r0, #0]
2000038e:	bd10      	pop	{r4, pc}
20000390:	211f      	movs	r1, #31
20000392:	b2c9      	uxtb	r1, r1
20000394:	2800      	cmp	r0, #0
20000396:	d1e9      	bne.n	2000036c <tud_descriptor_string_cb+0x24>
20000398:	e008      	b.n	200003ac <tud_descriptor_string_cb+0x64>
2000039a:	4b06      	ldr	r3, [pc, #24]	; (200003b4 <tud_descriptor_string_cb+0x6c>)
2000039c:	2202      	movs	r2, #2
2000039e:	6819      	ldr	r1, [r3, #0]
200003a0:	4805      	ldr	r0, [pc, #20]	; (200003b8 <tud_descriptor_string_cb+0x70>)
200003a2:	f003 fe79 	bl	20004098 <__wrap___aeabi_memcpy>
200003a6:	23c1      	movs	r3, #193	; 0xc1
200003a8:	009b      	lsls	r3, r3, #2
200003aa:	e7ee      	b.n	2000038a <tud_descriptor_string_cb+0x42>
200003ac:	4b04      	ldr	r3, [pc, #16]	; (200003c0 <tud_descriptor_string_cb+0x78>)
200003ae:	e7ec      	b.n	2000038a <tud_descriptor_string_cb+0x42>
200003b0:	2000      	movs	r0, #0
200003b2:	e7ec      	b.n	2000038e <tud_descriptor_string_cb+0x46>
200003b4:	2000a06c 	.word	0x2000a06c
200003b8:	2000b8da 	.word	0x2000b8da
200003bc:	2000b8d8 	.word	0x2000b8d8
200003c0:	00000302 	.word	0x00000302

200003c4 <tud_descriptor_bos_cb>:
200003c4:	4800      	ldr	r0, [pc, #0]	; (200003c8 <tud_descriptor_bos_cb+0x4>)
200003c6:	4770      	bx	lr
200003c8:	20009c08 	.word	0x20009c08

200003cc <probe_set_swclk_freq>:
200003cc:	b510      	push	{r4, lr}
200003ce:	0004      	movs	r4, r0
200003d0:	2005      	movs	r0, #5
200003d2:	f003 f9e3 	bl	2000379c <clock_get_hz>
200003d6:	21fa      	movs	r1, #250	; 0xfa
200003d8:	0089      	lsls	r1, r1, #2
200003da:	f003 fb53 	bl	20003a84 <__wrap___aeabi_uidiv>
200003de:	0021      	movs	r1, r4
200003e0:	f003 fb50 	bl	20003a84 <__wrap___aeabi_uidiv>
200003e4:	2803      	cmp	r0, #3
200003e6:	d905      	bls.n	200003f4 <probe_set_swclk_freq+0x28>
200003e8:	0880      	lsrs	r0, r0, #2
200003ea:	0400      	lsls	r0, r0, #16
200003ec:	23c8      	movs	r3, #200	; 0xc8
200003ee:	4a03      	ldr	r2, [pc, #12]	; (200003fc <probe_set_swclk_freq+0x30>)
200003f0:	50d0      	str	r0, [r2, r3]
200003f2:	bd10      	pop	{r4, pc}
200003f4:	2080      	movs	r0, #128	; 0x80
200003f6:	0240      	lsls	r0, r0, #9
200003f8:	e7f8      	b.n	200003ec <probe_set_swclk_freq+0x20>
200003fa:	46c0      	nop			; (mov r8, r8)
200003fc:	50200000 	.word	0x50200000

20000400 <probe_write_bits>:
20000400:	1e43      	subs	r3, r0, #1
20000402:	20ff      	movs	r0, #255	; 0xff
20000404:	b510      	push	{r4, lr}
20000406:	2480      	movs	r4, #128	; 0x80
20000408:	4018      	ands	r0, r3
2000040a:	4b0a      	ldr	r3, [pc, #40]	; (20000434 <probe_write_bits+0x34>)
2000040c:	0064      	lsls	r4, r4, #1
2000040e:	681b      	ldr	r3, [r3, #0]
20000410:	4a09      	ldr	r2, [pc, #36]	; (20000438 <probe_write_bits+0x38>)
20000412:	025b      	lsls	r3, r3, #9
20000414:	4318      	orrs	r0, r3
20000416:	4304      	orrs	r4, r0
20000418:	2080      	movs	r0, #128	; 0x80
2000041a:	0240      	lsls	r0, r0, #9
2000041c:	6853      	ldr	r3, [r2, #4]
2000041e:	4203      	tst	r3, r0
20000420:	d1fc      	bne.n	2000041c <probe_write_bits+0x1c>
20000422:	2080      	movs	r0, #128	; 0x80
20000424:	6114      	str	r4, [r2, #16]
20000426:	4a04      	ldr	r2, [pc, #16]	; (20000438 <probe_write_bits+0x38>)
20000428:	0240      	lsls	r0, r0, #9
2000042a:	6853      	ldr	r3, [r2, #4]
2000042c:	4203      	tst	r3, r0
2000042e:	d1fc      	bne.n	2000042a <probe_write_bits+0x2a>
20000430:	6111      	str	r1, [r2, #16]
20000432:	bd10      	pop	{r4, pc}
20000434:	2001016c 	.word	0x2001016c
20000438:	50200000 	.word	0x50200000

2000043c <probe_hiz_clocks>:
2000043c:	1e43      	subs	r3, r0, #1
2000043e:	20ff      	movs	r0, #255	; 0xff
20000440:	2180      	movs	r1, #128	; 0x80
20000442:	4018      	ands	r0, r3
20000444:	4b09      	ldr	r3, [pc, #36]	; (2000046c <probe_hiz_clocks+0x30>)
20000446:	4a0a      	ldr	r2, [pc, #40]	; (20000470 <probe_hiz_clocks+0x34>)
20000448:	681b      	ldr	r3, [r3, #0]
2000044a:	0249      	lsls	r1, r1, #9
2000044c:	025b      	lsls	r3, r3, #9
2000044e:	4318      	orrs	r0, r3
20000450:	6853      	ldr	r3, [r2, #4]
20000452:	420b      	tst	r3, r1
20000454:	d1fc      	bne.n	20000450 <probe_hiz_clocks+0x14>
20000456:	6110      	str	r0, [r2, #16]
20000458:	2280      	movs	r2, #128	; 0x80
2000045a:	4905      	ldr	r1, [pc, #20]	; (20000470 <probe_hiz_clocks+0x34>)
2000045c:	0252      	lsls	r2, r2, #9
2000045e:	684b      	ldr	r3, [r1, #4]
20000460:	0018      	movs	r0, r3
20000462:	4010      	ands	r0, r2
20000464:	4213      	tst	r3, r2
20000466:	d1fa      	bne.n	2000045e <probe_hiz_clocks+0x22>
20000468:	6108      	str	r0, [r1, #16]
2000046a:	4770      	bx	lr
2000046c:	2001016c 	.word	0x2001016c
20000470:	50200000 	.word	0x50200000

20000474 <probe_read_bits>:
20000474:	4b0e      	ldr	r3, [pc, #56]	; (200004b0 <probe_read_bits+0x3c>)
20000476:	b530      	push	{r4, r5, lr}
20000478:	681c      	ldr	r4, [r3, #0]
2000047a:	23ff      	movs	r3, #255	; 0xff
2000047c:	2180      	movs	r1, #128	; 0x80
2000047e:	0005      	movs	r5, r0
20000480:	1e42      	subs	r2, r0, #1
20000482:	3408      	adds	r4, #8
20000484:	4013      	ands	r3, r2
20000486:	0264      	lsls	r4, r4, #9
20000488:	4a0a      	ldr	r2, [pc, #40]	; (200004b4 <probe_read_bits+0x40>)
2000048a:	431c      	orrs	r4, r3
2000048c:	0249      	lsls	r1, r1, #9
2000048e:	6853      	ldr	r3, [r2, #4]
20000490:	420b      	tst	r3, r1
20000492:	d1fc      	bne.n	2000048e <probe_read_bits+0x1a>
20000494:	2180      	movs	r1, #128	; 0x80
20000496:	6114      	str	r4, [r2, #16]
20000498:	4a06      	ldr	r2, [pc, #24]	; (200004b4 <probe_read_bits+0x40>)
2000049a:	0049      	lsls	r1, r1, #1
2000049c:	6853      	ldr	r3, [r2, #4]
2000049e:	420b      	tst	r3, r1
200004a0:	d1fc      	bne.n	2000049c <probe_read_bits+0x28>
200004a2:	6a10      	ldr	r0, [r2, #32]
200004a4:	2d1f      	cmp	r5, #31
200004a6:	d802      	bhi.n	200004ae <probe_read_bits+0x3a>
200004a8:	2320      	movs	r3, #32
200004aa:	1b5b      	subs	r3, r3, r5
200004ac:	40d8      	lsrs	r0, r3
200004ae:	bd30      	pop	{r4, r5, pc}
200004b0:	2001016c 	.word	0x2001016c
200004b4:	50200000 	.word	0x50200000

200004b8 <probe_read_mode>:
200004b8:	4b0a      	ldr	r3, [pc, #40]	; (200004e4 <probe_read_mode+0x2c>)
200004ba:	2180      	movs	r1, #128	; 0x80
200004bc:	6818      	ldr	r0, [r3, #0]
200004be:	23ff      	movs	r3, #255	; 0xff
200004c0:	3003      	adds	r0, #3
200004c2:	0240      	lsls	r0, r0, #9
200004c4:	4a08      	ldr	r2, [pc, #32]	; (200004e8 <probe_read_mode+0x30>)
200004c6:	4318      	orrs	r0, r3
200004c8:	0249      	lsls	r1, r1, #9
200004ca:	6853      	ldr	r3, [r2, #4]
200004cc:	420b      	tst	r3, r1
200004ce:	d1fc      	bne.n	200004ca <probe_read_mode+0x12>
200004d0:	2180      	movs	r1, #128	; 0x80
200004d2:	0449      	lsls	r1, r1, #17
200004d4:	6110      	str	r0, [r2, #16]
200004d6:	6091      	str	r1, [r2, #8]
200004d8:	4a03      	ldr	r2, [pc, #12]	; (200004e8 <probe_read_mode+0x30>)
200004da:	6893      	ldr	r3, [r2, #8]
200004dc:	420b      	tst	r3, r1
200004de:	d0fc      	beq.n	200004da <probe_read_mode+0x22>
200004e0:	4770      	bx	lr
200004e2:	46c0      	nop			; (mov r8, r8)
200004e4:	2001016c 	.word	0x2001016c
200004e8:	50200000 	.word	0x50200000

200004ec <probe_write_mode>:
200004ec:	2180      	movs	r1, #128	; 0x80
200004ee:	4b0a      	ldr	r3, [pc, #40]	; (20000518 <probe_write_mode+0x2c>)
200004f0:	480a      	ldr	r0, [pc, #40]	; (2000051c <probe_write_mode+0x30>)
200004f2:	681b      	ldr	r3, [r3, #0]
200004f4:	4a0a      	ldr	r2, [pc, #40]	; (20000520 <probe_write_mode+0x34>)
200004f6:	3303      	adds	r3, #3
200004f8:	025b      	lsls	r3, r3, #9
200004fa:	4318      	orrs	r0, r3
200004fc:	0249      	lsls	r1, r1, #9
200004fe:	6853      	ldr	r3, [r2, #4]
20000500:	420b      	tst	r3, r1
20000502:	d1fc      	bne.n	200004fe <probe_write_mode+0x12>
20000504:	2180      	movs	r1, #128	; 0x80
20000506:	0449      	lsls	r1, r1, #17
20000508:	6110      	str	r0, [r2, #16]
2000050a:	6091      	str	r1, [r2, #8]
2000050c:	4a04      	ldr	r2, [pc, #16]	; (20000520 <probe_write_mode+0x34>)
2000050e:	6893      	ldr	r3, [r2, #8]
20000510:	420b      	tst	r3, r1
20000512:	d0fc      	beq.n	2000050e <probe_write_mode+0x22>
20000514:	4770      	bx	lr
20000516:	46c0      	nop			; (mov r8, r8)
20000518:	2001016c 	.word	0x2001016c
2000051c:	000001ff 	.word	0x000001ff
20000520:	50200000 	.word	0x50200000

20000524 <probe_init>:
20000524:	b5f0      	push	{r4, r5, r6, r7, lr}
20000526:	46c6      	mov	lr, r8
20000528:	b500      	push	{lr}
2000052a:	4c28      	ldr	r4, [pc, #160]	; (200005cc <probe_init+0xa8>)
2000052c:	b086      	sub	sp, #24
2000052e:	6863      	ldr	r3, [r4, #4]
20000530:	2b00      	cmp	r3, #0
20000532:	d003      	beq.n	2000053c <probe_init+0x18>
20000534:	b006      	add	sp, #24
20000536:	bc80      	pop	{r7}
20000538:	46b8      	mov	r8, r7
2000053a:	bdf0      	pop	{r4, r5, r6, r7, pc}
2000053c:	4924      	ldr	r1, [pc, #144]	; (200005d0 <probe_init+0xac>)
2000053e:	4825      	ldr	r0, [pc, #148]	; (200005d4 <probe_init+0xb0>)
20000540:	f006 f9d4 	bl	200068ec <pio_add_program>
20000544:	0003      	movs	r3, r0
20000546:	1cc6      	adds	r6, r0, #3
20000548:	330a      	adds	r3, #10
2000054a:	01f2      	lsls	r2, r6, #7
2000054c:	031b      	lsls	r3, r3, #12
2000054e:	4313      	orrs	r3, r2
20000550:	4a21      	ldr	r2, [pc, #132]	; (200005d8 <probe_init+0xb4>)
20000552:	2580      	movs	r5, #128	; 0x80
20000554:	4013      	ands	r3, r2
20000556:	2280      	movs	r2, #128	; 0x80
20000558:	05d2      	lsls	r2, r2, #23
2000055a:	4313      	orrs	r3, r2
2000055c:	9303      	str	r3, [sp, #12]
2000055e:	23c0      	movs	r3, #192	; 0xc0
20000560:	031b      	lsls	r3, r3, #12
20000562:	4698      	mov	r8, r3
20000564:	9304      	str	r3, [sp, #16]
20000566:	4b1d      	ldr	r3, [pc, #116]	; (200005dc <probe_init+0xb8>)
20000568:	6020      	str	r0, [r4, #0]
2000056a:	9305      	str	r3, [sp, #20]
2000056c:	2301      	movs	r3, #1
2000056e:	0007      	movs	r7, r0
20000570:	220c      	movs	r2, #12
20000572:	2100      	movs	r1, #0
20000574:	4817      	ldr	r0, [pc, #92]	; (200005d4 <probe_init+0xb0>)
20000576:	9300      	str	r3, [sp, #0]
20000578:	026d      	lsls	r5, r5, #9
2000057a:	3301      	adds	r3, #1
2000057c:	9502      	str	r5, [sp, #8]
2000057e:	f006 fa47 	bl	20006a10 <pio_sm_set_consecutive_pindirs>
20000582:	9b04      	ldr	r3, [sp, #16]
20000584:	4a16      	ldr	r2, [pc, #88]	; (200005e0 <probe_init+0xbc>)
20000586:	2100      	movs	r1, #0
20000588:	4013      	ands	r3, r2
2000058a:	4642      	mov	r2, r8
2000058c:	4313      	orrs	r3, r2
2000058e:	4811      	ldr	r0, [pc, #68]	; (200005d4 <probe_init+0xb0>)
20000590:	003a      	movs	r2, r7
20000592:	9304      	str	r3, [sp, #16]
20000594:	ab02      	add	r3, sp, #8
20000596:	f006 fa8f 	bl	20006ab8 <pio_sm_init>
2000059a:	2005      	movs	r0, #5
2000059c:	f003 f8fe 	bl	2000379c <clock_get_hz>
200005a0:	4b10      	ldr	r3, [pc, #64]	; (200005e4 <probe_init+0xc0>)
200005a2:	4298      	cmp	r0, r3
200005a4:	d80b      	bhi.n	200005be <probe_init+0x9a>
200005a6:	23c8      	movs	r3, #200	; 0xc8
200005a8:	2101      	movs	r1, #1
200005aa:	4a0a      	ldr	r2, [pc, #40]	; (200005d4 <probe_init+0xb0>)
200005ac:	50d5      	str	r5, [r2, r3]
200005ae:	3310      	adds	r3, #16
200005b0:	50d6      	str	r6, [r2, r3]
200005b2:	6813      	ldr	r3, [r2, #0]
200005b4:	438b      	bics	r3, r1
200005b6:	430b      	orrs	r3, r1
200005b8:	6013      	str	r3, [r2, #0]
200005ba:	6061      	str	r1, [r4, #4]
200005bc:	e7ba      	b.n	20000534 <probe_init+0x10>
200005be:	490a      	ldr	r1, [pc, #40]	; (200005e8 <probe_init+0xc4>)
200005c0:	f003 fa60 	bl	20003a84 <__wrap___aeabi_uidiv>
200005c4:	0885      	lsrs	r5, r0, #2
200005c6:	042d      	lsls	r5, r5, #16
200005c8:	e7ed      	b.n	200005a6 <probe_init+0x82>
200005ca:	46c0      	nop			; (mov r8, r8)
200005cc:	2001016c 	.word	0x2001016c
200005d0:	20009cd8 	.word	0x20009cd8
200005d4:	50200000 	.word	0x50200000
200005d8:	9fffffff 	.word	0x9fffffff
200005dc:	4416b1ce 	.word	0x4416b1ce
200005e0:	c000ffff 	.word	0xc000ffff
200005e4:	003d08ff 	.word	0x003d08ff
200005e8:	000f4240 	.word	0x000f4240

200005ec <probe_deinit>:
200005ec:	b570      	push	{r4, r5, r6, lr}
200005ee:	4c11      	ldr	r4, [pc, #68]	; (20000634 <probe_deinit+0x48>)
200005f0:	6863      	ldr	r3, [r4, #4]
200005f2:	2b00      	cmp	r3, #0
200005f4:	d01c      	beq.n	20000630 <probe_deinit+0x44>
200005f6:	23ff      	movs	r3, #255	; 0xff
200005f8:	2080      	movs	r0, #128	; 0x80
200005fa:	6822      	ldr	r2, [r4, #0]
200005fc:	490e      	ldr	r1, [pc, #56]	; (20000638 <probe_deinit+0x4c>)
200005fe:	1cd5      	adds	r5, r2, #3
20000600:	026d      	lsls	r5, r5, #9
20000602:	431d      	orrs	r5, r3
20000604:	0240      	lsls	r0, r0, #9
20000606:	684b      	ldr	r3, [r1, #4]
20000608:	4203      	tst	r3, r0
2000060a:	d1fc      	bne.n	20000606 <probe_deinit+0x1a>
2000060c:	2080      	movs	r0, #128	; 0x80
2000060e:	0440      	lsls	r0, r0, #17
20000610:	610d      	str	r5, [r1, #16]
20000612:	6088      	str	r0, [r1, #8]
20000614:	4908      	ldr	r1, [pc, #32]	; (20000638 <probe_deinit+0x4c>)
20000616:	688b      	ldr	r3, [r1, #8]
20000618:	4203      	tst	r3, r0
2000061a:	d0fc      	beq.n	20000616 <probe_deinit+0x2a>
2000061c:	2001      	movs	r0, #1
2000061e:	680b      	ldr	r3, [r1, #0]
20000620:	4383      	bics	r3, r0
20000622:	600b      	str	r3, [r1, #0]
20000624:	4804      	ldr	r0, [pc, #16]	; (20000638 <probe_deinit+0x4c>)
20000626:	4905      	ldr	r1, [pc, #20]	; (2000063c <probe_deinit+0x50>)
20000628:	f006 f9d8 	bl	200069dc <pio_remove_program>
2000062c:	2300      	movs	r3, #0
2000062e:	6063      	str	r3, [r4, #4]
20000630:	bd70      	pop	{r4, r5, r6, pc}
20000632:	46c0      	nop			; (mov r8, r8)
20000634:	2001016c 	.word	0x2001016c
20000638:	50200000 	.word	0x50200000
2000063c:	20009cd8 	.word	0x20009cd8

20000640 <cdc_uart_init>:
20000640:	b510      	push	{r4, lr}
20000642:	2102      	movs	r1, #2
20000644:	2004      	movs	r0, #4
20000646:	f002 fd8b 	bl	20003160 <gpio_set_function>
2000064a:	2102      	movs	r1, #2
2000064c:	2005      	movs	r0, #5
2000064e:	f002 fd87 	bl	20003160 <gpio_set_function>
20000652:	2200      	movs	r2, #0
20000654:	2101      	movs	r1, #1
20000656:	2004      	movs	r0, #4
20000658:	f002 fda4 	bl	200031a4 <gpio_set_pulls>
2000065c:	2200      	movs	r2, #0
2000065e:	2101      	movs	r1, #1
20000660:	2005      	movs	r0, #5
20000662:	f002 fd9f 	bl	200031a4 <gpio_set_pulls>
20000666:	21e1      	movs	r1, #225	; 0xe1
20000668:	4802      	ldr	r0, [pc, #8]	; (20000674 <cdc_uart_init+0x34>)
2000066a:	0249      	lsls	r1, r1, #9
2000066c:	f002 fdee 	bl	2000324c <uart_init>
20000670:	bd10      	pop	{r4, pc}
20000672:	46c0      	nop			; (mov r8, r8)
20000674:	40038000 	.word	0x40038000

20000678 <cdc_task>:
20000678:	2110      	movs	r1, #16
2000067a:	b5f8      	push	{r3, r4, r5, r6, r7, lr}
2000067c:	000c      	movs	r4, r1
2000067e:	4a5b      	ldr	r2, [pc, #364]	; (200007ec <cdc_task+0x174>)
20000680:	6993      	ldr	r3, [r2, #24]
20000682:	401c      	ands	r4, r3
20000684:	4219      	tst	r1, r3
20000686:	d142      	bne.n	2000070e <cdc_task+0x96>
20000688:	4859      	ldr	r0, [pc, #356]	; (200007f0 <cdc_task+0x178>)
2000068a:	3401      	adds	r4, #1
2000068c:	6993      	ldr	r3, [r2, #24]
2000068e:	4219      	tst	r1, r3
20000690:	d1fc      	bne.n	2000068c <cdc_task+0x14>
20000692:	6813      	ldr	r3, [r2, #0]
20000694:	5503      	strb	r3, [r0, r4]
20000696:	6993      	ldr	r3, [r2, #24]
20000698:	4219      	tst	r1, r3
2000069a:	d101      	bne.n	200006a0 <cdc_task+0x28>
2000069c:	2c20      	cmp	r4, #32
2000069e:	d1f4      	bne.n	2000068a <cdc_task+0x12>
200006a0:	2000      	movs	r0, #0
200006a2:	f004 ff75 	bl	20005590 <tud_cdc_n_connected>
200006a6:	2800      	cmp	r0, #0
200006a8:	d036      	beq.n	20000718 <cdc_task+0xa0>
200006aa:	2201      	movs	r2, #1
200006ac:	4b51      	ldr	r3, [pc, #324]	; (200007f4 <cdc_task+0x17c>)
200006ae:	2000      	movs	r0, #0
200006b0:	601a      	str	r2, [r3, #0]
200006b2:	23d0      	movs	r3, #208	; 0xd0
200006b4:	327f      	adds	r2, #127	; 0x7f
200006b6:	061b      	lsls	r3, r3, #24
200006b8:	615a      	str	r2, [r3, #20]
200006ba:	4a4f      	ldr	r2, [pc, #316]	; (200007f8 <cdc_task+0x180>)
200006bc:	4b4f      	ldr	r3, [pc, #316]	; (200007fc <cdc_task+0x184>)
200006be:	6812      	ldr	r2, [r2, #0]
200006c0:	601a      	str	r2, [r3, #0]
200006c2:	f005 f84b 	bl	2000575c <tud_cdc_n_write_available>
200006c6:	4284      	cmp	r4, r0
200006c8:	d900      	bls.n	200006cc <cdc_task+0x54>
200006ca:	e080      	b.n	200007ce <cdc_task+0x156>
200006cc:	0022      	movs	r2, r4
200006ce:	2000      	movs	r0, #0
200006d0:	494b      	ldr	r1, [pc, #300]	; (20000800 <cdc_task+0x188>)
200006d2:	f005 f829 	bl	20005728 <tud_cdc_n_write>
200006d6:	2000      	movs	r0, #0
200006d8:	f004 ffe8 	bl	200056ac <tud_cdc_n_write_flush>
200006dc:	2000      	movs	r0, #0
200006de:	f004 ff6f 	bl	200055c0 <tud_cdc_n_available>
200006e2:	281f      	cmp	r0, #31
200006e4:	d82e      	bhi.n	20000744 <cdc_task+0xcc>
200006e6:	2000      	movs	r0, #0
200006e8:	f004 ff6a 	bl	200055c0 <tud_cdc_n_available>
200006ec:	1e02      	subs	r2, r0, #0
200006ee:	d127      	bne.n	20000740 <cdc_task+0xc8>
200006f0:	4d44      	ldr	r5, [pc, #272]	; (20000804 <cdc_task+0x18c>)
200006f2:	682b      	ldr	r3, [r5, #0]
200006f4:	2b00      	cmp	r3, #0
200006f6:	d055      	beq.n	200007a4 <cdc_task+0x12c>
200006f8:	682b      	ldr	r3, [r5, #0]
200006fa:	3b01      	subs	r3, #1
200006fc:	602b      	str	r3, [r5, #0]
200006fe:	4e42      	ldr	r6, [pc, #264]	; (20000808 <cdc_task+0x190>)
20000700:	7833      	ldrb	r3, [r6, #0]
20000702:	b2dc      	uxtb	r4, r3
20000704:	2b00      	cmp	r3, #0
20000706:	d13f      	bne.n	20000788 <cdc_task+0x110>
20000708:	2400      	movs	r4, #0
2000070a:	0020      	movs	r0, r4
2000070c:	bdf8      	pop	{r3, r4, r5, r6, r7, pc}
2000070e:	2000      	movs	r0, #0
20000710:	f004 ff3e 	bl	20005590 <tud_cdc_n_connected>
20000714:	2800      	cmp	r0, #0
20000716:	d14b      	bne.n	200007b0 <cdc_task+0x138>
20000718:	4c36      	ldr	r4, [pc, #216]	; (200007f4 <cdc_task+0x17c>)
2000071a:	6823      	ldr	r3, [r4, #0]
2000071c:	2b00      	cmp	r3, #0
2000071e:	d0f3      	beq.n	20000708 <cdc_task+0x90>
20000720:	2000      	movs	r0, #0
20000722:	f005 f827 	bl	20005774 <tud_cdc_n_write_clear>
20000726:	2100      	movs	r1, #0
20000728:	4830      	ldr	r0, [pc, #192]	; (200007ec <cdc_task+0x174>)
2000072a:	f002 fea3 	bl	20003474 <uart_set_break>
2000072e:	2300      	movs	r3, #0
20000730:	4a35      	ldr	r2, [pc, #212]	; (20000808 <cdc_task+0x190>)
20000732:	6023      	str	r3, [r4, #0]
20000734:	7013      	strb	r3, [r2, #0]
20000736:	4a33      	ldr	r2, [pc, #204]	; (20000804 <cdc_task+0x18c>)
20000738:	6013      	str	r3, [r2, #0]
2000073a:	4a34      	ldr	r2, [pc, #208]	; (2000080c <cdc_task+0x194>)
2000073c:	6013      	str	r3, [r2, #0]
2000073e:	e7e3      	b.n	20000708 <cdc_task+0x90>
20000740:	2810      	cmp	r0, #16
20000742:	d900      	bls.n	20000746 <cdc_task+0xce>
20000744:	2210      	movs	r2, #16
20000746:	23d0      	movs	r3, #208	; 0xd0
20000748:	2180      	movs	r1, #128	; 0x80
2000074a:	061b      	lsls	r3, r3, #24
2000074c:	0049      	lsls	r1, r1, #1
2000074e:	6159      	str	r1, [r3, #20]
20000750:	4b29      	ldr	r3, [pc, #164]	; (200007f8 <cdc_task+0x180>)
20000752:	492f      	ldr	r1, [pc, #188]	; (20000810 <cdc_task+0x198>)
20000754:	681b      	ldr	r3, [r3, #0]
20000756:	4d2b      	ldr	r5, [pc, #172]	; (20000804 <cdc_task+0x18c>)
20000758:	2000      	movs	r0, #0
2000075a:	000c      	movs	r4, r1
2000075c:	602b      	str	r3, [r5, #0]
2000075e:	f004 ff3b 	bl	200055d8 <tud_cdc_n_read>
20000762:	0021      	movs	r1, r4
20000764:	1824      	adds	r4, r4, r0
20000766:	2800      	cmp	r0, #0
20000768:	d0c9      	beq.n	200006fe <cdc_task+0x86>
2000076a:	2020      	movs	r0, #32
2000076c:	4a1f      	ldr	r2, [pc, #124]	; (200007ec <cdc_task+0x174>)
2000076e:	6993      	ldr	r3, [r2, #24]
20000770:	4218      	tst	r0, r3
20000772:	d1fc      	bne.n	2000076e <cdc_task+0xf6>
20000774:	780b      	ldrb	r3, [r1, #0]
20000776:	3101      	adds	r1, #1
20000778:	6013      	str	r3, [r2, #0]
2000077a:	42a1      	cmp	r1, r4
2000077c:	d1f7      	bne.n	2000076e <cdc_task+0xf6>
2000077e:	4e22      	ldr	r6, [pc, #136]	; (20000808 <cdc_task+0x190>)
20000780:	7833      	ldrb	r3, [r6, #0]
20000782:	b2dc      	uxtb	r4, r3
20000784:	2b00      	cmp	r3, #0
20000786:	d0bf      	beq.n	20000708 <cdc_task+0x90>
20000788:	4b22      	ldr	r3, [pc, #136]	; (20000814 <cdc_task+0x19c>)
2000078a:	681f      	ldr	r7, [r3, #0]
2000078c:	f007 fbe8 	bl	20007f60 <xTaskGetTickCount>
20000790:	4287      	cmp	r7, r0
20000792:	daba      	bge.n	2000070a <cdc_task+0x92>
20000794:	2400      	movs	r4, #0
20000796:	2100      	movs	r1, #0
20000798:	4814      	ldr	r0, [pc, #80]	; (200007ec <cdc_task+0x174>)
2000079a:	7034      	strb	r4, [r6, #0]
2000079c:	f002 fe6a 	bl	20003474 <uart_set_break>
200007a0:	602c      	str	r4, [r5, #0]
200007a2:	e7b1      	b.n	20000708 <cdc_task+0x90>
200007a4:	23d0      	movs	r3, #208	; 0xd0
200007a6:	2280      	movs	r2, #128	; 0x80
200007a8:	061b      	lsls	r3, r3, #24
200007aa:	0052      	lsls	r2, r2, #1
200007ac:	619a      	str	r2, [r3, #24]
200007ae:	e7a6      	b.n	200006fe <cdc_task+0x86>
200007b0:	2201      	movs	r2, #1
200007b2:	4b10      	ldr	r3, [pc, #64]	; (200007f4 <cdc_task+0x17c>)
200007b4:	601a      	str	r2, [r3, #0]
200007b6:	4a11      	ldr	r2, [pc, #68]	; (200007fc <cdc_task+0x184>)
200007b8:	6813      	ldr	r3, [r2, #0]
200007ba:	2b00      	cmp	r3, #0
200007bc:	d002      	beq.n	200007c4 <cdc_task+0x14c>
200007be:	3b01      	subs	r3, #1
200007c0:	6013      	str	r3, [r2, #0]
200007c2:	e78b      	b.n	200006dc <cdc_task+0x64>
200007c4:	23d0      	movs	r3, #208	; 0xd0
200007c6:	2280      	movs	r2, #128	; 0x80
200007c8:	061b      	lsls	r3, r3, #24
200007ca:	619a      	str	r2, [r3, #24]
200007cc:	e786      	b.n	200006dc <cdc_task+0x64>
200007ce:	2000      	movs	r0, #0
200007d0:	f004 ffc4 	bl	2000575c <tud_cdc_n_write_available>
200007d4:	4284      	cmp	r4, r0
200007d6:	d903      	bls.n	200007e0 <cdc_task+0x168>
200007d8:	4a0c      	ldr	r2, [pc, #48]	; (2000080c <cdc_task+0x194>)
200007da:	6813      	ldr	r3, [r2, #0]
200007dc:	3301      	adds	r3, #1
200007de:	6013      	str	r3, [r2, #0]
200007e0:	2800      	cmp	r0, #0
200007e2:	dc00      	bgt.n	200007e6 <cdc_task+0x16e>
200007e4:	e77a      	b.n	200006dc <cdc_task+0x64>
200007e6:	0004      	movs	r4, r0
200007e8:	e770      	b.n	200006cc <cdc_task+0x54>
200007ea:	46c0      	nop			; (mov r8, r8)
200007ec:	40038000 	.word	0x40038000
200007f0:	2001041b 	.word	0x2001041b
200007f4:	200204cc 	.word	0x200204cc
200007f8:	2000a0ec 	.word	0x2000a0ec
200007fc:	2001043c 	.word	0x2001043c
20000800:	2001041c 	.word	0x2001041c
20000804:	2001047c 	.word	0x2001047c
20000808:	20020594 	.word	0x20020594
2000080c:	2000fce8 	.word	0x2000fce8
20000810:	2001045c 	.word	0x2001045c
20000814:	2000fce0 	.word	0x2000fce0

20000818 <cdc_thread>:
20000818:	b570      	push	{r4, r5, r6, lr}
2000081a:	f007 fba1 	bl	20007f60 <xTaskGetTickCount>
2000081e:	4c08      	ldr	r4, [pc, #32]	; (20000840 <cdc_thread+0x28>)
20000820:	4d08      	ldr	r5, [pc, #32]	; (20000844 <cdc_thread+0x2c>)
20000822:	6020      	str	r0, [r4, #0]
20000824:	f7ff ff28 	bl	20000678 <cdc_task>
20000828:	2800      	cmp	r0, #0
2000082a:	d1fb      	bne.n	20000824 <cdc_thread+0xc>
2000082c:	0020      	movs	r0, r4
2000082e:	6829      	ldr	r1, [r5, #0]
20000830:	f007 fd36 	bl	200082a0 <xTaskDelayUntil>
20000834:	2800      	cmp	r0, #0
20000836:	d1f5      	bne.n	20000824 <cdc_thread+0xc>
20000838:	f007 fb92 	bl	20007f60 <xTaskGetTickCount>
2000083c:	e7f1      	b.n	20000822 <cdc_thread+0xa>
2000083e:	46c0      	nop			; (mov r8, r8)
20000840:	2001014c 	.word	0x2001014c
20000844:	2000a0f0 	.word	0x2000a0f0

20000848 <tud_cdc_line_coding_cb>:
20000848:	784a      	ldrb	r2, [r1, #1]
2000084a:	780b      	ldrb	r3, [r1, #0]
2000084c:	0212      	lsls	r2, r2, #8
2000084e:	431a      	orrs	r2, r3
20000850:	788b      	ldrb	r3, [r1, #2]
20000852:	b570      	push	{r4, r5, r6, lr}
20000854:	000c      	movs	r4, r1
20000856:	78c9      	ldrb	r1, [r1, #3]
20000858:	041b      	lsls	r3, r3, #16
2000085a:	4313      	orrs	r3, r2
2000085c:	0609      	lsls	r1, r1, #24
2000085e:	4319      	orrs	r1, r3
20000860:	d100      	bne.n	20000864 <tud_cdc_line_coding_cb+0x1c>
20000862:	3101      	adds	r1, #1
20000864:	4829      	ldr	r0, [pc, #164]	; (2000090c <tud_cdc_line_coding_cb+0xc4>)
20000866:	f003 f90d 	bl	20003a84 <__wrap___aeabi_uidiv>
2000086a:	4d29      	ldr	r5, [pc, #164]	; (20000910 <tud_cdc_line_coding_cb+0xc8>)
2000086c:	0006      	movs	r6, r0
2000086e:	6828      	ldr	r0, [r5, #0]
20000870:	f007 f9d2 	bl	20007c18 <vTaskSuspend>
20000874:	2e31      	cmp	r6, #49	; 0x31
20000876:	d836      	bhi.n	200008e6 <tud_cdc_line_coding_cb+0x9e>
20000878:	2201      	movs	r2, #1
2000087a:	4b26      	ldr	r3, [pc, #152]	; (20000914 <tud_cdc_line_coding_cb+0xcc>)
2000087c:	601a      	str	r2, [r3, #0]
2000087e:	23fa      	movs	r3, #250	; 0xfa
20000880:	005b      	lsls	r3, r3, #1
20000882:	4a25      	ldr	r2, [pc, #148]	; (20000918 <tud_cdc_line_coding_cb+0xd0>)
20000884:	4825      	ldr	r0, [pc, #148]	; (2000091c <tud_cdc_line_coding_cb+0xd4>)
20000886:	6013      	str	r3, [r2, #0]
20000888:	f002 fda4 	bl	200033d4 <uart_deinit>
2000088c:	2000      	movs	r0, #0
2000088e:	f004 ff71 	bl	20005774 <tud_cdc_n_write_clear>
20000892:	2000      	movs	r0, #0
20000894:	f004 feda 	bl	2000564c <tud_cdc_n_read_flush>
20000898:	7862      	ldrb	r2, [r4, #1]
2000089a:	7823      	ldrb	r3, [r4, #0]
2000089c:	0212      	lsls	r2, r2, #8
2000089e:	431a      	orrs	r2, r3
200008a0:	78a3      	ldrb	r3, [r4, #2]
200008a2:	78e1      	ldrb	r1, [r4, #3]
200008a4:	041b      	lsls	r3, r3, #16
200008a6:	4313      	orrs	r3, r2
200008a8:	0609      	lsls	r1, r1, #24
200008aa:	4319      	orrs	r1, r3
200008ac:	481b      	ldr	r0, [pc, #108]	; (2000091c <tud_cdc_line_coding_cb+0xd4>)
200008ae:	f002 fccd 	bl	2000324c <uart_init>
200008b2:	7963      	ldrb	r3, [r4, #5]
200008b4:	2b01      	cmp	r3, #1
200008b6:	d027      	beq.n	20000908 <tud_cdc_line_coding_cb+0xc0>
200008b8:	3b02      	subs	r3, #2
200008ba:	425a      	negs	r2, r3
200008bc:	4153      	adcs	r3, r2
200008be:	b2db      	uxtb	r3, r3
200008c0:	79a1      	ldrb	r1, [r4, #6]
200008c2:	1f4a      	subs	r2, r1, #5
200008c4:	2a03      	cmp	r2, #3
200008c6:	d900      	bls.n	200008ca <tud_cdc_line_coding_cb+0x82>
200008c8:	2108      	movs	r1, #8
200008ca:	7920      	ldrb	r0, [r4, #4]
200008cc:	2200      	movs	r2, #0
200008ce:	2401      	movs	r4, #1
200008d0:	3801      	subs	r0, #1
200008d2:	4284      	cmp	r4, r0
200008d4:	4152      	adcs	r2, r2
200008d6:	4811      	ldr	r0, [pc, #68]	; (2000091c <tud_cdc_line_coding_cb+0xd4>)
200008d8:	3201      	adds	r2, #1
200008da:	f002 fd8d 	bl	200033f8 <uart_set_format>
200008de:	6828      	ldr	r0, [r5, #0]
200008e0:	f007 fa00 	bl	20007ce4 <vTaskResume>
200008e4:	bd70      	pop	{r4, r5, r6, pc}
200008e6:	2132      	movs	r1, #50	; 0x32
200008e8:	0030      	movs	r0, r6
200008ea:	f003 f8cb 	bl	20003a84 <__wrap___aeabi_uidiv>
200008ee:	4b09      	ldr	r3, [pc, #36]	; (20000914 <tud_cdc_line_coding_cb+0xcc>)
200008f0:	0081      	lsls	r1, r0, #2
200008f2:	6018      	str	r0, [r3, #0]
200008f4:	1809      	adds	r1, r1, r0
200008f6:	480a      	ldr	r0, [pc, #40]	; (20000920 <tud_cdc_line_coding_cb+0xd8>)
200008f8:	2301      	movs	r3, #1
200008fa:	00c9      	lsls	r1, r1, #3
200008fc:	4281      	cmp	r1, r0
200008fe:	d8c0      	bhi.n	20000882 <tud_cdc_line_coding_cb+0x3a>
20000900:	f003 f8c0 	bl	20003a84 <__wrap___aeabi_uidiv>
20000904:	0003      	movs	r3, r0
20000906:	e7bc      	b.n	20000882 <tud_cdc_line_coding_cb+0x3a>
20000908:	2302      	movs	r3, #2
2000090a:	e7d9      	b.n	200008c0 <tud_cdc_line_coding_cb+0x78>
2000090c:	09896800 	.word	0x09896800
20000910:	20010494 	.word	0x20010494
20000914:	2000a0f0 	.word	0x2000a0f0
20000918:	2000a0ec 	.word	0x2000a0ec
2000091c:	40038000 	.word	0x40038000
20000920:	00004e20 	.word	0x00004e20

20000924 <tud_cdc_line_state_cb>:
20000924:	4b0c      	ldr	r3, [pc, #48]	; (20000958 <tud_cdc_line_state_cb+0x34>)
20000926:	b510      	push	{r4, lr}
20000928:	6818      	ldr	r0, [r3, #0]
2000092a:	0014      	movs	r4, r2
2000092c:	2900      	cmp	r1, #0
2000092e:	d101      	bne.n	20000934 <tud_cdc_line_state_cb+0x10>
20000930:	2a00      	cmp	r2, #0
20000932:	d002      	beq.n	2000093a <tud_cdc_line_state_cb+0x16>
20000934:	f007 f9d6 	bl	20007ce4 <vTaskResume>
20000938:	bd10      	pop	{r4, pc}
2000093a:	f007 f96d 	bl	20007c18 <vTaskSuspend>
2000093e:	23d0      	movs	r3, #208	; 0xd0
20000940:	2280      	movs	r2, #128	; 0x80
20000942:	061b      	lsls	r3, r3, #24
20000944:	619a      	str	r2, [r3, #24]
20000946:	4a05      	ldr	r2, [pc, #20]	; (2000095c <tud_cdc_line_state_cb+0x38>)
20000948:	6014      	str	r4, [r2, #0]
2000094a:	2280      	movs	r2, #128	; 0x80
2000094c:	0052      	lsls	r2, r2, #1
2000094e:	619a      	str	r2, [r3, #24]
20000950:	4b03      	ldr	r3, [pc, #12]	; (20000960 <tud_cdc_line_state_cb+0x3c>)
20000952:	601c      	str	r4, [r3, #0]
20000954:	e7f0      	b.n	20000938 <tud_cdc_line_state_cb+0x14>
20000956:	46c0      	nop			; (mov r8, r8)
20000958:	20010494 	.word	0x20010494
2000095c:	2001043c 	.word	0x2001043c
20000960:	2001047c 	.word	0x2001047c

20000964 <tud_cdc_send_break_cb>:
20000964:	b510      	push	{r4, lr}
20000966:	1e0c      	subs	r4, r1, #0
20000968:	d01a      	beq.n	200009a0 <tud_cdc_send_break_cb+0x3c>
2000096a:	4b1a      	ldr	r3, [pc, #104]	; (200009d4 <tud_cdc_send_break_cb+0x70>)
2000096c:	4299      	cmp	r1, r3
2000096e:	d020      	beq.n	200009b2 <tud_cdc_send_break_cb+0x4e>
20000970:	2101      	movs	r1, #1
20000972:	4819      	ldr	r0, [pc, #100]	; (200009d8 <tud_cdc_send_break_cb+0x74>)
20000974:	f002 fd7e 	bl	20003474 <uart_set_break>
20000978:	2201      	movs	r2, #1
2000097a:	4b18      	ldr	r3, [pc, #96]	; (200009dc <tud_cdc_send_break_cb+0x78>)
2000097c:	701a      	strb	r2, [r3, #0]
2000097e:	23d0      	movs	r3, #208	; 0xd0
20000980:	32ff      	adds	r2, #255	; 0xff
20000982:	061b      	lsls	r3, r3, #24
20000984:	615a      	str	r2, [r3, #20]
20000986:	2280      	movs	r2, #128	; 0x80
20000988:	4b15      	ldr	r3, [pc, #84]	; (200009e0 <tud_cdc_send_break_cb+0x7c>)
2000098a:	05d2      	lsls	r2, r2, #23
2000098c:	601a      	str	r2, [r3, #0]
2000098e:	f007 fae7 	bl	20007f60 <xTaskGetTickCount>
20000992:	00a3      	lsls	r3, r4, #2
20000994:	191b      	adds	r3, r3, r4
20000996:	4a13      	ldr	r2, [pc, #76]	; (200009e4 <tud_cdc_send_break_cb+0x80>)
20000998:	009b      	lsls	r3, r3, #2
2000099a:	181b      	adds	r3, r3, r0
2000099c:	6013      	str	r3, [r2, #0]
2000099e:	bd10      	pop	{r4, pc}
200009a0:	2100      	movs	r1, #0
200009a2:	480d      	ldr	r0, [pc, #52]	; (200009d8 <tud_cdc_send_break_cb+0x74>)
200009a4:	f002 fd66 	bl	20003474 <uart_set_break>
200009a8:	4b0c      	ldr	r3, [pc, #48]	; (200009dc <tud_cdc_send_break_cb+0x78>)
200009aa:	701c      	strb	r4, [r3, #0]
200009ac:	4b0c      	ldr	r3, [pc, #48]	; (200009e0 <tud_cdc_send_break_cb+0x7c>)
200009ae:	601c      	str	r4, [r3, #0]
200009b0:	e7f5      	b.n	2000099e <tud_cdc_send_break_cb+0x3a>
200009b2:	2101      	movs	r1, #1
200009b4:	4808      	ldr	r0, [pc, #32]	; (200009d8 <tud_cdc_send_break_cb+0x74>)
200009b6:	f002 fd5d 	bl	20003474 <uart_set_break>
200009ba:	2200      	movs	r2, #0
200009bc:	4b07      	ldr	r3, [pc, #28]	; (200009dc <tud_cdc_send_break_cb+0x78>)
200009be:	701a      	strb	r2, [r3, #0]
200009c0:	23d0      	movs	r3, #208	; 0xd0
200009c2:	3201      	adds	r2, #1
200009c4:	061b      	lsls	r3, r3, #24
200009c6:	32ff      	adds	r2, #255	; 0xff
200009c8:	615a      	str	r2, [r3, #20]
200009ca:	2280      	movs	r2, #128	; 0x80
200009cc:	4b04      	ldr	r3, [pc, #16]	; (200009e0 <tud_cdc_send_break_cb+0x7c>)
200009ce:	05d2      	lsls	r2, r2, #23
200009d0:	601a      	str	r2, [r3, #0]
200009d2:	e7e4      	b.n	2000099e <tud_cdc_send_break_cb+0x3a>
200009d4:	0000ffff 	.word	0x0000ffff
200009d8:	40038000 	.word	0x40038000
200009dc:	20020594 	.word	0x20020594
200009e0:	2001047c 	.word	0x2001047c
200009e4:	2000fce0 	.word	0x2000fce0

200009e8 <usb_serial_init>:
200009e8:	b570      	push	{r4, r5, r6, lr}
200009ea:	4c77      	ldr	r4, [pc, #476]	; (20000bc8 <usb_serial_init+0x1e0>)
200009ec:	0020      	movs	r0, r4
200009ee:	f003 fda1 	bl	20004534 <pico_get_unique_board_id>
200009f2:	7823      	ldrb	r3, [r4, #0]
200009f4:	0918      	lsrs	r0, r3, #4
200009f6:	0001      	movs	r1, r0
200009f8:	011a      	lsls	r2, r3, #4
200009fa:	b2d2      	uxtb	r2, r2
200009fc:	3130      	adds	r1, #48	; 0x30
200009fe:	2b9f      	cmp	r3, #159	; 0x9f
20000a00:	d900      	bls.n	20000a04 <usb_serial_init+0x1c>
20000a02:	3107      	adds	r1, #7
20000a04:	4b71      	ldr	r3, [pc, #452]	; (20000bcc <usb_serial_init+0x1e4>)
20000a06:	0910      	lsrs	r0, r2, #4
20000a08:	7019      	strb	r1, [r3, #0]
20000a0a:	2100      	movs	r1, #0
20000a0c:	7021      	strb	r1, [r4, #0]
20000a0e:	0001      	movs	r1, r0
20000a10:	3130      	adds	r1, #48	; 0x30
20000a12:	2a9f      	cmp	r2, #159	; 0x9f
20000a14:	d900      	bls.n	20000a18 <usb_serial_init+0x30>
20000a16:	e0d4      	b.n	20000bc2 <usb_serial_init+0x1da>
20000a18:	7059      	strb	r1, [r3, #1]
20000a1a:	7861      	ldrb	r1, [r4, #1]
20000a1c:	090d      	lsrs	r5, r1, #4
20000a1e:	0028      	movs	r0, r5
20000a20:	010a      	lsls	r2, r1, #4
20000a22:	b2d2      	uxtb	r2, r2
20000a24:	3030      	adds	r0, #48	; 0x30
20000a26:	299f      	cmp	r1, #159	; 0x9f
20000a28:	d900      	bls.n	20000a2c <usb_serial_init+0x44>
20000a2a:	e0bf      	b.n	20000bac <usb_serial_init+0x1c4>
20000a2c:	2100      	movs	r1, #0
20000a2e:	7098      	strb	r0, [r3, #2]
20000a30:	0910      	lsrs	r0, r2, #4
20000a32:	7061      	strb	r1, [r4, #1]
20000a34:	0001      	movs	r1, r0
20000a36:	3130      	adds	r1, #48	; 0x30
20000a38:	2a9f      	cmp	r2, #159	; 0x9f
20000a3a:	d900      	bls.n	20000a3e <usb_serial_init+0x56>
20000a3c:	e0b4      	b.n	20000ba8 <usb_serial_init+0x1c0>
20000a3e:	70d9      	strb	r1, [r3, #3]
20000a40:	78a1      	ldrb	r1, [r4, #2]
20000a42:	090d      	lsrs	r5, r1, #4
20000a44:	0028      	movs	r0, r5
20000a46:	010a      	lsls	r2, r1, #4
20000a48:	b2d2      	uxtb	r2, r2
20000a4a:	3030      	adds	r0, #48	; 0x30
20000a4c:	299f      	cmp	r1, #159	; 0x9f
20000a4e:	d900      	bls.n	20000a52 <usb_serial_init+0x6a>
20000a50:	e09f      	b.n	20000b92 <usb_serial_init+0x1aa>
20000a52:	2100      	movs	r1, #0
20000a54:	7118      	strb	r0, [r3, #4]
20000a56:	0910      	lsrs	r0, r2, #4
20000a58:	70a1      	strb	r1, [r4, #2]
20000a5a:	0001      	movs	r1, r0
20000a5c:	3130      	adds	r1, #48	; 0x30
20000a5e:	2a9f      	cmp	r2, #159	; 0x9f
20000a60:	d900      	bls.n	20000a64 <usb_serial_init+0x7c>
20000a62:	e094      	b.n	20000b8e <usb_serial_init+0x1a6>
20000a64:	7159      	strb	r1, [r3, #5]
20000a66:	78e1      	ldrb	r1, [r4, #3]
20000a68:	090d      	lsrs	r5, r1, #4
20000a6a:	0028      	movs	r0, r5
20000a6c:	010a      	lsls	r2, r1, #4
20000a6e:	b2d2      	uxtb	r2, r2
20000a70:	3030      	adds	r0, #48	; 0x30
20000a72:	299f      	cmp	r1, #159	; 0x9f
20000a74:	d900      	bls.n	20000a78 <usb_serial_init+0x90>
20000a76:	e07f      	b.n	20000b78 <usb_serial_init+0x190>
20000a78:	2100      	movs	r1, #0
20000a7a:	7198      	strb	r0, [r3, #6]
20000a7c:	0910      	lsrs	r0, r2, #4
20000a7e:	70e1      	strb	r1, [r4, #3]
20000a80:	0001      	movs	r1, r0
20000a82:	3130      	adds	r1, #48	; 0x30
20000a84:	2a9f      	cmp	r2, #159	; 0x9f
20000a86:	d900      	bls.n	20000a8a <usb_serial_init+0xa2>
20000a88:	e074      	b.n	20000b74 <usb_serial_init+0x18c>
20000a8a:	71d9      	strb	r1, [r3, #7]
20000a8c:	7921      	ldrb	r1, [r4, #4]
20000a8e:	090d      	lsrs	r5, r1, #4
20000a90:	0028      	movs	r0, r5
20000a92:	010a      	lsls	r2, r1, #4
20000a94:	b2d2      	uxtb	r2, r2
20000a96:	3030      	adds	r0, #48	; 0x30
20000a98:	299f      	cmp	r1, #159	; 0x9f
20000a9a:	d861      	bhi.n	20000b60 <usb_serial_init+0x178>
20000a9c:	2100      	movs	r1, #0
20000a9e:	7218      	strb	r0, [r3, #8]
20000aa0:	0910      	lsrs	r0, r2, #4
20000aa2:	7121      	strb	r1, [r4, #4]
20000aa4:	0001      	movs	r1, r0
20000aa6:	3130      	adds	r1, #48	; 0x30
20000aa8:	2a9f      	cmp	r2, #159	; 0x9f
20000aaa:	d857      	bhi.n	20000b5c <usb_serial_init+0x174>
20000aac:	7259      	strb	r1, [r3, #9]
20000aae:	7961      	ldrb	r1, [r4, #5]
20000ab0:	090d      	lsrs	r5, r1, #4
20000ab2:	0028      	movs	r0, r5
20000ab4:	010a      	lsls	r2, r1, #4
20000ab6:	b2d2      	uxtb	r2, r2
20000ab8:	3030      	adds	r0, #48	; 0x30
20000aba:	299f      	cmp	r1, #159	; 0x9f
20000abc:	d844      	bhi.n	20000b48 <usb_serial_init+0x160>
20000abe:	2100      	movs	r1, #0
20000ac0:	7298      	strb	r0, [r3, #10]
20000ac2:	0910      	lsrs	r0, r2, #4
20000ac4:	7161      	strb	r1, [r4, #5]
20000ac6:	0001      	movs	r1, r0
20000ac8:	3130      	adds	r1, #48	; 0x30
20000aca:	2a9f      	cmp	r2, #159	; 0x9f
20000acc:	d83a      	bhi.n	20000b44 <usb_serial_init+0x15c>
20000ace:	72d9      	strb	r1, [r3, #11]
20000ad0:	79a1      	ldrb	r1, [r4, #6]
20000ad2:	090d      	lsrs	r5, r1, #4
20000ad4:	0028      	movs	r0, r5
20000ad6:	010a      	lsls	r2, r1, #4
20000ad8:	b2d2      	uxtb	r2, r2
20000ada:	3030      	adds	r0, #48	; 0x30
20000adc:	299f      	cmp	r1, #159	; 0x9f
20000ade:	d827      	bhi.n	20000b30 <usb_serial_init+0x148>
20000ae0:	2100      	movs	r1, #0
20000ae2:	7318      	strb	r0, [r3, #12]
20000ae4:	0910      	lsrs	r0, r2, #4
20000ae6:	71a1      	strb	r1, [r4, #6]
20000ae8:	0001      	movs	r1, r0
20000aea:	3130      	adds	r1, #48	; 0x30
20000aec:	2a9f      	cmp	r2, #159	; 0x9f
20000aee:	d81d      	bhi.n	20000b2c <usb_serial_init+0x144>
20000af0:	7359      	strb	r1, [r3, #13]
20000af2:	79e1      	ldrb	r1, [r4, #7]
20000af4:	090d      	lsrs	r5, r1, #4
20000af6:	0028      	movs	r0, r5
20000af8:	010a      	lsls	r2, r1, #4
20000afa:	b2d2      	uxtb	r2, r2
20000afc:	3030      	adds	r0, #48	; 0x30
20000afe:	299f      	cmp	r1, #159	; 0x9f
20000b00:	d80a      	bhi.n	20000b18 <usb_serial_init+0x130>
20000b02:	2100      	movs	r1, #0
20000b04:	7398      	strb	r0, [r3, #14]
20000b06:	0910      	lsrs	r0, r2, #4
20000b08:	71e1      	strb	r1, [r4, #7]
20000b0a:	0001      	movs	r1, r0
20000b0c:	3137      	adds	r1, #55	; 0x37
20000b0e:	2a9f      	cmp	r2, #159	; 0x9f
20000b10:	d800      	bhi.n	20000b14 <usb_serial_init+0x12c>
20000b12:	3907      	subs	r1, #7
20000b14:	73d9      	strb	r1, [r3, #15]
20000b16:	bd70      	pop	{r4, r5, r6, pc}
20000b18:	2100      	movs	r1, #0
20000b1a:	3007      	adds	r0, #7
20000b1c:	7398      	strb	r0, [r3, #14]
20000b1e:	0910      	lsrs	r0, r2, #4
20000b20:	71e1      	strb	r1, [r4, #7]
20000b22:	0001      	movs	r1, r0
20000b24:	3137      	adds	r1, #55	; 0x37
20000b26:	2a9f      	cmp	r2, #159	; 0x9f
20000b28:	d8f4      	bhi.n	20000b14 <usb_serial_init+0x12c>
20000b2a:	e7f2      	b.n	20000b12 <usb_serial_init+0x12a>
20000b2c:	3107      	adds	r1, #7
20000b2e:	e7df      	b.n	20000af0 <usb_serial_init+0x108>
20000b30:	2100      	movs	r1, #0
20000b32:	3007      	adds	r0, #7
20000b34:	7318      	strb	r0, [r3, #12]
20000b36:	0910      	lsrs	r0, r2, #4
20000b38:	71a1      	strb	r1, [r4, #6]
20000b3a:	0001      	movs	r1, r0
20000b3c:	3130      	adds	r1, #48	; 0x30
20000b3e:	2a9f      	cmp	r2, #159	; 0x9f
20000b40:	d9d6      	bls.n	20000af0 <usb_serial_init+0x108>
20000b42:	e7f3      	b.n	20000b2c <usb_serial_init+0x144>
20000b44:	3107      	adds	r1, #7
20000b46:	e7c2      	b.n	20000ace <usb_serial_init+0xe6>
20000b48:	2100      	movs	r1, #0
20000b4a:	3007      	adds	r0, #7
20000b4c:	7298      	strb	r0, [r3, #10]
20000b4e:	0910      	lsrs	r0, r2, #4
20000b50:	7161      	strb	r1, [r4, #5]
20000b52:	0001      	movs	r1, r0
20000b54:	3130      	adds	r1, #48	; 0x30
20000b56:	2a9f      	cmp	r2, #159	; 0x9f
20000b58:	d9b9      	bls.n	20000ace <usb_serial_init+0xe6>
20000b5a:	e7f3      	b.n	20000b44 <usb_serial_init+0x15c>
20000b5c:	3107      	adds	r1, #7
20000b5e:	e7a5      	b.n	20000aac <usb_serial_init+0xc4>
20000b60:	2100      	movs	r1, #0
20000b62:	3007      	adds	r0, #7
20000b64:	7218      	strb	r0, [r3, #8]
20000b66:	0910      	lsrs	r0, r2, #4
20000b68:	7121      	strb	r1, [r4, #4]
20000b6a:	0001      	movs	r1, r0
20000b6c:	3130      	adds	r1, #48	; 0x30
20000b6e:	2a9f      	cmp	r2, #159	; 0x9f
20000b70:	d99c      	bls.n	20000aac <usb_serial_init+0xc4>
20000b72:	e7f3      	b.n	20000b5c <usb_serial_init+0x174>
20000b74:	3107      	adds	r1, #7
20000b76:	e788      	b.n	20000a8a <usb_serial_init+0xa2>
20000b78:	2100      	movs	r1, #0
20000b7a:	3007      	adds	r0, #7
20000b7c:	7198      	strb	r0, [r3, #6]
20000b7e:	0910      	lsrs	r0, r2, #4
20000b80:	70e1      	strb	r1, [r4, #3]
20000b82:	0001      	movs	r1, r0
20000b84:	3130      	adds	r1, #48	; 0x30
20000b86:	2a9f      	cmp	r2, #159	; 0x9f
20000b88:	d800      	bhi.n	20000b8c <usb_serial_init+0x1a4>
20000b8a:	e77e      	b.n	20000a8a <usb_serial_init+0xa2>
20000b8c:	e7f2      	b.n	20000b74 <usb_serial_init+0x18c>
20000b8e:	3107      	adds	r1, #7
20000b90:	e768      	b.n	20000a64 <usb_serial_init+0x7c>
20000b92:	2100      	movs	r1, #0
20000b94:	3007      	adds	r0, #7
20000b96:	7118      	strb	r0, [r3, #4]
20000b98:	0910      	lsrs	r0, r2, #4
20000b9a:	70a1      	strb	r1, [r4, #2]
20000b9c:	0001      	movs	r1, r0
20000b9e:	3130      	adds	r1, #48	; 0x30
20000ba0:	2a9f      	cmp	r2, #159	; 0x9f
20000ba2:	d800      	bhi.n	20000ba6 <usb_serial_init+0x1be>
20000ba4:	e75e      	b.n	20000a64 <usb_serial_init+0x7c>
20000ba6:	e7f2      	b.n	20000b8e <usb_serial_init+0x1a6>
20000ba8:	3107      	adds	r1, #7
20000baa:	e748      	b.n	20000a3e <usb_serial_init+0x56>
20000bac:	2100      	movs	r1, #0
20000bae:	3007      	adds	r0, #7
20000bb0:	7098      	strb	r0, [r3, #2]
20000bb2:	0910      	lsrs	r0, r2, #4
20000bb4:	7061      	strb	r1, [r4, #1]
20000bb6:	0001      	movs	r1, r0
20000bb8:	3130      	adds	r1, #48	; 0x30
20000bba:	2a9f      	cmp	r2, #159	; 0x9f
20000bbc:	d800      	bhi.n	20000bc0 <usb_serial_init+0x1d8>
20000bbe:	e73e      	b.n	20000a3e <usb_serial_init+0x56>
20000bc0:	e7f2      	b.n	20000ba8 <usb_serial_init+0x1c0>
20000bc2:	3107      	adds	r1, #7
20000bc4:	e728      	b.n	20000a18 <usb_serial_init+0x30>
20000bc6:	46c0      	nop			; (mov r8, r8)
20000bc8:	20010480 	.word	0x20010480
20000bcc:	2002049c 	.word	0x2002049c

20000bd0 <SWJ_Sequence>:
20000bd0:	b5f8      	push	{r3, r4, r5, r6, r7, lr}
20000bd2:	4f12      	ldr	r7, [pc, #72]	; (20000c1c <SWJ_Sequence+0x4c>)
20000bd4:	4d12      	ldr	r5, [pc, #72]	; (20000c20 <SWJ_Sequence+0x50>)
20000bd6:	687b      	ldr	r3, [r7, #4]
20000bd8:	682a      	ldr	r2, [r5, #0]
20000bda:	0004      	movs	r4, r0
20000bdc:	000e      	movs	r6, r1
20000bde:	4293      	cmp	r3, r2
20000be0:	d018      	beq.n	20000c14 <SWJ_Sequence+0x44>
20000be2:	3301      	adds	r3, #1
20000be4:	0159      	lsls	r1, r3, #5
20000be6:	1ac9      	subs	r1, r1, r3
20000be8:	0089      	lsls	r1, r1, #2
20000bea:	18c9      	adds	r1, r1, r3
20000bec:	0109      	lsls	r1, r1, #4
20000bee:	480d      	ldr	r0, [pc, #52]	; (20000c24 <SWJ_Sequence+0x54>)
20000bf0:	f002 ff48 	bl	20003a84 <__wrap___aeabi_uidiv>
20000bf4:	f7ff fbea 	bl	200003cc <probe_set_swclk_freq>
20000bf8:	687b      	ldr	r3, [r7, #4]
20000bfa:	602b      	str	r3, [r5, #0]
20000bfc:	2c00      	cmp	r4, #0
20000bfe:	d00b      	beq.n	20000c18 <SWJ_Sequence+0x48>
20000c00:	0025      	movs	r5, r4
20000c02:	2c08      	cmp	r4, #8
20000c04:	d900      	bls.n	20000c08 <SWJ_Sequence+0x38>
20000c06:	2508      	movs	r5, #8
20000c08:	7831      	ldrb	r1, [r6, #0]
20000c0a:	0028      	movs	r0, r5
20000c0c:	f7ff fbf8 	bl	20000400 <probe_write_bits>
20000c10:	1b64      	subs	r4, r4, r5
20000c12:	3601      	adds	r6, #1
20000c14:	2c00      	cmp	r4, #0
20000c16:	d1f3      	bne.n	20000c00 <SWJ_Sequence+0x30>
20000c18:	bdf8      	pop	{r3, r4, r5, r6, r7, pc}
20000c1a:	46c0      	nop			; (mov r8, r8)
20000c1c:	2000a604 	.word	0x2000a604
20000c20:	2000fce4 	.word	0x2000fce4
20000c24:	07735940 	.word	0x07735940

20000c28 <SWD_Sequence>:
20000c28:	b5f0      	push	{r4, r5, r6, r7, lr}
20000c2a:	46c6      	mov	lr, r8
20000c2c:	4b1f      	ldr	r3, [pc, #124]	; (20000cac <SWD_Sequence+0x84>)
20000c2e:	4c20      	ldr	r4, [pc, #128]	; (20000cb0 <SWD_Sequence+0x88>)
20000c30:	0015      	movs	r5, r2
20000c32:	4698      	mov	r8, r3
20000c34:	6822      	ldr	r2, [r4, #0]
20000c36:	685b      	ldr	r3, [r3, #4]
20000c38:	0007      	movs	r7, r0
20000c3a:	000e      	movs	r6, r1
20000c3c:	b500      	push	{lr}
20000c3e:	4293      	cmp	r3, r2
20000c40:	d00d      	beq.n	20000c5e <SWD_Sequence+0x36>
20000c42:	3301      	adds	r3, #1
20000c44:	0159      	lsls	r1, r3, #5
20000c46:	1ac9      	subs	r1, r1, r3
20000c48:	0089      	lsls	r1, r1, #2
20000c4a:	18c9      	adds	r1, r1, r3
20000c4c:	0109      	lsls	r1, r1, #4
20000c4e:	4819      	ldr	r0, [pc, #100]	; (20000cb4 <SWD_Sequence+0x8c>)
20000c50:	f002 ff18 	bl	20003a84 <__wrap___aeabi_uidiv>
20000c54:	f7ff fbba 	bl	200003cc <probe_set_swclk_freq>
20000c58:	4643      	mov	r3, r8
20000c5a:	685b      	ldr	r3, [r3, #4]
20000c5c:	6023      	str	r3, [r4, #0]
20000c5e:	233f      	movs	r3, #63	; 0x3f
20000c60:	001c      	movs	r4, r3
20000c62:	403c      	ands	r4, r7
20000c64:	423b      	tst	r3, r7
20000c66:	d112      	bne.n	20000c8e <SWD_Sequence+0x66>
20000c68:	2440      	movs	r4, #64	; 0x40
20000c6a:	063f      	lsls	r7, r7, #24
20000c6c:	d511      	bpl.n	20000c92 <SWD_Sequence+0x6a>
20000c6e:	002e      	movs	r6, r5
20000c70:	0025      	movs	r5, r4
20000c72:	2c08      	cmp	r4, #8
20000c74:	d900      	bls.n	20000c78 <SWD_Sequence+0x50>
20000c76:	2508      	movs	r5, #8
20000c78:	0028      	movs	r0, r5
20000c7a:	f7ff fbfb 	bl	20000474 <probe_read_bits>
20000c7e:	1b64      	subs	r4, r4, r5
20000c80:	7030      	strb	r0, [r6, #0]
20000c82:	3601      	adds	r6, #1
20000c84:	2c00      	cmp	r4, #0
20000c86:	d1f3      	bne.n	20000c70 <SWD_Sequence+0x48>
20000c88:	bc80      	pop	{r7}
20000c8a:	46b8      	mov	r8, r7
20000c8c:	bdf0      	pop	{r4, r5, r6, r7, pc}
20000c8e:	063f      	lsls	r7, r7, #24
20000c90:	d4ed      	bmi.n	20000c6e <SWD_Sequence+0x46>
20000c92:	0025      	movs	r5, r4
20000c94:	2c08      	cmp	r4, #8
20000c96:	d900      	bls.n	20000c9a <SWD_Sequence+0x72>
20000c98:	2508      	movs	r5, #8
20000c9a:	7831      	ldrb	r1, [r6, #0]
20000c9c:	0028      	movs	r0, r5
20000c9e:	f7ff fbaf 	bl	20000400 <probe_write_bits>
20000ca2:	1b64      	subs	r4, r4, r5
20000ca4:	3601      	adds	r6, #1
20000ca6:	2c00      	cmp	r4, #0
20000ca8:	d1f3      	bne.n	20000c92 <SWD_Sequence+0x6a>
20000caa:	e7ed      	b.n	20000c88 <SWD_Sequence+0x60>
20000cac:	2000a604 	.word	0x2000a604
20000cb0:	2000fce4 	.word	0x2000fce4
20000cb4:	07735940 	.word	0x07735940

20000cb8 <SWD_Transfer>:
20000cb8:	b5f8      	push	{r3, r4, r5, r6, r7, lr}
20000cba:	46de      	mov	lr, fp
20000cbc:	4657      	mov	r7, sl
20000cbe:	4645      	mov	r5, r8
20000cc0:	464e      	mov	r6, r9
20000cc2:	b5e0      	push	{r5, r6, r7, lr}
20000cc4:	4d55      	ldr	r5, [pc, #340]	; (20000e1c <SWD_Transfer+0x164>)
20000cc6:	4f56      	ldr	r7, [pc, #344]	; (20000e20 <SWD_Transfer+0x168>)
20000cc8:	686b      	ldr	r3, [r5, #4]
20000cca:	683a      	ldr	r2, [r7, #0]
20000ccc:	0004      	movs	r4, r0
20000cce:	468b      	mov	fp, r1
20000cd0:	4293      	cmp	r3, r2
20000cd2:	d00c      	beq.n	20000cee <SWD_Transfer+0x36>
20000cd4:	3301      	adds	r3, #1
20000cd6:	0159      	lsls	r1, r3, #5
20000cd8:	1ac9      	subs	r1, r1, r3
20000cda:	0089      	lsls	r1, r1, #2
20000cdc:	18c9      	adds	r1, r1, r3
20000cde:	0109      	lsls	r1, r1, #4
20000ce0:	4850      	ldr	r0, [pc, #320]	; (20000e24 <SWD_Transfer+0x16c>)
20000ce2:	f002 fecf 	bl	20003a84 <__wrap___aeabi_uidiv>
20000ce6:	f7ff fb71 	bl	200003cc <probe_set_swclk_freq>
20000cea:	686b      	ldr	r3, [r5, #4]
20000cec:	603b      	str	r3, [r7, #0]
20000cee:	2301      	movs	r3, #1
20000cf0:	001e      	movs	r6, r3
20000cf2:	08e1      	lsrs	r1, r4, #3
20000cf4:	0867      	lsrs	r7, r4, #1
20000cf6:	08a0      	lsrs	r0, r4, #2
20000cf8:	401f      	ands	r7, r3
20000cfa:	4018      	ands	r0, r3
20000cfc:	400b      	ands	r3, r1
20000cfe:	2120      	movs	r1, #32
20000d00:	183a      	adds	r2, r7, r0
20000d02:	4026      	ands	r6, r4
20000d04:	1992      	adds	r2, r2, r6
20000d06:	189a      	adds	r2, r3, r2
20000d08:	0152      	lsls	r2, r2, #5
20000d0a:	4011      	ands	r1, r2
20000d0c:	0072      	lsls	r2, r6, #1
20000d0e:	4311      	orrs	r1, r2
20000d10:	00bf      	lsls	r7, r7, #2
20000d12:	4339      	orrs	r1, r7
20000d14:	00c0      	lsls	r0, r0, #3
20000d16:	4301      	orrs	r1, r0
20000d18:	011b      	lsls	r3, r3, #4
20000d1a:	4319      	orrs	r1, r3
20000d1c:	2381      	movs	r3, #129	; 0x81
20000d1e:	2008      	movs	r0, #8
20000d20:	4319      	orrs	r1, r3
20000d22:	f7ff fb6d 	bl	20000400 <probe_write_bits>
20000d26:	7e28      	ldrb	r0, [r5, #24]
20000d28:	3003      	adds	r0, #3
20000d2a:	f7ff fba3 	bl	20000474 <probe_read_bits>
20000d2e:	23ff      	movs	r3, #255	; 0xff
20000d30:	0007      	movs	r7, r0
20000d32:	7e28      	ldrb	r0, [r5, #24]
20000d34:	401f      	ands	r7, r3
20000d36:	4698      	mov	r8, r3
20000d38:	4107      	asrs	r7, r0
20000d3a:	2f01      	cmp	r7, #1
20000d3c:	d021      	beq.n	20000d82 <SWD_Transfer+0xca>
20000d3e:	2602      	movs	r6, #2
20000d40:	1ebb      	subs	r3, r7, #2
20000d42:	43b3      	bics	r3, r6
20000d44:	d00a      	beq.n	20000d5c <SWD_Transfer+0xa4>
20000d46:	3021      	adds	r0, #33	; 0x21
20000d48:	f7ff fb94 	bl	20000474 <probe_read_bits>
20000d4c:	b2ff      	uxtb	r7, r7
20000d4e:	0038      	movs	r0, r7
20000d50:	bcf0      	pop	{r4, r5, r6, r7}
20000d52:	46bb      	mov	fp, r7
20000d54:	46b2      	mov	sl, r6
20000d56:	46a9      	mov	r9, r5
20000d58:	46a0      	mov	r8, r4
20000d5a:	bdf8      	pop	{r3, r4, r5, r6, r7, pc}
20000d5c:	7e6b      	ldrb	r3, [r5, #25]
20000d5e:	2b00      	cmp	r3, #0
20000d60:	d02d      	beq.n	20000dbe <SWD_Transfer+0x106>
20000d62:	4226      	tst	r6, r4
20000d64:	d152      	bne.n	20000e0c <SWD_Transfer+0x154>
20000d66:	f7ff fb69 	bl	2000043c <probe_hiz_clocks>
20000d6a:	7e6b      	ldrb	r3, [r5, #25]
20000d6c:	2b00      	cmp	r3, #0
20000d6e:	d0ed      	beq.n	20000d4c <SWD_Transfer+0x94>
20000d70:	2100      	movs	r1, #0
20000d72:	2020      	movs	r0, #32
20000d74:	f7ff fb44 	bl	20000400 <probe_write_bits>
20000d78:	2100      	movs	r1, #0
20000d7a:	2001      	movs	r0, #1
20000d7c:	f7ff fb40 	bl	20000400 <probe_write_bits>
20000d80:	e7e4      	b.n	20000d4c <SWD_Transfer+0x94>
20000d82:	07a3      	lsls	r3, r4, #30
20000d84:	d423      	bmi.n	20000dce <SWD_Transfer+0x116>
20000d86:	f7ff fb59 	bl	2000043c <probe_hiz_clocks>
20000d8a:	465b      	mov	r3, fp
20000d8c:	681e      	ldr	r6, [r3, #0]
20000d8e:	2020      	movs	r0, #32
20000d90:	0031      	movs	r1, r6
20000d92:	f7ff fb35 	bl	20000400 <probe_write_bits>
20000d96:	0030      	movs	r0, r6
20000d98:	f007 ffb6 	bl	20008d08 <__paritysi2>
20000d9c:	0001      	movs	r1, r0
20000d9e:	2001      	movs	r0, #1
20000da0:	f7ff fb2e 	bl	20000400 <probe_write_bits>
20000da4:	2701      	movs	r7, #1
20000da6:	0624      	lsls	r4, r4, #24
20000da8:	d502      	bpl.n	20000db0 <SWD_Transfer+0xf8>
20000daa:	4b1f      	ldr	r3, [pc, #124]	; (20000e28 <SWD_Transfer+0x170>)
20000dac:	6a9b      	ldr	r3, [r3, #40]	; 0x28
20000dae:	60ab      	str	r3, [r5, #8]
20000db0:	7b28      	ldrb	r0, [r5, #12]
20000db2:	2800      	cmp	r0, #0
20000db4:	d0cb      	beq.n	20000d4e <SWD_Transfer+0x96>
20000db6:	2100      	movs	r1, #0
20000db8:	f7ff fb22 	bl	20000400 <probe_write_bits>
20000dbc:	e7c7      	b.n	20000d4e <SWD_Transfer+0x96>
20000dbe:	f7ff fb3d 	bl	2000043c <probe_hiz_clocks>
20000dc2:	7e6b      	ldrb	r3, [r5, #25]
20000dc4:	2b00      	cmp	r3, #0
20000dc6:	d0c1      	beq.n	20000d4c <SWD_Transfer+0x94>
20000dc8:	4226      	tst	r6, r4
20000dca:	d1bf      	bne.n	20000d4c <SWD_Transfer+0x94>
20000dcc:	e7d0      	b.n	20000d70 <SWD_Transfer+0xb8>
20000dce:	2020      	movs	r0, #32
20000dd0:	f7ff fb50 	bl	20000474 <probe_read_bits>
20000dd4:	4681      	mov	r9, r0
20000dd6:	2001      	movs	r0, #1
20000dd8:	f7ff fb4c 	bl	20000474 <probe_read_bits>
20000ddc:	4682      	mov	sl, r0
20000dde:	4648      	mov	r0, r9
20000de0:	f002 fe18 	bl	20003a14 <__wrap___popcountsi2>
20000de4:	4652      	mov	r2, sl
20000de6:	4643      	mov	r3, r8
20000de8:	4013      	ands	r3, r2
20000dea:	4043      	eors	r3, r0
20000dec:	403b      	ands	r3, r7
20000dee:	1e5a      	subs	r2, r3, #1
20000df0:	4193      	sbcs	r3, r2
20000df2:	3706      	adds	r7, #6
20000df4:	425b      	negs	r3, r3
20000df6:	401f      	ands	r7, r3
20000df8:	465b      	mov	r3, fp
20000dfa:	3701      	adds	r7, #1
20000dfc:	2b00      	cmp	r3, #0
20000dfe:	d001      	beq.n	20000e04 <SWD_Transfer+0x14c>
20000e00:	464a      	mov	r2, r9
20000e02:	601a      	str	r2, [r3, #0]
20000e04:	7e28      	ldrb	r0, [r5, #24]
20000e06:	f7ff fb19 	bl	2000043c <probe_hiz_clocks>
20000e0a:	e7cc      	b.n	20000da6 <SWD_Transfer+0xee>
20000e0c:	2021      	movs	r0, #33	; 0x21
20000e0e:	f7ff fb31 	bl	20000474 <probe_read_bits>
20000e12:	7e28      	ldrb	r0, [r5, #24]
20000e14:	f7ff fb12 	bl	2000043c <probe_hiz_clocks>
20000e18:	e798      	b.n	20000d4c <SWD_Transfer+0x94>
20000e1a:	46c0      	nop			; (mov r8, r8)
20000e1c:	2000a604 	.word	0x2000a604
20000e20:	2000fce4 	.word	0x2000fce4
20000e24:	07735940 	.word	0x07735940
20000e28:	40054000 	.word	0x40054000

20000e2c <dap_edpt_init>:
20000e2c:	4770      	bx	lr
20000e2e:	46c0      	nop			; (mov r8, r8)

20000e30 <dap_edpt_reset>:
20000e30:	4770      	bx	lr
20000e32:	46c0      	nop			; (mov r8, r8)

20000e34 <dap_edpt_control_xfer_cb>:
20000e34:	2000      	movs	r0, #0
20000e36:	4770      	bx	lr

20000e38 <dap_edpt_open>:
20000e38:	b5f0      	push	{r4, r5, r6, r7, lr}
20000e3a:	4646      	mov	r6, r8
20000e3c:	46d6      	mov	lr, sl
20000e3e:	464f      	mov	r7, r9
20000e40:	b5c0      	push	{r6, r7, lr}
20000e42:	794b      	ldrb	r3, [r1, #5]
20000e44:	0006      	movs	r6, r0
20000e46:	000c      	movs	r4, r1
20000e48:	2bff      	cmp	r3, #255	; 0xff
20000e4a:	d11f      	bne.n	20000e8c <dap_edpt_open+0x54>
20000e4c:	798b      	ldrb	r3, [r1, #6]
20000e4e:	2b00      	cmp	r3, #0
20000e50:	d11c      	bne.n	20000e8c <dap_edpt_open+0x54>
20000e52:	79cb      	ldrb	r3, [r1, #7]
20000e54:	2b00      	cmp	r3, #0
20000e56:	d119      	bne.n	20000e8c <dap_edpt_open+0x54>
20000e58:	2080      	movs	r0, #128	; 0x80
20000e5a:	4681      	mov	r9, r0
20000e5c:	464f      	mov	r7, r9
20000e5e:	491e      	ldr	r1, [pc, #120]	; (20000ed8 <dap_edpt_open+0xa0>)
20000e60:	4d1e      	ldr	r5, [pc, #120]	; (20000edc <dap_edpt_open+0xa4>)
20000e62:	500b      	str	r3, [r1, r0]
20000e64:	3004      	adds	r0, #4
20000e66:	500b      	str	r3, [r1, r0]
20000e68:	46a8      	mov	r8, r5
20000e6a:	51eb      	str	r3, [r5, r7]
20000e6c:	502b      	str	r3, [r5, r0]
20000e6e:	2589      	movs	r5, #137	; 0x89
20000e70:	3004      	adds	r0, #4
20000e72:	3f7f      	subs	r7, #127	; 0x7f
20000e74:	554b      	strb	r3, [r1, r5]
20000e76:	540f      	strb	r7, [r1, r0]
20000e78:	4641      	mov	r1, r8
20000e7a:	554b      	strb	r3, [r1, r5]
20000e7c:	540f      	strb	r7, [r1, r0]
20000e7e:	7923      	ldrb	r3, [r4, #4]
20000e80:	00dd      	lsls	r5, r3, #3
20000e82:	1aed      	subs	r5, r5, r3
20000e84:	3509      	adds	r5, #9
20000e86:	b2ad      	uxth	r5, r5
20000e88:	4295      	cmp	r5, r2
20000e8a:	d906      	bls.n	20000e9a <dap_edpt_open+0x62>
20000e8c:	2500      	movs	r5, #0
20000e8e:	0028      	movs	r0, r5
20000e90:	bce0      	pop	{r5, r6, r7}
20000e92:	46ba      	mov	sl, r7
20000e94:	46b1      	mov	r9, r6
20000e96:	46a8      	mov	r8, r5
20000e98:	bdf0      	pop	{r4, r5, r6, r7, pc}
20000e9a:	7ae3      	ldrb	r3, [r4, #11]
20000e9c:	0021      	movs	r1, r4
20000e9e:	469a      	mov	sl, r3
20000ea0:	4652      	mov	r2, sl
20000ea2:	4b0f      	ldr	r3, [pc, #60]	; (20000ee0 <dap_edpt_open+0xa8>)
20000ea4:	0030      	movs	r0, r6
20000ea6:	3109      	adds	r1, #9
20000ea8:	701a      	strb	r2, [r3, #0]
20000eaa:	f004 f9f7 	bl	2000529c <usbd_edpt_open>
20000eae:	464a      	mov	r2, r9
20000eb0:	4643      	mov	r3, r8
20000eb2:	589b      	ldr	r3, [r3, r2]
20000eb4:	4651      	mov	r1, sl
20000eb6:	401f      	ands	r7, r3
20000eb8:	01ba      	lsls	r2, r7, #6
20000eba:	4442      	add	r2, r8
20000ebc:	2340      	movs	r3, #64	; 0x40
20000ebe:	0030      	movs	r0, r6
20000ec0:	f004 fa2e 	bl	20005320 <usbd_edpt_xfer>
20000ec4:	0021      	movs	r1, r4
20000ec6:	4b07      	ldr	r3, [pc, #28]	; (20000ee4 <dap_edpt_open+0xac>)
20000ec8:	7ca2      	ldrb	r2, [r4, #18]
20000eca:	0030      	movs	r0, r6
20000ecc:	3110      	adds	r1, #16
20000ece:	701a      	strb	r2, [r3, #0]
20000ed0:	f004 f9e4 	bl	2000529c <usbd_edpt_open>
20000ed4:	e7db      	b.n	20000e8e <dap_edpt_open+0x56>
20000ed6:	46c0      	nop			; (mov r8, r8)
20000ed8:	2000a6ec 	.word	0x2000a6ec
20000edc:	2000a660 	.word	0x2000a660
20000ee0:	2002058f 	.word	0x2002058f
20000ee4:	2002058e 	.word	0x2002058e

20000ee8 <dap_edpt_xfer_cb>:
20000ee8:	b5f8      	push	{r3, r4, r5, r6, r7, lr}
20000eea:	09ca      	lsrs	r2, r1, #7
20000eec:	2400      	movs	r4, #0
20000eee:	2a01      	cmp	r2, #1
20000ef0:	d014      	beq.n	20000f1c <dap_edpt_xfer_cb+0x34>
20000ef2:	2b40      	cmp	r3, #64	; 0x40
20000ef4:	d810      	bhi.n	20000f18 <dap_edpt_xfer_cb+0x30>
20000ef6:	2680      	movs	r6, #128	; 0x80
20000ef8:	2284      	movs	r2, #132	; 0x84
20000efa:	4d21      	ldr	r5, [pc, #132]	; (20000f80 <dap_edpt_xfer_cb+0x98>)
20000efc:	59ab      	ldr	r3, [r5, r6]
20000efe:	58af      	ldr	r7, [r5, r2]
20000f00:	3301      	adds	r3, #1
20000f02:	3a83      	subs	r2, #131	; 0x83
20000f04:	4013      	ands	r3, r2
20000f06:	42bb      	cmp	r3, r7
20000f08:	d119      	bne.n	20000f3e <dap_edpt_xfer_cb+0x56>
20000f0a:	2389      	movs	r3, #137	; 0x89
20000f0c:	54ea      	strb	r2, [r5, r3]
20000f0e:	4b1d      	ldr	r3, [pc, #116]	; (20000f84 <dap_edpt_xfer_cb+0x9c>)
20000f10:	2401      	movs	r4, #1
20000f12:	6818      	ldr	r0, [r3, #0]
20000f14:	f006 fee6 	bl	20007ce4 <vTaskResume>
20000f18:	0020      	movs	r0, r4
20000f1a:	bdf8      	pop	{r3, r4, r5, r6, r7, pc}
20000f1c:	2b40      	cmp	r3, #64	; 0x40
20000f1e:	d8fb      	bhi.n	20000f18 <dap_edpt_xfer_cb+0x30>
20000f20:	2584      	movs	r5, #132	; 0x84
20000f22:	2688      	movs	r6, #136	; 0x88
20000f24:	4c18      	ldr	r4, [pc, #96]	; (20000f88 <dap_edpt_xfer_cb+0xa0>)
20000f26:	5963      	ldr	r3, [r4, r5]
20000f28:	3301      	adds	r3, #1
20000f2a:	5163      	str	r3, [r4, r5]
20000f2c:	5da3      	ldrb	r3, [r4, r6]
20000f2e:	2b00      	cmp	r3, #0
20000f30:	d012      	beq.n	20000f58 <dap_edpt_xfer_cb+0x70>
20000f32:	4b14      	ldr	r3, [pc, #80]	; (20000f84 <dap_edpt_xfer_cb+0x9c>)
20000f34:	2401      	movs	r4, #1
20000f36:	6818      	ldr	r0, [r3, #0]
20000f38:	f006 fed4 	bl	20007ce4 <vTaskResume>
20000f3c:	e7ec      	b.n	20000f18 <dap_edpt_xfer_cb+0x30>
20000f3e:	59ab      	ldr	r3, [r5, r6]
20000f40:	3301      	adds	r3, #1
20000f42:	51ab      	str	r3, [r5, r6]
20000f44:	59ab      	ldr	r3, [r5, r6]
20000f46:	401a      	ands	r2, r3
20000f48:	0192      	lsls	r2, r2, #6
20000f4a:	2340      	movs	r3, #64	; 0x40
20000f4c:	1952      	adds	r2, r2, r5
20000f4e:	f004 f9e7 	bl	20005320 <usbd_edpt_xfer>
20000f52:	2389      	movs	r3, #137	; 0x89
20000f54:	54ec      	strb	r4, [r5, r3]
20000f56:	e7ec      	b.n	20000f32 <dap_edpt_xfer_cb+0x4a>
20000f58:	5967      	ldr	r7, [r4, r5]
20000f5a:	4b0c      	ldr	r3, [pc, #48]	; (20000f8c <dap_edpt_xfer_cb+0xa4>)
20000f5c:	403a      	ands	r2, r7
20000f5e:	681b      	ldr	r3, [r3, #0]
20000f60:	0192      	lsls	r2, r2, #6
20000f62:	b29b      	uxth	r3, r3
20000f64:	1912      	adds	r2, r2, r4
20000f66:	f004 f9db 	bl	20005320 <usbd_edpt_xfer>
20000f6a:	2280      	movs	r2, #128	; 0x80
20000f6c:	5963      	ldr	r3, [r4, r5]
20000f6e:	58a2      	ldr	r2, [r4, r2]
20000f70:	3301      	adds	r3, #1
20000f72:	1a9b      	subs	r3, r3, r2
20000f74:	425a      	negs	r2, r3
20000f76:	4153      	adcs	r3, r2
20000f78:	b2db      	uxtb	r3, r3
20000f7a:	55a3      	strb	r3, [r4, r6]
20000f7c:	e7d9      	b.n	20000f32 <dap_edpt_xfer_cb+0x4a>
20000f7e:	46c0      	nop			; (mov r8, r8)
20000f80:	2000a660 	.word	0x2000a660
20000f84:	2000fcf8 	.word	0x2000fcf8
20000f88:	2000a6ec 	.word	0x2000a6ec
20000f8c:	2000b9a4 	.word	0x2000b9a4

20000f90 <dap_thread>:
20000f90:	b5f0      	push	{r4, r5, r6, r7, lr}
20000f92:	464e      	mov	r6, r9
20000f94:	46de      	mov	lr, fp
20000f96:	4645      	mov	r5, r8
20000f98:	4657      	mov	r7, sl
20000f9a:	b5e0      	push	{r5, r6, r7, lr}
20000f9c:	2580      	movs	r5, #128	; 0x80
20000f9e:	4b5b      	ldr	r3, [pc, #364]	; (2000110c <dap_thread+0x17c>)
20000fa0:	b085      	sub	sp, #20
20000fa2:	9300      	str	r3, [sp, #0]
20000fa4:	4b5a      	ldr	r3, [pc, #360]	; (20001110 <dap_thread+0x180>)
20000fa6:	4c5b      	ldr	r4, [pc, #364]	; (20001114 <dap_thread+0x184>)
20000fa8:	9302      	str	r3, [sp, #8]
20000faa:	4b5b      	ldr	r3, [pc, #364]	; (20001118 <dap_thread+0x188>)
20000fac:	4e5b      	ldr	r6, [pc, #364]	; (2000111c <dap_thread+0x18c>)
20000fae:	9301      	str	r3, [sp, #4]
20000fb0:	4b5b      	ldr	r3, [pc, #364]	; (20001120 <dap_thread+0x190>)
20000fb2:	469b      	mov	fp, r3
20000fb4:	4b5b      	ldr	r3, [pc, #364]	; (20001124 <dap_thread+0x194>)
20000fb6:	4699      	mov	r9, r3
20000fb8:	4b5b      	ldr	r3, [pc, #364]	; (20001128 <dap_thread+0x198>)
20000fba:	9303      	str	r3, [sp, #12]
20000fbc:	2384      	movs	r3, #132	; 0x84
20000fbe:	58e2      	ldr	r2, [r4, r3]
20000fc0:	5963      	ldr	r3, [r4, r5]
20000fc2:	429a      	cmp	r2, r3
20000fc4:	d05c      	beq.n	20001080 <dap_thread+0xf0>
20000fc6:	2384      	movs	r3, #132	; 0x84
20000fc8:	469a      	mov	sl, r3
20000fca:	4653      	mov	r3, sl
20000fcc:	58e7      	ldr	r7, [r4, r3]
20000fce:	2301      	movs	r3, #1
20000fd0:	403b      	ands	r3, r7
20000fd2:	019b      	lsls	r3, r3, #6
20000fd4:	5ce1      	ldrb	r1, [r4, r3]
20000fd6:	297e      	cmp	r1, #126	; 0x7e
20000fd8:	d113      	bne.n	20001002 <dap_thread+0x72>
20000fda:	227f      	movs	r2, #127	; 0x7f
20000fdc:	4690      	mov	r8, r2
20000fde:	4642      	mov	r2, r8
20000fe0:	54e2      	strb	r2, [r4, r3]
20000fe2:	5963      	ldr	r3, [r4, r5]
20000fe4:	3701      	adds	r7, #1
20000fe6:	429f      	cmp	r7, r3
20000fe8:	d105      	bne.n	20000ff6 <dap_thread+0x66>
20000fea:	6830      	ldr	r0, [r6, #0]
20000fec:	f006 fe14 	bl	20007c18 <vTaskSuspend>
20000ff0:	5963      	ldr	r3, [r4, r5]
20000ff2:	42bb      	cmp	r3, r7
20000ff4:	d0f9      	beq.n	20000fea <dap_thread+0x5a>
20000ff6:	2301      	movs	r3, #1
20000ff8:	403b      	ands	r3, r7
20000ffa:	019b      	lsls	r3, r3, #6
20000ffc:	5ce2      	ldrb	r2, [r4, r3]
20000ffe:	2a7e      	cmp	r2, #126	; 0x7e
20001000:	d0ed      	beq.n	20000fde <dap_thread+0x4e>
20001002:	4653      	mov	r3, sl
20001004:	2701      	movs	r7, #1
20001006:	58e1      	ldr	r1, [r4, r3]
20001008:	2240      	movs	r2, #64	; 0x40
2000100a:	4039      	ands	r1, r7
2000100c:	0189      	lsls	r1, r1, #6
2000100e:	9800      	ldr	r0, [sp, #0]
20001010:	1861      	adds	r1, r4, r1
20001012:	f003 f841 	bl	20004098 <__wrap___aeabi_memcpy>
20001016:	4653      	mov	r3, sl
20001018:	4652      	mov	r2, sl
2000101a:	58e3      	ldr	r3, [r4, r3]
2000101c:	3301      	adds	r3, #1
2000101e:	50a3      	str	r3, [r4, r2]
20001020:	2389      	movs	r3, #137	; 0x89
20001022:	4698      	mov	r8, r3
20001024:	5ce3      	ldrb	r3, [r4, r3]
20001026:	2b00      	cmp	r3, #0
20001028:	d15a      	bne.n	200010e0 <dap_thread+0x150>
2000102a:	9901      	ldr	r1, [sp, #4]
2000102c:	9800      	ldr	r0, [sp, #0]
2000102e:	f000 fe6f 	bl	20001d10 <DAP_ExecuteCommand>
20001032:	465b      	mov	r3, fp
20001034:	6018      	str	r0, [r3, #0]
20001036:	f006 ff8b 	bl	20007f50 <vTaskSuspendAll>
2000103a:	464b      	mov	r3, r9
2000103c:	4651      	mov	r1, sl
2000103e:	595a      	ldr	r2, [r3, r5]
20001040:	585b      	ldr	r3, [r3, r1]
20001042:	429a      	cmp	r2, r3
20001044:	d020      	beq.n	20001088 <dap_thread+0xf8>
20001046:	464b      	mov	r3, r9
20001048:	465a      	mov	r2, fp
2000104a:	2001      	movs	r0, #1
2000104c:	595b      	ldr	r3, [r3, r5]
2000104e:	6812      	ldr	r2, [r2, #0]
20001050:	4018      	ands	r0, r3
20001052:	0180      	lsls	r0, r0, #6
20001054:	0412      	lsls	r2, r2, #16
20001056:	9901      	ldr	r1, [sp, #4]
20001058:	0c12      	lsrs	r2, r2, #16
2000105a:	4448      	add	r0, r9
2000105c:	f003 f81c 	bl	20004098 <__wrap___aeabi_memcpy>
20001060:	464b      	mov	r3, r9
20001062:	464a      	mov	r2, r9
20001064:	595b      	ldr	r3, [r3, r5]
20001066:	4649      	mov	r1, r9
20001068:	3301      	adds	r3, #1
2000106a:	5153      	str	r3, [r2, r5]
2000106c:	2388      	movs	r3, #136	; 0x88
2000106e:	2200      	movs	r2, #0
20001070:	54ca      	strb	r2, [r1, r3]
20001072:	f007 f861 	bl	20008138 <xTaskResumeAll>
20001076:	4653      	mov	r3, sl
20001078:	58e2      	ldr	r2, [r4, r3]
2000107a:	5963      	ldr	r3, [r4, r5]
2000107c:	429a      	cmp	r2, r3
2000107e:	d1a4      	bne.n	20000fca <dap_thread+0x3a>
20001080:	6830      	ldr	r0, [r6, #0]
20001082:	f006 fdc9 	bl	20007c18 <vTaskSuspend>
20001086:	e799      	b.n	20000fbc <dap_thread+0x2c>
20001088:	464b      	mov	r3, r9
2000108a:	5958      	ldr	r0, [r3, r5]
2000108c:	465b      	mov	r3, fp
2000108e:	2701      	movs	r7, #1
20001090:	681a      	ldr	r2, [r3, #0]
20001092:	4038      	ands	r0, r7
20001094:	0180      	lsls	r0, r0, #6
20001096:	0412      	lsls	r2, r2, #16
20001098:	9901      	ldr	r1, [sp, #4]
2000109a:	0c12      	lsrs	r2, r2, #16
2000109c:	4448      	add	r0, r9
2000109e:	f002 fffb 	bl	20004098 <__wrap___aeabi_memcpy>
200010a2:	464b      	mov	r3, r9
200010a4:	464a      	mov	r2, r9
200010a6:	595b      	ldr	r3, [r3, r5]
200010a8:	9903      	ldr	r1, [sp, #12]
200010aa:	3301      	adds	r3, #1
200010ac:	5153      	str	r3, [r2, r5]
200010ae:	464b      	mov	r3, r9
200010b0:	4652      	mov	r2, sl
200010b2:	589a      	ldr	r2, [r3, r2]
200010b4:	465b      	mov	r3, fp
200010b6:	403a      	ands	r2, r7
200010b8:	681b      	ldr	r3, [r3, #0]
200010ba:	0192      	lsls	r2, r2, #6
200010bc:	b29b      	uxth	r3, r3
200010be:	444a      	add	r2, r9
200010c0:	7809      	ldrb	r1, [r1, #0]
200010c2:	2000      	movs	r0, #0
200010c4:	f004 f92c 	bl	20005320 <usbd_edpt_xfer>
200010c8:	f007 f836 	bl	20008138 <xTaskResumeAll>
200010cc:	4653      	mov	r3, sl
200010ce:	58e3      	ldr	r3, [r4, r3]
200010d0:	5962      	ldr	r2, [r4, r5]
200010d2:	429a      	cmp	r2, r3
200010d4:	d000      	beq.n	200010d8 <dap_thread+0x148>
200010d6:	e778      	b.n	20000fca <dap_thread+0x3a>
200010d8:	6830      	ldr	r0, [r6, #0]
200010da:	f006 fd9d 	bl	20007c18 <vTaskSuspend>
200010de:	e76d      	b.n	20000fbc <dap_thread+0x2c>
200010e0:	f006 ff36 	bl	20007f50 <vTaskSuspendAll>
200010e4:	5963      	ldr	r3, [r4, r5]
200010e6:	2000      	movs	r0, #0
200010e8:	3301      	adds	r3, #1
200010ea:	5163      	str	r3, [r4, r5]
200010ec:	5963      	ldr	r3, [r4, r5]
200010ee:	401f      	ands	r7, r3
200010f0:	9b02      	ldr	r3, [sp, #8]
200010f2:	01ba      	lsls	r2, r7, #6
200010f4:	7819      	ldrb	r1, [r3, #0]
200010f6:	18a2      	adds	r2, r4, r2
200010f8:	2340      	movs	r3, #64	; 0x40
200010fa:	f004 f911 	bl	20005320 <usbd_edpt_xfer>
200010fe:	2300      	movs	r3, #0
20001100:	4642      	mov	r2, r8
20001102:	54a3      	strb	r3, [r4, r2]
20001104:	f007 f818 	bl	20008138 <xTaskResumeAll>
20001108:	e78f      	b.n	2000102a <dap_thread+0x9a>
2000110a:	46c0      	nop			; (mov r8, r8)
2000110c:	2000a584 	.word	0x2000a584
20001110:	2002058f 	.word	0x2002058f
20001114:	2000a660 	.word	0x2000a660
20001118:	2000a5c4 	.word	0x2000a5c4
2000111c:	2000fcf8 	.word	0x2000fcf8
20001120:	2000b9a4 	.word	0x2000b9a4
20001124:	2000a6ec 	.word	0x2000a6ec
20001128:	2002058e 	.word	0x2002058e

2000112c <usbd_app_driver_get_cb>:
2000112c:	2301      	movs	r3, #1
2000112e:	7003      	strb	r3, [r0, #0]
20001130:	4800      	ldr	r0, [pc, #0]	; (20001134 <usbd_app_driver_get_cb+0x8>)
20001132:	4770      	bx	lr
20001134:	20009cf8 	.word	0x20009cf8

20001138 <DAP_ProcessCommand>:
20001138:	b5f0      	push	{r4, r5, r6, r7, lr}
2000113a:	464e      	mov	r6, r9
2000113c:	46de      	mov	lr, fp
2000113e:	4657      	mov	r7, sl
20001140:	4645      	mov	r5, r8
20001142:	b5e0      	push	{r5, r6, r7, lr}
20001144:	7803      	ldrb	r3, [r0, #0]
20001146:	0004      	movs	r4, r0
20001148:	001a      	movs	r2, r3
2000114a:	3a80      	subs	r2, #128	; 0x80
2000114c:	b2d2      	uxtb	r2, r2
2000114e:	000e      	movs	r6, r1
20001150:	b08d      	sub	sp, #52	; 0x34
20001152:	2a1f      	cmp	r2, #31
20001154:	d908      	bls.n	20001168 <DAP_ProcessCommand+0x30>
20001156:	1c4a      	adds	r2, r1, #1
20001158:	4692      	mov	sl, r2
2000115a:	700b      	strb	r3, [r1, #0]
2000115c:	2b1d      	cmp	r3, #29
2000115e:	d80e      	bhi.n	2000117e <DAP_ProcessCommand+0x46>
20001160:	49cb      	ldr	r1, [pc, #812]	; (20001490 <DAP_ProcessCommand+0x358>)
20001162:	009a      	lsls	r2, r3, #2
20001164:	588a      	ldr	r2, [r1, r2]
20001166:	4697      	mov	pc, r2
20001168:	f000 fe12 	bl	20001d90 <DAP_ProcessVendorCommand>
2000116c:	0004      	movs	r4, r0
2000116e:	0020      	movs	r0, r4
20001170:	b00d      	add	sp, #52	; 0x34
20001172:	bcf0      	pop	{r4, r5, r6, r7}
20001174:	46bb      	mov	fp, r7
20001176:	46b2      	mov	sl, r6
20001178:	46a9      	mov	r9, r5
2000117a:	46a0      	mov	r8, r4
2000117c:	bdf0      	pop	{r4, r5, r6, r7, pc}
2000117e:	23ff      	movs	r3, #255	; 0xff
20001180:	4cc4      	ldr	r4, [pc, #784]	; (20001494 <DAP_ProcessCommand+0x35c>)
20001182:	7033      	strb	r3, [r6, #0]
20001184:	e7f3      	b.n	2000116e <DAP_ProcessCommand+0x36>
20001186:	1cb3      	adds	r3, r6, #2
20001188:	4699      	mov	r9, r3
2000118a:	2300      	movs	r3, #0
2000118c:	7073      	strb	r3, [r6, #1]
2000118e:	7842      	ldrb	r2, [r0, #1]
20001190:	1c83      	adds	r3, r0, #2
20001192:	1e56      	subs	r6, r2, #1
20001194:	2a00      	cmp	r2, #0
20001196:	d100      	bne.n	2000119a <DAP_ProcessCommand+0x62>
20001198:	e09b      	b.n	200012d2 <DAP_ProcessCommand+0x19a>
2000119a:	2201      	movs	r2, #1
2000119c:	4692      	mov	sl, r2
2000119e:	323e      	adds	r2, #62	; 0x3e
200011a0:	2401      	movs	r4, #1
200011a2:	4693      	mov	fp, r2
200011a4:	e012      	b.n	200011cc <DAP_ProcessCommand+0x94>
200011a6:	f7ff f9a1 	bl	200004ec <probe_write_mode>
200011aa:	464a      	mov	r2, r9
200011ac:	4641      	mov	r1, r8
200011ae:	0028      	movs	r0, r5
200011b0:	f7ff fd3a 	bl	20000c28 <SWD_Sequence>
200011b4:	2e00      	cmp	r6, #0
200011b6:	d100      	bne.n	200011ba <DAP_ProcessCommand+0x82>
200011b8:	e18e      	b.n	200014d8 <DAP_ProcessCommand+0x3a0>
200011ba:	4643      	mov	r3, r8
200011bc:	3401      	adds	r4, #1
200011be:	19db      	adds	r3, r3, r7
200011c0:	19e4      	adds	r4, r4, r7
200011c2:	1e72      	subs	r2, r6, #1
200011c4:	2e00      	cmp	r6, #0
200011c6:	d100      	bne.n	200011ca <DAP_ProcessCommand+0x92>
200011c8:	e196      	b.n	200014f8 <DAP_ProcessCommand+0x3c0>
200011ca:	0016      	movs	r6, r2
200011cc:	1c5a      	adds	r2, r3, #1
200011ce:	781d      	ldrb	r5, [r3, #0]
200011d0:	4690      	mov	r8, r2
200011d2:	465b      	mov	r3, fp
200011d4:	465a      	mov	r2, fp
200011d6:	2708      	movs	r7, #8
200011d8:	402b      	ands	r3, r5
200011da:	422a      	tst	r2, r5
200011dc:	d001      	beq.n	200011e2 <DAP_ProcessCommand+0xaa>
200011de:	3307      	adds	r3, #7
200011e0:	08df      	lsrs	r7, r3, #3
200011e2:	b26b      	sxtb	r3, r5
200011e4:	2b00      	cmp	r3, #0
200011e6:	dade      	bge.n	200011a6 <DAP_ProcessCommand+0x6e>
200011e8:	f7ff f966 	bl	200004b8 <probe_read_mode>
200011ec:	464a      	mov	r2, r9
200011ee:	4641      	mov	r1, r8
200011f0:	0028      	movs	r0, r5
200011f2:	f7ff fd19 	bl	20000c28 <SWD_Sequence>
200011f6:	2e00      	cmp	r6, #0
200011f8:	d100      	bne.n	200011fc <DAP_ProcessCommand+0xc4>
200011fa:	e184      	b.n	20001506 <DAP_ProcessCommand+0x3ce>
200011fc:	4643      	mov	r3, r8
200011fe:	3401      	adds	r4, #1
20001200:	44b9      	add	r9, r7
20001202:	44ba      	add	sl, r7
20001204:	e7dd      	b.n	200011c2 <DAP_ProcessCommand+0x8a>
20001206:	23ff      	movs	r3, #255	; 0xff
20001208:	7844      	ldrb	r4, [r0, #1]
2000120a:	7073      	strb	r3, [r6, #1]
2000120c:	3401      	adds	r4, #1
2000120e:	3bfe      	subs	r3, #254	; 0xfe
20001210:	0424      	lsls	r4, r4, #16
20001212:	431c      	orrs	r4, r3
20001214:	4b9f      	ldr	r3, [pc, #636]	; (20001494 <DAP_ProcessCommand+0x35c>)
20001216:	469c      	mov	ip, r3
20001218:	4464      	add	r4, ip
2000121a:	e7a8      	b.n	2000116e <DAP_ProcessCommand+0x36>
2000121c:	4b9e      	ldr	r3, [pc, #632]	; (20001498 <DAP_ProcessCommand+0x360>)
2000121e:	781b      	ldrb	r3, [r3, #0]
20001220:	2b01      	cmp	r3, #1
20001222:	d101      	bne.n	20001228 <DAP_ProcessCommand+0xf0>
20001224:	f000 fc15 	bl	20001a52 <DAP_ProcessCommand+0x91a>
20001228:	23ff      	movs	r3, #255	; 0xff
2000122a:	4c9c      	ldr	r4, [pc, #624]	; (2000149c <DAP_ProcessCommand+0x364>)
2000122c:	7073      	strb	r3, [r6, #1]
2000122e:	e79e      	b.n	2000116e <DAP_ProcessCommand+0x36>
20001230:	4f99      	ldr	r7, [pc, #612]	; (20001498 <DAP_ProcessCommand+0x360>)
20001232:	783b      	ldrb	r3, [r7, #0]
20001234:	2b01      	cmp	r3, #1
20001236:	d100      	bne.n	2000123a <DAP_ProcessCommand+0x102>
20001238:	e3a6      	b.n	20001988 <DAP_ProcessCommand+0x850>
2000123a:	2300      	movs	r3, #0
2000123c:	2203      	movs	r2, #3
2000123e:	7073      	strb	r3, [r6, #1]
20001240:	70b3      	strb	r3, [r6, #2]
20001242:	70f3      	strb	r3, [r6, #3]
20001244:	7923      	ldrb	r3, [r4, #4]
20001246:	079b      	lsls	r3, r3, #30
20001248:	d400      	bmi.n	2000124c <DAP_ProcessCommand+0x114>
2000124a:	e171      	b.n	20001530 <DAP_ProcessCommand+0x3f8>
2000124c:	2480      	movs	r4, #128	; 0x80
2000124e:	4b91      	ldr	r3, [pc, #580]	; (20001494 <DAP_ProcessCommand+0x35c>)
20001250:	02e4      	lsls	r4, r4, #11
20001252:	469c      	mov	ip, r3
20001254:	4314      	orrs	r4, r2
20001256:	4464      	add	r4, ip
20001258:	e789      	b.n	2000116e <DAP_ProcessCommand+0x36>
2000125a:	4f8f      	ldr	r7, [pc, #572]	; (20001498 <DAP_ProcessCommand+0x360>)
2000125c:	1c43      	adds	r3, r0, #1
2000125e:	9309      	str	r3, [sp, #36]	; 0x24
20001260:	783b      	ldrb	r3, [r7, #0]
20001262:	9308      	str	r3, [sp, #32]
20001264:	2b01      	cmp	r3, #1
20001266:	d100      	bne.n	2000126a <DAP_ProcessCommand+0x132>
20001268:	e171      	b.n	2000154e <DAP_ProcessCommand+0x416>
2000126a:	7882      	ldrb	r2, [r0, #2]
2000126c:	1cc3      	adds	r3, r0, #3
2000126e:	2a00      	cmp	r2, #0
20001270:	d101      	bne.n	20001276 <DAP_ProcessCommand+0x13e>
20001272:	f000 fcd7 	bl	20001c24 <DAP_ProcessCommand+0xaec>
20001276:	2002      	movs	r0, #2
20001278:	2410      	movs	r4, #16
2000127a:	e006      	b.n	2000128a <DAP_ProcessCommand+0x152>
2000127c:	420c      	tst	r4, r1
2000127e:	d107      	bne.n	20001290 <DAP_ProcessCommand+0x158>
20001280:	3301      	adds	r3, #1
20001282:	3a01      	subs	r2, #1
20001284:	2a00      	cmp	r2, #0
20001286:	d100      	bne.n	2000128a <DAP_ProcessCommand+0x152>
20001288:	e140      	b.n	2000150c <DAP_ProcessCommand+0x3d4>
2000128a:	7819      	ldrb	r1, [r3, #0]
2000128c:	4208      	tst	r0, r1
2000128e:	d1f5      	bne.n	2000127c <DAP_ProcessCommand+0x144>
20001290:	3305      	adds	r3, #5
20001292:	e7f6      	b.n	20001282 <DAP_ProcessCommand+0x14a>
20001294:	7843      	ldrb	r3, [r0, #1]
20001296:	4a80      	ldr	r2, [pc, #512]	; (20001498 <DAP_ProcessCommand+0x360>)
20001298:	4c80      	ldr	r4, [pc, #512]	; (2000149c <DAP_ProcessCommand+0x364>)
2000129a:	7313      	strb	r3, [r2, #12]
2000129c:	78c3      	ldrb	r3, [r0, #3]
2000129e:	7881      	ldrb	r1, [r0, #2]
200012a0:	021b      	lsls	r3, r3, #8
200012a2:	430b      	orrs	r3, r1
200012a4:	8213      	strh	r3, [r2, #16]
200012a6:	7943      	ldrb	r3, [r0, #5]
200012a8:	7901      	ldrb	r1, [r0, #4]
200012aa:	021b      	lsls	r3, r3, #8
200012ac:	430b      	orrs	r3, r1
200012ae:	8253      	strh	r3, [r2, #18]
200012b0:	2300      	movs	r3, #0
200012b2:	7073      	strb	r3, [r6, #1]
200012b4:	e75b      	b.n	2000116e <DAP_ProcessCommand+0x36>
200012b6:	2400      	movs	r4, #0
200012b8:	4b77      	ldr	r3, [pc, #476]	; (20001498 <DAP_ProcessCommand+0x360>)
200012ba:	701c      	strb	r4, [r3, #0]
200012bc:	f7ff f996 	bl	200005ec <probe_deinit>
200012c0:	7074      	strb	r4, [r6, #1]
200012c2:	4c77      	ldr	r4, [pc, #476]	; (200014a0 <DAP_ProcessCommand+0x368>)
200012c4:	e753      	b.n	2000116e <DAP_ProcessCommand+0x36>
200012c6:	7843      	ldrb	r3, [r0, #1]
200012c8:	2400      	movs	r4, #0
200012ca:	2b01      	cmp	r3, #1
200012cc:	d800      	bhi.n	200012d0 <DAP_ProcessCommand+0x198>
200012ce:	e0c9      	b.n	20001464 <DAP_ProcessCommand+0x32c>
200012d0:	7074      	strb	r4, [r6, #1]
200012d2:	4c74      	ldr	r4, [pc, #464]	; (200014a4 <DAP_ProcessCommand+0x36c>)
200012d4:	e74b      	b.n	2000116e <DAP_ProcessCommand+0x36>
200012d6:	7843      	ldrb	r3, [r0, #1]
200012d8:	2b00      	cmp	r3, #0
200012da:	d100      	bne.n	200012de <DAP_ProcessCommand+0x1a6>
200012dc:	e2dc      	b.n	20001898 <DAP_ProcessCommand+0x760>
200012de:	2b01      	cmp	r3, #1
200012e0:	d000      	beq.n	200012e4 <DAP_ProcessCommand+0x1ac>
200012e2:	e123      	b.n	2000152c <DAP_ProcessCommand+0x3f4>
200012e4:	7882      	ldrb	r2, [r0, #2]
200012e6:	4213      	tst	r3, r2
200012e8:	d100      	bne.n	200012ec <DAP_ProcessCommand+0x1b4>
200012ea:	e3c6      	b.n	20001a7a <DAP_ProcessCommand+0x942>
200012ec:	23d0      	movs	r3, #208	; 0xd0
200012ee:	2280      	movs	r2, #128	; 0x80
200012f0:	061b      	lsls	r3, r3, #24
200012f2:	0252      	lsls	r2, r2, #9
200012f4:	615a      	str	r2, [r3, #20]
200012f6:	2300      	movs	r3, #0
200012f8:	e0ae      	b.n	20001458 <DAP_ProcessCommand+0x320>
200012fa:	7842      	ldrb	r2, [r0, #1]
200012fc:	2af1      	cmp	r2, #241	; 0xf1
200012fe:	d100      	bne.n	20001302 <DAP_ProcessCommand+0x1ca>
20001300:	e3d3      	b.n	20001aaa <DAP_ProcessCommand+0x972>
20001302:	d900      	bls.n	20001306 <DAP_ProcessCommand+0x1ce>
20001304:	e0eb      	b.n	200014de <DAP_ProcessCommand+0x3a6>
20001306:	2a04      	cmp	r2, #4
20001308:	d100      	bne.n	2000130c <DAP_ProcessCommand+0x1d4>
2000130a:	e3c4      	b.n	20001a96 <DAP_ProcessCommand+0x95e>
2000130c:	2131      	movs	r1, #49	; 0x31
2000130e:	2af0      	cmp	r2, #240	; 0xf0
20001310:	d001      	beq.n	20001316 <DAP_ProcessCommand+0x1de>
20001312:	f000 fcce 	bl	20001cb2 <DAP_ProcessCommand+0xb7a>
20001316:	2301      	movs	r3, #1
20001318:	4c63      	ldr	r4, [pc, #396]	; (200014a8 <DAP_ProcessCommand+0x370>)
2000131a:	70b1      	strb	r1, [r6, #2]
2000131c:	7073      	strb	r3, [r6, #1]
2000131e:	e726      	b.n	2000116e <DAP_ProcessCommand+0x36>
20001320:	7882      	ldrb	r2, [r0, #2]
20001322:	7843      	ldrb	r3, [r0, #1]
20001324:	0212      	lsls	r2, r2, #8
20001326:	431a      	orrs	r2, r3
20001328:	78c3      	ldrb	r3, [r0, #3]
2000132a:	7901      	ldrb	r1, [r0, #4]
2000132c:	041b      	lsls	r3, r3, #16
2000132e:	4313      	orrs	r3, r2
20001330:	0609      	lsls	r1, r1, #24
20001332:	4319      	orrs	r1, r3
20001334:	d100      	bne.n	20001338 <DAP_ProcessCommand+0x200>
20001336:	e108      	b.n	2000154a <DAP_ProcessCommand+0x412>
20001338:	4b5c      	ldr	r3, [pc, #368]	; (200014ac <DAP_ProcessCommand+0x374>)
2000133a:	4299      	cmp	r1, r3
2000133c:	d900      	bls.n	20001340 <DAP_ProcessCommand+0x208>
2000133e:	e2a8      	b.n	20001892 <DAP_ProcessCommand+0x75a>
20001340:	18c8      	adds	r0, r1, r3
20001342:	f002 fb9f 	bl	20003a84 <__wrap___aeabi_uidiv>
20001346:	1e43      	subs	r3, r0, #1
20001348:	1e5a      	subs	r2, r3, #1
2000134a:	4193      	sbcs	r3, r2
2000134c:	2200      	movs	r2, #0
2000134e:	1ac0      	subs	r0, r0, r3
20001350:	4b51      	ldr	r3, [pc, #324]	; (20001498 <DAP_ProcessCommand+0x360>)
20001352:	705a      	strb	r2, [r3, #1]
20001354:	6058      	str	r0, [r3, #4]
20001356:	2300      	movs	r3, #0
20001358:	4c55      	ldr	r4, [pc, #340]	; (200014b0 <DAP_ProcessCommand+0x378>)
2000135a:	7073      	strb	r3, [r6, #1]
2000135c:	e707      	b.n	2000116e <DAP_ProcessCommand+0x36>
2000135e:	2203      	movs	r2, #3
20001360:	2400      	movs	r4, #0
20001362:	7843      	ldrb	r3, [r0, #1]
20001364:	494c      	ldr	r1, [pc, #304]	; (20001498 <DAP_ProcessCommand+0x360>)
20001366:	401a      	ands	r2, r3
20001368:	075b      	lsls	r3, r3, #29
2000136a:	3201      	adds	r2, #1
2000136c:	0fdb      	lsrs	r3, r3, #31
2000136e:	760a      	strb	r2, [r1, #24]
20001370:	764b      	strb	r3, [r1, #25]
20001372:	7074      	strb	r4, [r6, #1]
20001374:	e7ad      	b.n	200012d2 <DAP_ProcessCommand+0x19a>
20001376:	1c81      	adds	r1, r0, #2
20001378:	7840      	ldrb	r0, [r0, #1]
2000137a:	2800      	cmp	r0, #0
2000137c:	d100      	bne.n	20001380 <DAP_ProcessCommand+0x248>
2000137e:	e0d1      	b.n	20001524 <DAP_ProcessCommand+0x3ec>
20001380:	2301      	movs	r3, #1
20001382:	1dc4      	adds	r4, r0, #7
20001384:	08e4      	lsrs	r4, r4, #3
20001386:	3401      	adds	r4, #1
20001388:	0424      	lsls	r4, r4, #16
2000138a:	431c      	orrs	r4, r3
2000138c:	4b41      	ldr	r3, [pc, #260]	; (20001494 <DAP_ProcessCommand+0x35c>)
2000138e:	469c      	mov	ip, r3
20001390:	4464      	add	r4, ip
20001392:	f7ff fc1d 	bl	20000bd0 <SWJ_Sequence>
20001396:	2300      	movs	r3, #0
20001398:	7073      	strb	r3, [r6, #1]
2000139a:	e6e8      	b.n	2000116e <DAP_ProcessCommand+0x36>
2000139c:	23ff      	movs	r3, #255	; 0xff
2000139e:	7073      	strb	r3, [r6, #1]
200013a0:	7843      	ldrb	r3, [r0, #1]
200013a2:	1c81      	adds	r1, r0, #2
200013a4:	1e58      	subs	r0, r3, #1
200013a6:	2b00      	cmp	r3, #0
200013a8:	d093      	beq.n	200012d2 <DAP_ProcessCommand+0x19a>
200013aa:	2301      	movs	r3, #1
200013ac:	253f      	movs	r5, #63	; 0x3f
200013ae:	002a      	movs	r2, r5
200013b0:	780c      	ldrb	r4, [r1, #0]
200013b2:	4022      	ands	r2, r4
200013b4:	4225      	tst	r5, r4
200013b6:	d100      	bne.n	200013ba <DAP_ProcessCommand+0x282>
200013b8:	e088      	b.n	200014cc <DAP_ProcessCommand+0x394>
200013ba:	3207      	adds	r2, #7
200013bc:	08d2      	lsrs	r2, r2, #3
200013be:	3201      	adds	r2, #1
200013c0:	1889      	adds	r1, r1, r2
200013c2:	189b      	adds	r3, r3, r2
200013c4:	3801      	subs	r0, #1
200013c6:	d2f2      	bcs.n	200013ae <DAP_ProcessCommand+0x276>
200013c8:	2201      	movs	r2, #1
200013ca:	041b      	lsls	r3, r3, #16
200013cc:	4313      	orrs	r3, r2
200013ce:	4a31      	ldr	r2, [pc, #196]	; (20001494 <DAP_ProcessCommand+0x35c>)
200013d0:	189c      	adds	r4, r3, r2
200013d2:	e6cc      	b.n	2000116e <DAP_ProcessCommand+0x36>
200013d4:	2300      	movs	r3, #0
200013d6:	4c37      	ldr	r4, [pc, #220]	; (200014b4 <DAP_ProcessCommand+0x37c>)
200013d8:	70b3      	strb	r3, [r6, #2]
200013da:	7073      	strb	r3, [r6, #1]
200013dc:	e6c7      	b.n	2000116e <DAP_ProcessCommand+0x36>
200013de:	7923      	ldrb	r3, [r4, #4]
200013e0:	78e2      	ldrb	r2, [r4, #3]
200013e2:	021b      	lsls	r3, r3, #8
200013e4:	4313      	orrs	r3, r2
200013e6:	7962      	ldrb	r2, [r4, #5]
200013e8:	7841      	ldrb	r1, [r0, #1]
200013ea:	0412      	lsls	r2, r2, #16
200013ec:	431a      	orrs	r2, r3
200013ee:	79a3      	ldrb	r3, [r4, #6]
200013f0:	7880      	ldrb	r0, [r0, #2]
200013f2:	061b      	lsls	r3, r3, #24
200013f4:	4313      	orrs	r3, r2
200013f6:	d020      	beq.n	2000143a <DAP_ProcessCommand+0x302>
200013f8:	4a2f      	ldr	r2, [pc, #188]	; (200014b8 <DAP_ProcessCommand+0x380>)
200013fa:	4293      	cmp	r3, r2
200013fc:	d900      	bls.n	20001400 <DAP_ProcessCommand+0x2c8>
200013fe:	0013      	movs	r3, r2
20001400:	4a2e      	ldr	r2, [pc, #184]	; (200014bc <DAP_ProcessCommand+0x384>)
20001402:	6a94      	ldr	r4, [r2, #40]	; 0x28
20001404:	07c5      	lsls	r5, r0, #31
20001406:	d500      	bpl.n	2000140a <DAP_ProcessCommand+0x2d2>
20001408:	e288      	b.n	2000191c <DAP_ProcessCommand+0x7e4>
2000140a:	0785      	lsls	r5, r0, #30
2000140c:	d500      	bpl.n	20001410 <DAP_ProcessCommand+0x2d8>
2000140e:	e359      	b.n	20001ac4 <DAP_ProcessCommand+0x98c>
20001410:	2504      	movs	r5, #4
20001412:	2720      	movs	r7, #32
20001414:	4005      	ands	r5, r0
20001416:	4007      	ands	r7, r0
20001418:	b240      	sxtb	r0, r0
2000141a:	2800      	cmp	r0, #0
2000141c:	db01      	blt.n	20001422 <DAP_ProcessCommand+0x2ea>
2000141e:	f000 fc5b 	bl	20001cd8 <DAP_ProcessCommand+0xba0>
20001422:	2f00      	cmp	r7, #0
20001424:	d128      	bne.n	20001478 <DAP_ProcessCommand+0x340>
20001426:	2d00      	cmp	r5, #0
20001428:	d001      	beq.n	2000142e <DAP_ProcessCommand+0x2f6>
2000142a:	f000 fc1a 	bl	20001c62 <DAP_ProcessCommand+0xb2a>
2000142e:	09c8      	lsrs	r0, r1, #7
20001430:	d003      	beq.n	2000143a <DAP_ProcessCommand+0x302>
20001432:	6a90      	ldr	r0, [r2, #40]	; 0x28
20001434:	1b00      	subs	r0, r0, r4
20001436:	4283      	cmp	r3, r0
20001438:	d8f5      	bhi.n	20001426 <DAP_ProcessCommand+0x2ee>
2000143a:	2300      	movs	r3, #0
2000143c:	4c20      	ldr	r4, [pc, #128]	; (200014c0 <DAP_ProcessCommand+0x388>)
2000143e:	7073      	strb	r3, [r6, #1]
20001440:	e695      	b.n	2000116e <DAP_ProcessCommand+0x36>
20001442:	7882      	ldrb	r2, [r0, #2]
20001444:	7843      	ldrb	r3, [r0, #1]
20001446:	0212      	lsls	r2, r2, #8
20001448:	431a      	orrs	r2, r3
2000144a:	0153      	lsls	r3, r2, #5
2000144c:	1a9b      	subs	r3, r3, r2
2000144e:	009b      	lsls	r3, r3, #2
20001450:	189b      	adds	r3, r3, r2
20001452:	3b01      	subs	r3, #1
20001454:	d1fd      	bne.n	20001452 <DAP_ProcessCommand+0x31a>
20001456:	2300      	movs	r3, #0
20001458:	4c1a      	ldr	r4, [pc, #104]	; (200014c4 <DAP_ProcessCommand+0x38c>)
2000145a:	7073      	strb	r3, [r6, #1]
2000145c:	e687      	b.n	2000116e <DAP_ProcessCommand+0x36>
2000145e:	24ff      	movs	r4, #255	; 0xff
20001460:	7074      	strb	r4, [r6, #1]
20001462:	e736      	b.n	200012d2 <DAP_ProcessCommand+0x19a>
20001464:	2201      	movs	r2, #1
20001466:	4b0c      	ldr	r3, [pc, #48]	; (20001498 <DAP_ProcessCommand+0x360>)
20001468:	701a      	strb	r2, [r3, #0]
2000146a:	f7ff f85b 	bl	20000524 <probe_init>
2000146e:	4b16      	ldr	r3, [pc, #88]	; (200014c8 <DAP_ProcessCommand+0x390>)
20001470:	601c      	str	r4, [r3, #0]
20001472:	3401      	adds	r4, #1
20001474:	7074      	strb	r4, [r6, #1]
20001476:	e72c      	b.n	200012d2 <DAP_ProcessCommand+0x19a>
20001478:	2d00      	cmp	r5, #0
2000147a:	d001      	beq.n	20001480 <DAP_ProcessCommand+0x348>
2000147c:	f000 fbeb 	bl	20001c56 <DAP_ProcessCommand+0xb1e>
20001480:	0948      	lsrs	r0, r1, #5
20001482:	d0da      	beq.n	2000143a <DAP_ProcessCommand+0x302>
20001484:	6a90      	ldr	r0, [r2, #40]	; 0x28
20001486:	1b00      	subs	r0, r0, r4
20001488:	4298      	cmp	r0, r3
2000148a:	d3f5      	bcc.n	20001478 <DAP_ProcessCommand+0x340>
2000148c:	e7d5      	b.n	2000143a <DAP_ProcessCommand+0x302>
2000148e:	46c0      	nop			; (mov r8, r8)
20001490:	20009d18 	.word	0x20009d18
20001494:	00010001 	.word	0x00010001
20001498:	2000a604 	.word	0x2000a604
2000149c:	00060002 	.word	0x00060002
200014a0:	00010002 	.word	0x00010002
200014a4:	00020002 	.word	0x00020002
200014a8:	00020003 	.word	0x00020003
200014ac:	03b9ac9f 	.word	0x03b9ac9f
200014b0:	00050002 	.word	0x00050002
200014b4:	00010003 	.word	0x00010003
200014b8:	002dc6c0 	.word	0x002dc6c0
200014bc:	40054000 	.word	0x40054000
200014c0:	00070002 	.word	0x00070002
200014c4:	00030002 	.word	0x00030002
200014c8:	2000fce4 	.word	0x2000fce4
200014cc:	3109      	adds	r1, #9
200014ce:	3309      	adds	r3, #9
200014d0:	3801      	subs	r0, #1
200014d2:	d300      	bcc.n	200014d6 <DAP_ProcessCommand+0x39e>
200014d4:	e76b      	b.n	200013ae <DAP_ProcessCommand+0x276>
200014d6:	e777      	b.n	200013c8 <DAP_ProcessCommand+0x290>
200014d8:	f7ff f808 	bl	200004ec <probe_write_mode>
200014dc:	e66d      	b.n	200011ba <DAP_ProcessCommand+0x82>
200014de:	2afe      	cmp	r2, #254	; 0xfe
200014e0:	d031      	beq.n	20001546 <DAP_ProcessCommand+0x40e>
200014e2:	2aff      	cmp	r2, #255	; 0xff
200014e4:	d000      	beq.n	200014e8 <DAP_ProcessCommand+0x3b0>
200014e6:	e3e4      	b.n	20001cb2 <DAP_ProcessCommand+0xb7a>
200014e8:	2340      	movs	r3, #64	; 0x40
200014ea:	70b3      	strb	r3, [r6, #2]
200014ec:	2300      	movs	r3, #0
200014ee:	70f3      	strb	r3, [r6, #3]
200014f0:	3302      	adds	r3, #2
200014f2:	4cc3      	ldr	r4, [pc, #780]	; (20001800 <DAP_ProcessCommand+0x6c8>)
200014f4:	7073      	strb	r3, [r6, #1]
200014f6:	e63a      	b.n	2000116e <DAP_ProcessCommand+0x36>
200014f8:	4653      	mov	r3, sl
200014fa:	0424      	lsls	r4, r4, #16
200014fc:	431c      	orrs	r4, r3
200014fe:	4bc1      	ldr	r3, [pc, #772]	; (20001804 <DAP_ProcessCommand+0x6cc>)
20001500:	469c      	mov	ip, r3
20001502:	4464      	add	r4, ip
20001504:	e633      	b.n	2000116e <DAP_ProcessCommand+0x36>
20001506:	f7fe fff1 	bl	200004ec <probe_write_mode>
2000150a:	e677      	b.n	200011fc <DAP_ProcessCommand+0xc4>
2000150c:	9a09      	ldr	r2, [sp, #36]	; 0x24
2000150e:	1a9c      	subs	r4, r3, r2
20001510:	2302      	movs	r3, #2
20001512:	0424      	lsls	r4, r4, #16
20001514:	431c      	orrs	r4, r3
20001516:	4bbb      	ldr	r3, [pc, #748]	; (20001804 <DAP_ProcessCommand+0x6cc>)
20001518:	469c      	mov	ip, r3
2000151a:	4464      	add	r4, ip
2000151c:	2300      	movs	r3, #0
2000151e:	7073      	strb	r3, [r6, #1]
20001520:	70b3      	strb	r3, [r6, #2]
20001522:	e624      	b.n	2000116e <DAP_ProcessCommand+0x36>
20001524:	2080      	movs	r0, #128	; 0x80
20001526:	4cb8      	ldr	r4, [pc, #736]	; (20001808 <DAP_ProcessCommand+0x6d0>)
20001528:	0040      	lsls	r0, r0, #1
2000152a:	e732      	b.n	20001392 <DAP_ProcessCommand+0x25a>
2000152c:	23ff      	movs	r3, #255	; 0xff
2000152e:	e793      	b.n	20001458 <DAP_ProcessCommand+0x320>
20001530:	78a3      	ldrb	r3, [r4, #2]
20001532:	78e4      	ldrb	r4, [r4, #3]
20001534:	0224      	lsls	r4, r4, #8
20001536:	431c      	orrs	r4, r3
20001538:	4bb2      	ldr	r3, [pc, #712]	; (20001804 <DAP_ProcessCommand+0x6cc>)
2000153a:	3401      	adds	r4, #1
2000153c:	469c      	mov	ip, r3
2000153e:	04a4      	lsls	r4, r4, #18
20001540:	4314      	orrs	r4, r2
20001542:	4464      	add	r4, ip
20001544:	e613      	b.n	2000116e <DAP_ProcessCommand+0x36>
20001546:	2102      	movs	r1, #2
20001548:	e6e5      	b.n	20001316 <DAP_ProcessCommand+0x1de>
2000154a:	23ff      	movs	r3, #255	; 0xff
2000154c:	e704      	b.n	20001358 <DAP_ProcessCommand+0x220>
2000154e:	1cf3      	adds	r3, r6, #3
20001550:	9306      	str	r3, [sp, #24]
20001552:	2300      	movs	r3, #0
20001554:	4dad      	ldr	r5, [pc, #692]	; (2000180c <DAP_ProcessCommand+0x6d4>)
20001556:	1cc1      	adds	r1, r0, #3
20001558:	702b      	strb	r3, [r5, #0]
2000155a:	7883      	ldrb	r3, [r0, #2]
2000155c:	4699      	mov	r9, r3
2000155e:	2b00      	cmp	r3, #0
20001560:	d100      	bne.n	20001564 <DAP_ProcessCommand+0x42c>
20001562:	e39b      	b.n	20001c9c <DAP_ProcessCommand+0xb64>
20001564:	2300      	movs	r3, #0
20001566:	2200      	movs	r2, #0
20001568:	46b3      	mov	fp, r6
2000156a:	4698      	mov	r8, r3
2000156c:	002e      	movs	r6, r5
2000156e:	9307      	str	r3, [sp, #28]
20001570:	9302      	str	r3, [sp, #8]
20001572:	9205      	str	r2, [sp, #20]
20001574:	2002      	movs	r0, #2
20001576:	780d      	ldrb	r5, [r1, #0]
20001578:	1c4b      	adds	r3, r1, #1
2000157a:	4642      	mov	r2, r8
2000157c:	9304      	str	r3, [sp, #16]
2000157e:	4228      	tst	r0, r5
20001580:	d100      	bne.n	20001584 <DAP_ProcessCommand+0x44c>
20001582:	e0aa      	b.n	200016da <DAP_ProcessCommand+0x5a2>
20001584:	2a00      	cmp	r2, #0
20001586:	d033      	beq.n	200015f0 <DAP_ProcessCommand+0x4b8>
20001588:	2211      	movs	r2, #17
2000158a:	8a3c      	ldrh	r4, [r7, #16]
2000158c:	402a      	ands	r2, r5
2000158e:	2a01      	cmp	r2, #1
20001590:	d100      	bne.n	20001594 <DAP_ProcessCommand+0x45c>
20001592:	e131      	b.n	200017f8 <DAP_ProcessCommand+0x6c0>
20001594:	4688      	mov	r8, r1
20001596:	9301      	str	r3, [sp, #4]
20001598:	e007      	b.n	200015aa <DAP_ProcessCommand+0x472>
2000159a:	2c00      	cmp	r4, #0
2000159c:	d100      	bne.n	200015a0 <DAP_ProcessCommand+0x468>
2000159e:	e1a7      	b.n	200018f0 <DAP_ProcessCommand+0x7b8>
200015a0:	7833      	ldrb	r3, [r6, #0]
200015a2:	3c01      	subs	r4, #1
200015a4:	2b00      	cmp	r3, #0
200015a6:	d000      	beq.n	200015aa <DAP_ProcessCommand+0x472>
200015a8:	e1a5      	b.n	200018f6 <DAP_ProcessCommand+0x7be>
200015aa:	200e      	movs	r0, #14
200015ac:	a90b      	add	r1, sp, #44	; 0x2c
200015ae:	f7ff fb83 	bl	20000cb8 <SWD_Transfer>
200015b2:	2802      	cmp	r0, #2
200015b4:	d0f1      	beq.n	2000159a <DAP_ProcessCommand+0x462>
200015b6:	2200      	movs	r2, #0
200015b8:	4641      	mov	r1, r8
200015ba:	4690      	mov	r8, r2
200015bc:	0002      	movs	r2, r0
200015be:	9b01      	ldr	r3, [sp, #4]
200015c0:	9005      	str	r0, [sp, #20]
200015c2:	2a01      	cmp	r2, #1
200015c4:	d000      	beq.n	200015c8 <DAP_ProcessCommand+0x490>
200015c6:	e36e      	b.n	20001ca6 <DAP_ProcessCommand+0xb6e>
200015c8:	980b      	ldr	r0, [sp, #44]	; 0x2c
200015ca:	9a06      	ldr	r2, [sp, #24]
200015cc:	0a04      	lsrs	r4, r0, #8
200015ce:	7010      	strb	r0, [r2, #0]
200015d0:	7054      	strb	r4, [r2, #1]
200015d2:	0c04      	lsrs	r4, r0, #16
200015d4:	0e00      	lsrs	r0, r0, #24
200015d6:	7094      	strb	r4, [r2, #2]
200015d8:	70d0      	strb	r0, [r2, #3]
200015da:	0014      	movs	r4, r2
200015dc:	4640      	mov	r0, r8
200015de:	3404      	adds	r4, #4
200015e0:	2800      	cmp	r0, #0
200015e2:	d004      	beq.n	200015ee <DAP_ProcessCommand+0x4b6>
200015e4:	b26a      	sxtb	r2, r5
200015e6:	2a00      	cmp	r2, #0
200015e8:	da00      	bge.n	200015ec <DAP_ProcessCommand+0x4b4>
200015ea:	e188      	b.n	200018fe <DAP_ProcessCommand+0x7c6>
200015ec:	9005      	str	r0, [sp, #20]
200015ee:	9406      	str	r4, [sp, #24]
200015f0:	06e8      	lsls	r0, r5, #27
200015f2:	d400      	bmi.n	200015f6 <DAP_ProcessCommand+0x4be>
200015f4:	e0ae      	b.n	20001754 <DAP_ProcessCommand+0x61c>
200015f6:	7858      	ldrb	r0, [r3, #1]
200015f8:	781a      	ldrb	r2, [r3, #0]
200015fa:	0200      	lsls	r0, r0, #8
200015fc:	4310      	orrs	r0, r2
200015fe:	789a      	ldrb	r2, [r3, #2]
20001600:	78db      	ldrb	r3, [r3, #3]
20001602:	0412      	lsls	r2, r2, #16
20001604:	4302      	orrs	r2, r0
20001606:	061b      	lsls	r3, r3, #24
20001608:	4313      	orrs	r3, r2
2000160a:	9301      	str	r3, [sp, #4]
2000160c:	1d4b      	adds	r3, r1, #5
2000160e:	9304      	str	r3, [sp, #16]
20001610:	8a7b      	ldrh	r3, [r7, #18]
20001612:	07ea      	lsls	r2, r5, #31
20001614:	d515      	bpl.n	20001642 <DAP_ProcessCommand+0x50a>
20001616:	8a3c      	ldrh	r4, [r7, #16]
20001618:	9303      	str	r3, [sp, #12]
2000161a:	e007      	b.n	2000162c <DAP_ProcessCommand+0x4f4>
2000161c:	2c00      	cmp	r4, #0
2000161e:	d100      	bne.n	20001622 <DAP_ProcessCommand+0x4ea>
20001620:	e0a3      	b.n	2000176a <DAP_ProcessCommand+0x632>
20001622:	7833      	ldrb	r3, [r6, #0]
20001624:	3c01      	subs	r4, #1
20001626:	2b00      	cmp	r3, #0
20001628:	d000      	beq.n	2000162c <DAP_ProcessCommand+0x4f4>
2000162a:	e09e      	b.n	2000176a <DAP_ProcessCommand+0x632>
2000162c:	2100      	movs	r1, #0
2000162e:	0028      	movs	r0, r5
20001630:	f7ff fb42 	bl	20000cb8 <SWD_Transfer>
20001634:	2802      	cmp	r0, #2
20001636:	d0f1      	beq.n	2000161c <DAP_ProcessCommand+0x4e4>
20001638:	9b03      	ldr	r3, [sp, #12]
2000163a:	9005      	str	r0, [sp, #20]
2000163c:	2801      	cmp	r0, #1
2000163e:	d000      	beq.n	20001642 <DAP_ProcessCommand+0x50a>
20001640:	e331      	b.n	20001ca6 <DAP_ProcessCommand+0xb6e>
20001642:	4642      	mov	r2, r8
20001644:	46b8      	mov	r8, r7
20001646:	001f      	movs	r7, r3
20001648:	9203      	str	r2, [sp, #12]
2000164a:	4643      	mov	r3, r8
2000164c:	8a1c      	ldrh	r4, [r3, #16]
2000164e:	e005      	b.n	2000165c <DAP_ProcessCommand+0x524>
20001650:	2c00      	cmp	r4, #0
20001652:	d035      	beq.n	200016c0 <DAP_ProcessCommand+0x588>
20001654:	7833      	ldrb	r3, [r6, #0]
20001656:	3c01      	subs	r4, #1
20001658:	2b00      	cmp	r3, #0
2000165a:	d131      	bne.n	200016c0 <DAP_ProcessCommand+0x588>
2000165c:	0028      	movs	r0, r5
2000165e:	a90b      	add	r1, sp, #44	; 0x2c
20001660:	f7ff fb2a 	bl	20000cb8 <SWD_Transfer>
20001664:	0002      	movs	r2, r0
20001666:	2802      	cmp	r0, #2
20001668:	d0f2      	beq.n	20001650 <DAP_ProcessCommand+0x518>
2000166a:	2801      	cmp	r0, #1
2000166c:	d128      	bne.n	200016c0 <DAP_ProcessCommand+0x588>
2000166e:	4643      	mov	r3, r8
20001670:	990b      	ldr	r1, [sp, #44]	; 0x2c
20001672:	695c      	ldr	r4, [r3, #20]
20001674:	9b01      	ldr	r3, [sp, #4]
20001676:	4021      	ands	r1, r4
20001678:	428b      	cmp	r3, r1
2000167a:	d100      	bne.n	2000167e <DAP_ProcessCommand+0x546>
2000167c:	e117      	b.n	200018ae <DAP_ProcessCommand+0x776>
2000167e:	2f00      	cmp	r7, #0
20001680:	d003      	beq.n	2000168a <DAP_ProcessCommand+0x552>
20001682:	7832      	ldrb	r2, [r6, #0]
20001684:	3f01      	subs	r7, #1
20001686:	2a00      	cmp	r2, #0
20001688:	d0df      	beq.n	2000164a <DAP_ProcessCommand+0x512>
2000168a:	9a03      	ldr	r2, [sp, #12]
2000168c:	4647      	mov	r7, r8
2000168e:	0035      	movs	r5, r6
20001690:	0003      	movs	r3, r0
20001692:	4690      	mov	r8, r2
20001694:	465e      	mov	r6, fp
20001696:	2210      	movs	r2, #16
20001698:	431a      	orrs	r2, r3
2000169a:	b2d2      	uxtb	r2, r2
2000169c:	2102      	movs	r1, #2
2000169e:	2010      	movs	r0, #16
200016a0:	464c      	mov	r4, r9
200016a2:	4694      	mov	ip, r2
200016a4:	9b04      	ldr	r3, [sp, #16]
200016a6:	e006      	b.n	200016b6 <DAP_ProcessCommand+0x57e>
200016a8:	4210      	tst	r0, r2
200016aa:	d107      	bne.n	200016bc <DAP_ProcessCommand+0x584>
200016ac:	3301      	adds	r3, #1
200016ae:	3c01      	subs	r4, #1
200016b0:	2c00      	cmp	r4, #0
200016b2:	d100      	bne.n	200016b6 <DAP_ProcessCommand+0x57e>
200016b4:	e103      	b.n	200018be <DAP_ProcessCommand+0x786>
200016b6:	781a      	ldrb	r2, [r3, #0]
200016b8:	4211      	tst	r1, r2
200016ba:	d1f5      	bne.n	200016a8 <DAP_ProcessCommand+0x570>
200016bc:	3305      	adds	r3, #5
200016be:	e7f6      	b.n	200016ae <DAP_ProcessCommand+0x576>
200016c0:	4647      	mov	r7, r8
200016c2:	9903      	ldr	r1, [sp, #12]
200016c4:	0003      	movs	r3, r0
200016c6:	4688      	mov	r8, r1
200016c8:	6978      	ldr	r0, [r7, #20]
200016ca:	990b      	ldr	r1, [sp, #44]	; 0x2c
200016cc:	0035      	movs	r5, r6
200016ce:	4001      	ands	r1, r0
200016d0:	9801      	ldr	r0, [sp, #4]
200016d2:	465e      	mov	r6, fp
200016d4:	4281      	cmp	r1, r0
200016d6:	d1de      	bne.n	20001696 <DAP_ProcessCommand+0x55e>
200016d8:	e7e0      	b.n	2000169c <DAP_ProcessCommand+0x564>
200016da:	2a00      	cmp	r2, #0
200016dc:	d149      	bne.n	20001772 <DAP_ProcessCommand+0x63a>
200016de:	7858      	ldrb	r0, [r3, #1]
200016e0:	781a      	ldrb	r2, [r3, #0]
200016e2:	0200      	lsls	r0, r0, #8
200016e4:	4310      	orrs	r0, r2
200016e6:	789a      	ldrb	r2, [r3, #2]
200016e8:	78db      	ldrb	r3, [r3, #3]
200016ea:	0412      	lsls	r2, r2, #16
200016ec:	4302      	orrs	r2, r0
200016ee:	061b      	lsls	r3, r3, #24
200016f0:	4313      	orrs	r3, r2
200016f2:	2220      	movs	r2, #32
200016f4:	930b      	str	r3, [sp, #44]	; 0x2c
200016f6:	3105      	adds	r1, #5
200016f8:	422a      	tst	r2, r5
200016fa:	d05e      	beq.n	200017ba <DAP_ProcessCommand+0x682>
200016fc:	617b      	str	r3, [r7, #20]
200016fe:	2300      	movs	r3, #0
20001700:	4698      	mov	r8, r3
20001702:	3301      	adds	r3, #1
20001704:	9305      	str	r3, [sp, #20]
20001706:	9b02      	ldr	r3, [sp, #8]
20001708:	3301      	adds	r3, #1
2000170a:	9302      	str	r3, [sp, #8]
2000170c:	7833      	ldrb	r3, [r6, #0]
2000170e:	2b00      	cmp	r3, #0
20001710:	d000      	beq.n	20001714 <DAP_ProcessCommand+0x5dc>
20001712:	e204      	b.n	20001b1e <DAP_ProcessCommand+0x9e6>
20001714:	3b01      	subs	r3, #1
20001716:	469c      	mov	ip, r3
20001718:	44e1      	add	r9, ip
2000171a:	464b      	mov	r3, r9
2000171c:	2b00      	cmp	r3, #0
2000171e:	d000      	beq.n	20001722 <DAP_ProcessCommand+0x5ea>
20001720:	e728      	b.n	20001574 <DAP_ProcessCommand+0x43c>
20001722:	0035      	movs	r5, r6
20001724:	465e      	mov	r6, fp
20001726:	9a05      	ldr	r2, [sp, #20]
20001728:	9104      	str	r1, [sp, #16]
2000172a:	2a01      	cmp	r2, #1
2000172c:	d100      	bne.n	20001730 <DAP_ProcessCommand+0x5f8>
2000172e:	e1d1      	b.n	20001ad4 <DAP_ProcessCommand+0x99c>
20001730:	b2d3      	uxtb	r3, r2
20001732:	9308      	str	r3, [sp, #32]
20001734:	9b02      	ldr	r3, [sp, #8]
20001736:	9a09      	ldr	r2, [sp, #36]	; 0x24
20001738:	7073      	strb	r3, [r6, #1]
2000173a:	9b08      	ldr	r3, [sp, #32]
2000173c:	70b3      	strb	r3, [r6, #2]
2000173e:	9b04      	ldr	r3, [sp, #16]
20001740:	1a9c      	subs	r4, r3, r2
20001742:	4652      	mov	r2, sl
20001744:	9b06      	ldr	r3, [sp, #24]
20001746:	0424      	lsls	r4, r4, #16
20001748:	1a9b      	subs	r3, r3, r2
2000174a:	431c      	orrs	r4, r3
2000174c:	4b2d      	ldr	r3, [pc, #180]	; (20001804 <DAP_ProcessCommand+0x6cc>)
2000174e:	469c      	mov	ip, r3
20001750:	4464      	add	r4, ip
20001752:	e50c      	b.n	2000116e <DAP_ProcessCommand+0x36>
20001754:	8a3c      	ldrh	r4, [r7, #16]
20001756:	07e9      	lsls	r1, r5, #31
20001758:	d56b      	bpl.n	20001832 <DAP_ProcessCommand+0x6fa>
2000175a:	4642      	mov	r2, r8
2000175c:	2a00      	cmp	r2, #0
2000175e:	d100      	bne.n	20001762 <DAP_ProcessCommand+0x62a>
20001760:	e0e4      	b.n	2000192c <DAP_ProcessCommand+0x7f4>
20001762:	0019      	movs	r1, r3
20001764:	2300      	movs	r3, #0
20001766:	9307      	str	r3, [sp, #28]
20001768:	e7cd      	b.n	20001706 <DAP_ProcessCommand+0x5ce>
2000176a:	0035      	movs	r5, r6
2000176c:	0002      	movs	r2, r0
2000176e:	465e      	mov	r6, fp
20001770:	e794      	b.n	2000169c <DAP_ProcessCommand+0x564>
20001772:	8a3c      	ldrh	r4, [r7, #16]
20001774:	9501      	str	r5, [sp, #4]
20001776:	9303      	str	r3, [sp, #12]
20001778:	000d      	movs	r5, r1
2000177a:	e005      	b.n	20001788 <DAP_ProcessCommand+0x650>
2000177c:	2c00      	cmp	r4, #0
2000177e:	d0f4      	beq.n	2000176a <DAP_ProcessCommand+0x632>
20001780:	7833      	ldrb	r3, [r6, #0]
20001782:	3c01      	subs	r4, #1
20001784:	2b00      	cmp	r3, #0
20001786:	d1f0      	bne.n	2000176a <DAP_ProcessCommand+0x632>
20001788:	200e      	movs	r0, #14
2000178a:	a90b      	add	r1, sp, #44	; 0x2c
2000178c:	f7ff fa94 	bl	20000cb8 <SWD_Transfer>
20001790:	2802      	cmp	r0, #2
20001792:	d0f3      	beq.n	2000177c <DAP_ProcessCommand+0x644>
20001794:	0029      	movs	r1, r5
20001796:	9b03      	ldr	r3, [sp, #12]
20001798:	9d01      	ldr	r5, [sp, #4]
2000179a:	9005      	str	r0, [sp, #20]
2000179c:	2801      	cmp	r0, #1
2000179e:	d000      	beq.n	200017a2 <DAP_ProcessCommand+0x66a>
200017a0:	e281      	b.n	20001ca6 <DAP_ProcessCommand+0xb6e>
200017a2:	9a0b      	ldr	r2, [sp, #44]	; 0x2c
200017a4:	9c06      	ldr	r4, [sp, #24]
200017a6:	0a10      	lsrs	r0, r2, #8
200017a8:	7022      	strb	r2, [r4, #0]
200017aa:	7060      	strb	r0, [r4, #1]
200017ac:	0c10      	lsrs	r0, r2, #16
200017ae:	0e12      	lsrs	r2, r2, #24
200017b0:	70e2      	strb	r2, [r4, #3]
200017b2:	1d22      	adds	r2, r4, #4
200017b4:	70a0      	strb	r0, [r4, #2]
200017b6:	9206      	str	r2, [sp, #24]
200017b8:	e791      	b.n	200016de <DAP_ProcessCommand+0x5a6>
200017ba:	8a3b      	ldrh	r3, [r7, #16]
200017bc:	4688      	mov	r8, r1
200017be:	001c      	movs	r4, r3
200017c0:	e007      	b.n	200017d2 <DAP_ProcessCommand+0x69a>
200017c2:	2c00      	cmp	r4, #0
200017c4:	d100      	bne.n	200017c8 <DAP_ProcessCommand+0x690>
200017c6:	e0d8      	b.n	2000197a <DAP_ProcessCommand+0x842>
200017c8:	7833      	ldrb	r3, [r6, #0]
200017ca:	3c01      	subs	r4, #1
200017cc:	2b00      	cmp	r3, #0
200017ce:	d000      	beq.n	200017d2 <DAP_ProcessCommand+0x69a>
200017d0:	e0cb      	b.n	2000196a <DAP_ProcessCommand+0x832>
200017d2:	0028      	movs	r0, r5
200017d4:	a90b      	add	r1, sp, #44	; 0x2c
200017d6:	f7ff fa6f 	bl	20000cb8 <SWD_Transfer>
200017da:	2802      	cmp	r0, #2
200017dc:	d0f1      	beq.n	200017c2 <DAP_ProcessCommand+0x68a>
200017de:	4641      	mov	r1, r8
200017e0:	9005      	str	r0, [sp, #20]
200017e2:	2801      	cmp	r0, #1
200017e4:	d000      	beq.n	200017e8 <DAP_ProcessCommand+0x6b0>
200017e6:	e262      	b.n	20001cae <DAP_ProcessCommand+0xb76>
200017e8:	b26d      	sxtb	r5, r5
200017ea:	2d00      	cmp	r5, #0
200017ec:	db6a      	blt.n	200018c4 <DAP_ProcessCommand+0x78c>
200017ee:	2301      	movs	r3, #1
200017f0:	9307      	str	r3, [sp, #28]
200017f2:	2300      	movs	r3, #0
200017f4:	4698      	mov	r8, r3
200017f6:	e786      	b.n	20001706 <DAP_ProcessCommand+0x5ce>
200017f8:	9101      	str	r1, [sp, #4]
200017fa:	9303      	str	r3, [sp, #12]
200017fc:	e00e      	b.n	2000181c <DAP_ProcessCommand+0x6e4>
200017fe:	46c0      	nop			; (mov r8, r8)
20001800:	00020004 	.word	0x00020004
20001804:	00010001 	.word	0x00010001
20001808:	00220002 	.word	0x00220002
2000180c:	2002058c 	.word	0x2002058c
20001810:	2c00      	cmp	r4, #0
20001812:	d067      	beq.n	200018e4 <DAP_ProcessCommand+0x7ac>
20001814:	7833      	ldrb	r3, [r6, #0]
20001816:	3c01      	subs	r4, #1
20001818:	2b00      	cmp	r3, #0
2000181a:	d163      	bne.n	200018e4 <DAP_ProcessCommand+0x7ac>
2000181c:	0028      	movs	r0, r5
2000181e:	a90b      	add	r1, sp, #44	; 0x2c
20001820:	f7ff fa4a 	bl	20000cb8 <SWD_Transfer>
20001824:	2802      	cmp	r0, #2
20001826:	d0f3      	beq.n	20001810 <DAP_ProcessCommand+0x6d8>
20001828:	0002      	movs	r2, r0
2000182a:	9901      	ldr	r1, [sp, #4]
2000182c:	9b03      	ldr	r3, [sp, #12]
2000182e:	9005      	str	r0, [sp, #20]
20001830:	e6c7      	b.n	200015c2 <DAP_ProcessCommand+0x48a>
20001832:	9301      	str	r3, [sp, #4]
20001834:	e005      	b.n	20001842 <DAP_ProcessCommand+0x70a>
20001836:	2c00      	cmp	r4, #0
20001838:	d097      	beq.n	2000176a <DAP_ProcessCommand+0x632>
2000183a:	7833      	ldrb	r3, [r6, #0]
2000183c:	3c01      	subs	r4, #1
2000183e:	2b00      	cmp	r3, #0
20001840:	d193      	bne.n	2000176a <DAP_ProcessCommand+0x632>
20001842:	0028      	movs	r0, r5
20001844:	a90b      	add	r1, sp, #44	; 0x2c
20001846:	f7ff fa37 	bl	20000cb8 <SWD_Transfer>
2000184a:	2802      	cmp	r0, #2
2000184c:	d0f3      	beq.n	20001836 <DAP_ProcessCommand+0x6fe>
2000184e:	9b01      	ldr	r3, [sp, #4]
20001850:	9005      	str	r0, [sp, #20]
20001852:	2801      	cmp	r0, #1
20001854:	d000      	beq.n	20001858 <DAP_ProcessCommand+0x720>
20001856:	e226      	b.n	20001ca6 <DAP_ProcessCommand+0xb6e>
20001858:	b26d      	sxtb	r5, r5
2000185a:	2d00      	cmp	r5, #0
2000185c:	da0a      	bge.n	20001874 <DAP_ProcessCommand+0x73c>
2000185e:	68b9      	ldr	r1, [r7, #8]
20001860:	9a06      	ldr	r2, [sp, #24]
20001862:	0a08      	lsrs	r0, r1, #8
20001864:	7011      	strb	r1, [r2, #0]
20001866:	7050      	strb	r0, [r2, #1]
20001868:	0c08      	lsrs	r0, r1, #16
2000186a:	0e09      	lsrs	r1, r1, #24
2000186c:	7090      	strb	r0, [r2, #2]
2000186e:	70d1      	strb	r1, [r2, #3]
20001870:	3204      	adds	r2, #4
20001872:	9206      	str	r2, [sp, #24]
20001874:	990b      	ldr	r1, [sp, #44]	; 0x2c
20001876:	9a06      	ldr	r2, [sp, #24]
20001878:	0a08      	lsrs	r0, r1, #8
2000187a:	7011      	strb	r1, [r2, #0]
2000187c:	7050      	strb	r0, [r2, #1]
2000187e:	0c08      	lsrs	r0, r1, #16
20001880:	0e09      	lsrs	r1, r1, #24
20001882:	70d1      	strb	r1, [r2, #3]
20001884:	0019      	movs	r1, r3
20001886:	2300      	movs	r3, #0
20001888:	7090      	strb	r0, [r2, #2]
2000188a:	3204      	adds	r2, #4
2000188c:	9206      	str	r2, [sp, #24]
2000188e:	9307      	str	r3, [sp, #28]
20001890:	e739      	b.n	20001706 <DAP_ProcessCommand+0x5ce>
20001892:	2201      	movs	r2, #1
20001894:	2001      	movs	r0, #1
20001896:	e55b      	b.n	20001350 <DAP_ProcessCommand+0x218>
20001898:	7883      	ldrb	r3, [r0, #2]
2000189a:	07db      	lsls	r3, r3, #31
2000189c:	d400      	bmi.n	200018a0 <DAP_ProcessCommand+0x768>
2000189e:	e0f3      	b.n	20001a88 <DAP_ProcessCommand+0x950>
200018a0:	23d0      	movs	r3, #208	; 0xd0
200018a2:	2280      	movs	r2, #128	; 0x80
200018a4:	061b      	lsls	r3, r3, #24
200018a6:	0212      	lsls	r2, r2, #8
200018a8:	615a      	str	r2, [r3, #20]
200018aa:	2300      	movs	r3, #0
200018ac:	e5d4      	b.n	20001458 <DAP_ProcessCommand+0x320>
200018ae:	9b03      	ldr	r3, [sp, #12]
200018b0:	4647      	mov	r7, r8
200018b2:	4698      	mov	r8, r3
200018b4:	2300      	movs	r3, #0
200018b6:	9904      	ldr	r1, [sp, #16]
200018b8:	9005      	str	r0, [sp, #20]
200018ba:	9307      	str	r3, [sp, #28]
200018bc:	e723      	b.n	20001706 <DAP_ProcessCommand+0x5ce>
200018be:	4662      	mov	r2, ip
200018c0:	9304      	str	r3, [sp, #16]
200018c2:	e732      	b.n	2000172a <DAP_ProcessCommand+0x5f2>
200018c4:	68bb      	ldr	r3, [r7, #8]
200018c6:	9a06      	ldr	r2, [sp, #24]
200018c8:	0a18      	lsrs	r0, r3, #8
200018ca:	7013      	strb	r3, [r2, #0]
200018cc:	7050      	strb	r0, [r2, #1]
200018ce:	0c18      	lsrs	r0, r3, #16
200018d0:	0e1b      	lsrs	r3, r3, #24
200018d2:	70d3      	strb	r3, [r2, #3]
200018d4:	2301      	movs	r3, #1
200018d6:	9307      	str	r3, [sp, #28]
200018d8:	1d13      	adds	r3, r2, #4
200018da:	9306      	str	r3, [sp, #24]
200018dc:	2300      	movs	r3, #0
200018de:	7090      	strb	r0, [r2, #2]
200018e0:	4698      	mov	r8, r3
200018e2:	e710      	b.n	20001706 <DAP_ProcessCommand+0x5ce>
200018e4:	0035      	movs	r5, r6
200018e6:	4644      	mov	r4, r8
200018e8:	465e      	mov	r6, fp
200018ea:	46a0      	mov	r8, r4
200018ec:	2202      	movs	r2, #2
200018ee:	e6d5      	b.n	2000169c <DAP_ProcessCommand+0x564>
200018f0:	0035      	movs	r5, r6
200018f2:	465e      	mov	r6, fp
200018f4:	e7f9      	b.n	200018ea <DAP_ProcessCommand+0x7b2>
200018f6:	0035      	movs	r5, r6
200018f8:	2400      	movs	r4, #0
200018fa:	465e      	mov	r6, fp
200018fc:	e7f5      	b.n	200018ea <DAP_ProcessCommand+0x7b2>
200018fe:	68ba      	ldr	r2, [r7, #8]
20001900:	9c06      	ldr	r4, [sp, #24]
20001902:	0a10      	lsrs	r0, r2, #8
20001904:	7160      	strb	r0, [r4, #5]
20001906:	0c10      	lsrs	r0, r2, #16
20001908:	7122      	strb	r2, [r4, #4]
2000190a:	71a0      	strb	r0, [r4, #6]
2000190c:	0e12      	lsrs	r2, r2, #24
2000190e:	0020      	movs	r0, r4
20001910:	71e2      	strb	r2, [r4, #7]
20001912:	4642      	mov	r2, r8
20001914:	3008      	adds	r0, #8
20001916:	9205      	str	r2, [sp, #20]
20001918:	9006      	str	r0, [sp, #24]
2000191a:	e669      	b.n	200015f0 <DAP_ProcessCommand+0x4b8>
2000191c:	2900      	cmp	r1, #0
2000191e:	d100      	bne.n	20001922 <DAP_ProcessCommand+0x7ea>
20001920:	e58b      	b.n	2000143a <DAP_ProcessCommand+0x302>
20001922:	6a91      	ldr	r1, [r2, #40]	; 0x28
20001924:	1b09      	subs	r1, r1, r4
20001926:	428b      	cmp	r3, r1
20001928:	d8fb      	bhi.n	20001922 <DAP_ProcessCommand+0x7ea>
2000192a:	e586      	b.n	2000143a <DAP_ProcessCommand+0x302>
2000192c:	9301      	str	r3, [sp, #4]
2000192e:	e007      	b.n	20001940 <DAP_ProcessCommand+0x808>
20001930:	2c00      	cmp	r4, #0
20001932:	d100      	bne.n	20001936 <DAP_ProcessCommand+0x7fe>
20001934:	e109      	b.n	20001b4a <DAP_ProcessCommand+0xa12>
20001936:	7833      	ldrb	r3, [r6, #0]
20001938:	3c01      	subs	r4, #1
2000193a:	2b00      	cmp	r3, #0
2000193c:	d000      	beq.n	20001940 <DAP_ProcessCommand+0x808>
2000193e:	e714      	b.n	2000176a <DAP_ProcessCommand+0x632>
20001940:	2100      	movs	r1, #0
20001942:	0028      	movs	r0, r5
20001944:	f7ff f9b8 	bl	20000cb8 <SWD_Transfer>
20001948:	2802      	cmp	r0, #2
2000194a:	d0f1      	beq.n	20001930 <DAP_ProcessCommand+0x7f8>
2000194c:	9b01      	ldr	r3, [sp, #4]
2000194e:	9005      	str	r0, [sp, #20]
20001950:	2801      	cmp	r0, #1
20001952:	d000      	beq.n	20001956 <DAP_ProcessCommand+0x81e>
20001954:	e1a7      	b.n	20001ca6 <DAP_ProcessCommand+0xb6e>
20001956:	b26d      	sxtb	r5, r5
20001958:	2d00      	cmp	r5, #0
2000195a:	da00      	bge.n	2000195e <DAP_ProcessCommand+0x826>
2000195c:	e0e4      	b.n	20001b28 <DAP_ProcessCommand+0x9f0>
2000195e:	2200      	movs	r2, #0
20001960:	9207      	str	r2, [sp, #28]
20001962:	3201      	adds	r2, #1
20001964:	4690      	mov	r8, r2
20001966:	0019      	movs	r1, r3
20001968:	e6cd      	b.n	20001706 <DAP_ProcessCommand+0x5ce>
2000196a:	4641      	mov	r1, r8
2000196c:	0002      	movs	r2, r0
2000196e:	2300      	movs	r3, #0
20001970:	0035      	movs	r5, r6
20001972:	4698      	mov	r8, r3
20001974:	465e      	mov	r6, fp
20001976:	9104      	str	r1, [sp, #16]
20001978:	e690      	b.n	2000169c <DAP_ProcessCommand+0x564>
2000197a:	4641      	mov	r1, r8
2000197c:	0035      	movs	r5, r6
2000197e:	0002      	movs	r2, r0
20001980:	46a0      	mov	r8, r4
20001982:	465e      	mov	r6, fp
20001984:	9104      	str	r1, [sp, #16]
20001986:	e689      	b.n	2000169c <DAP_ProcessCommand+0x564>
20001988:	2200      	movs	r2, #0
2000198a:	4dcc      	ldr	r5, [pc, #816]	; (20001cbc <DAP_ProcessCommand+0xb84>)
2000198c:	7881      	ldrb	r1, [r0, #2]
2000198e:	702a      	strb	r2, [r5, #0]
20001990:	78c2      	ldrb	r2, [r0, #3]
20001992:	0212      	lsls	r2, r2, #8
20001994:	430a      	orrs	r2, r1
20001996:	9201      	str	r2, [sp, #4]
20001998:	d100      	bne.n	2000199c <DAP_ProcessCommand+0x864>
2000199a:	e13e      	b.n	20001c1a <DAP_ProcessCommand+0xae2>
2000199c:	7902      	ldrb	r2, [r0, #4]
2000199e:	4691      	mov	r9, r2
200019a0:	0792      	lsls	r2, r2, #30
200019a2:	d500      	bpl.n	200019a6 <DAP_ProcessCommand+0x86e>
200019a4:	e0d7      	b.n	20001b56 <DAP_ProcessCommand+0xa1e>
200019a6:	1d43      	adds	r3, r0, #5
200019a8:	469a      	mov	sl, r3
200019aa:	2300      	movs	r3, #0
200019ac:	002a      	movs	r2, r5
200019ae:	469b      	mov	fp, r3
200019b0:	ab0b      	add	r3, sp, #44	; 0x2c
200019b2:	464d      	mov	r5, r9
200019b4:	4680      	mov	r8, r0
200019b6:	46b1      	mov	r9, r6
200019b8:	001c      	movs	r4, r3
200019ba:	0016      	movs	r6, r2
200019bc:	9702      	str	r7, [sp, #8]
200019be:	4653      	mov	r3, sl
200019c0:	781a      	ldrb	r2, [r3, #0]
200019c2:	785b      	ldrb	r3, [r3, #1]
200019c4:	021b      	lsls	r3, r3, #8
200019c6:	4313      	orrs	r3, r2
200019c8:	4652      	mov	r2, sl
200019ca:	7892      	ldrb	r2, [r2, #2]
200019cc:	0412      	lsls	r2, r2, #16
200019ce:	431a      	orrs	r2, r3
200019d0:	4653      	mov	r3, sl
200019d2:	78db      	ldrb	r3, [r3, #3]
200019d4:	061b      	lsls	r3, r3, #24
200019d6:	4313      	orrs	r3, r2
200019d8:	930b      	str	r3, [sp, #44]	; 0x2c
200019da:	2304      	movs	r3, #4
200019dc:	469c      	mov	ip, r3
200019de:	9b02      	ldr	r3, [sp, #8]
200019e0:	44e2      	add	sl, ip
200019e2:	8a1f      	ldrh	r7, [r3, #16]
200019e4:	e005      	b.n	200019f2 <DAP_ProcessCommand+0x8ba>
200019e6:	2f00      	cmp	r7, #0
200019e8:	d030      	beq.n	20001a4c <DAP_ProcessCommand+0x914>
200019ea:	7833      	ldrb	r3, [r6, #0]
200019ec:	3f01      	subs	r7, #1
200019ee:	2b00      	cmp	r3, #0
200019f0:	d12c      	bne.n	20001a4c <DAP_ProcessCommand+0x914>
200019f2:	0021      	movs	r1, r4
200019f4:	0028      	movs	r0, r5
200019f6:	f7ff f95f 	bl	20000cb8 <SWD_Transfer>
200019fa:	2802      	cmp	r0, #2
200019fc:	d0f3      	beq.n	200019e6 <DAP_ProcessCommand+0x8ae>
200019fe:	2801      	cmp	r0, #1
20001a00:	d124      	bne.n	20001a4c <DAP_ProcessCommand+0x914>
20001a02:	2301      	movs	r3, #1
20001a04:	469c      	mov	ip, r3
20001a06:	9b01      	ldr	r3, [sp, #4]
20001a08:	44e3      	add	fp, ip
20001a0a:	3b01      	subs	r3, #1
20001a0c:	9301      	str	r3, [sp, #4]
20001a0e:	2b00      	cmp	r3, #0
20001a10:	d1d5      	bne.n	200019be <DAP_ProcessCommand+0x886>
20001a12:	9f02      	ldr	r7, [sp, #8]
20001a14:	0035      	movs	r5, r6
20001a16:	4644      	mov	r4, r8
20001a18:	464e      	mov	r6, r9
20001a1a:	8a3f      	ldrh	r7, [r7, #16]
20001a1c:	e006      	b.n	20001a2c <DAP_ProcessCommand+0x8f4>
20001a1e:	2f00      	cmp	r7, #0
20001a20:	d00a      	beq.n	20001a38 <DAP_ProcessCommand+0x900>
20001a22:	782b      	ldrb	r3, [r5, #0]
20001a24:	3f01      	subs	r7, #1
20001a26:	2b00      	cmp	r3, #0
20001a28:	d000      	beq.n	20001a2c <DAP_ProcessCommand+0x8f4>
20001a2a:	e131      	b.n	20001c90 <DAP_ProcessCommand+0xb58>
20001a2c:	2100      	movs	r1, #0
20001a2e:	200e      	movs	r0, #14
20001a30:	f7ff f942 	bl	20000cb8 <SWD_Transfer>
20001a34:	2802      	cmp	r0, #2
20001a36:	d0f2      	beq.n	20001a1e <DAP_ProcessCommand+0x8e6>
20001a38:	465b      	mov	r3, fp
20001a3a:	2203      	movs	r2, #3
20001a3c:	0a19      	lsrs	r1, r3, #8
20001a3e:	b2dd      	uxtb	r5, r3
20001a40:	b2c9      	uxtb	r1, r1
20001a42:	7075      	strb	r5, [r6, #1]
20001a44:	70b1      	strb	r1, [r6, #2]
20001a46:	70f0      	strb	r0, [r6, #3]
20001a48:	f7ff fbfc 	bl	20001244 <DAP_ProcessCommand+0x10c>
20001a4c:	4644      	mov	r4, r8
20001a4e:	464e      	mov	r6, r9
20001a50:	e7f2      	b.n	20001a38 <DAP_ProcessCommand+0x900>
20001a52:	78c3      	ldrb	r3, [r0, #3]
20001a54:	7882      	ldrb	r2, [r0, #2]
20001a56:	021b      	lsls	r3, r3, #8
20001a58:	4313      	orrs	r3, r2
20001a5a:	7902      	ldrb	r2, [r0, #4]
20001a5c:	a90b      	add	r1, sp, #44	; 0x2c
20001a5e:	0412      	lsls	r2, r2, #16
20001a60:	431a      	orrs	r2, r3
20001a62:	7943      	ldrb	r3, [r0, #5]
20001a64:	2000      	movs	r0, #0
20001a66:	061b      	lsls	r3, r3, #24
20001a68:	4313      	orrs	r3, r2
20001a6a:	930b      	str	r3, [sp, #44]	; 0x2c
20001a6c:	f7ff f924 	bl	20000cb8 <SWD_Transfer>
20001a70:	2300      	movs	r3, #0
20001a72:	4c93      	ldr	r4, [pc, #588]	; (20001cc0 <DAP_ProcessCommand+0xb88>)
20001a74:	7073      	strb	r3, [r6, #1]
20001a76:	f7ff fb7a 	bl	2000116e <DAP_ProcessCommand+0x36>
20001a7a:	23d0      	movs	r3, #208	; 0xd0
20001a7c:	2280      	movs	r2, #128	; 0x80
20001a7e:	061b      	lsls	r3, r3, #24
20001a80:	0252      	lsls	r2, r2, #9
20001a82:	619a      	str	r2, [r3, #24]
20001a84:	2300      	movs	r3, #0
20001a86:	e4e7      	b.n	20001458 <DAP_ProcessCommand+0x320>
20001a88:	23d0      	movs	r3, #208	; 0xd0
20001a8a:	2280      	movs	r2, #128	; 0x80
20001a8c:	061b      	lsls	r3, r3, #24
20001a8e:	0212      	lsls	r2, r2, #8
20001a90:	619a      	str	r2, [r3, #24]
20001a92:	2300      	movs	r3, #0
20001a94:	e4e0      	b.n	20001458 <DAP_ProcessCommand+0x320>
20001a96:	2206      	movs	r2, #6
20001a98:	498a      	ldr	r1, [pc, #552]	; (20001cc4 <DAP_ProcessCommand+0xb8c>)
20001a9a:	1cb0      	adds	r0, r6, #2
20001a9c:	f002 fafc 	bl	20004098 <__wrap___aeabi_memcpy>
20001aa0:	2306      	movs	r3, #6
20001aa2:	4c89      	ldr	r4, [pc, #548]	; (20001cc8 <DAP_ProcessCommand+0xb90>)
20001aa4:	7073      	strb	r3, [r6, #1]
20001aa6:	f7ff fb62 	bl	2000116e <DAP_ProcessCommand+0x36>
20001aaa:	2340      	movs	r3, #64	; 0x40
20001aac:	70b3      	strb	r3, [r6, #2]
20001aae:	3302      	adds	r3, #2
20001ab0:	70f3      	strb	r3, [r6, #3]
20001ab2:	3b33      	subs	r3, #51	; 0x33
20001ab4:	7133      	strb	r3, [r6, #4]
20001ab6:	2300      	movs	r3, #0
20001ab8:	7173      	strb	r3, [r6, #5]
20001aba:	3304      	adds	r3, #4
20001abc:	4c83      	ldr	r4, [pc, #524]	; (20001ccc <DAP_ProcessCommand+0xb94>)
20001abe:	7073      	strb	r3, [r6, #1]
20001ac0:	f7ff fb55 	bl	2000116e <DAP_ProcessCommand+0x36>
20001ac4:	0849      	lsrs	r1, r1, #1
20001ac6:	d100      	bne.n	20001aca <DAP_ProcessCommand+0x992>
20001ac8:	e4b7      	b.n	2000143a <DAP_ProcessCommand+0x302>
20001aca:	6a91      	ldr	r1, [r2, #40]	; 0x28
20001acc:	1b09      	subs	r1, r1, r4
20001ace:	4299      	cmp	r1, r3
20001ad0:	d3fb      	bcc.n	20001aca <DAP_ProcessCommand+0x992>
20001ad2:	e4b2      	b.n	2000143a <DAP_ProcessCommand+0x302>
20001ad4:	4643      	mov	r3, r8
20001ad6:	2b00      	cmp	r3, #0
20001ad8:	d100      	bne.n	20001adc <DAP_ProcessCommand+0x9a4>
20001ada:	e0a5      	b.n	20001c28 <DAP_ProcessCommand+0xaf0>
20001adc:	ab0b      	add	r3, sp, #44	; 0x2c
20001ade:	8a3c      	ldrh	r4, [r7, #16]
20001ae0:	001f      	movs	r7, r3
20001ae2:	e007      	b.n	20001af4 <DAP_ProcessCommand+0x9bc>
20001ae4:	2c00      	cmp	r4, #0
20001ae6:	d100      	bne.n	20001aea <DAP_ProcessCommand+0x9b2>
20001ae8:	e0b2      	b.n	20001c50 <DAP_ProcessCommand+0xb18>
20001aea:	782b      	ldrb	r3, [r5, #0]
20001aec:	3c01      	subs	r4, #1
20001aee:	2b00      	cmp	r3, #0
20001af0:	d000      	beq.n	20001af4 <DAP_ProcessCommand+0x9bc>
20001af2:	e0ad      	b.n	20001c50 <DAP_ProcessCommand+0xb18>
20001af4:	0039      	movs	r1, r7
20001af6:	200e      	movs	r0, #14
20001af8:	f7ff f8de 	bl	20000cb8 <SWD_Transfer>
20001afc:	2802      	cmp	r0, #2
20001afe:	d0f1      	beq.n	20001ae4 <DAP_ProcessCommand+0x9ac>
20001b00:	2801      	cmp	r0, #1
20001b02:	d000      	beq.n	20001b06 <DAP_ProcessCommand+0x9ce>
20001b04:	e0a4      	b.n	20001c50 <DAP_ProcessCommand+0xb18>
20001b06:	9b0b      	ldr	r3, [sp, #44]	; 0x2c
20001b08:	9906      	ldr	r1, [sp, #24]
20001b0a:	0a1a      	lsrs	r2, r3, #8
20001b0c:	700b      	strb	r3, [r1, #0]
20001b0e:	704a      	strb	r2, [r1, #1]
20001b10:	0c1a      	lsrs	r2, r3, #16
20001b12:	0e1b      	lsrs	r3, r3, #24
20001b14:	70cb      	strb	r3, [r1, #3]
20001b16:	1d0b      	adds	r3, r1, #4
20001b18:	708a      	strb	r2, [r1, #2]
20001b1a:	9306      	str	r3, [sp, #24]
20001b1c:	e60a      	b.n	20001734 <DAP_ProcessCommand+0x5fc>
20001b1e:	0035      	movs	r5, r6
20001b20:	9a05      	ldr	r2, [sp, #20]
20001b22:	465e      	mov	r6, fp
20001b24:	9104      	str	r1, [sp, #16]
20001b26:	e5b9      	b.n	2000169c <DAP_ProcessCommand+0x564>
20001b28:	68b9      	ldr	r1, [r7, #8]
20001b2a:	9a06      	ldr	r2, [sp, #24]
20001b2c:	0a08      	lsrs	r0, r1, #8
20001b2e:	7011      	strb	r1, [r2, #0]
20001b30:	7050      	strb	r0, [r2, #1]
20001b32:	0c08      	lsrs	r0, r1, #16
20001b34:	0e09      	lsrs	r1, r1, #24
20001b36:	70d1      	strb	r1, [r2, #3]
20001b38:	2100      	movs	r1, #0
20001b3a:	7090      	strb	r0, [r2, #2]
20001b3c:	9107      	str	r1, [sp, #28]
20001b3e:	3204      	adds	r2, #4
20001b40:	3101      	adds	r1, #1
20001b42:	4688      	mov	r8, r1
20001b44:	9206      	str	r2, [sp, #24]
20001b46:	0019      	movs	r1, r3
20001b48:	e5dd      	b.n	20001706 <DAP_ProcessCommand+0x5ce>
20001b4a:	2300      	movs	r3, #0
20001b4c:	0035      	movs	r5, r6
20001b4e:	0002      	movs	r2, r0
20001b50:	465e      	mov	r6, fp
20001b52:	4698      	mov	r8, r3
20001b54:	e5a2      	b.n	2000169c <DAP_ProcessCommand+0x564>
20001b56:	464a      	mov	r2, r9
20001b58:	4213      	tst	r3, r2
20001b5a:	d017      	beq.n	20001b8c <DAP_ProcessCommand+0xa54>
20001b5c:	8a3a      	ldrh	r2, [r7, #16]
20001b5e:	4683      	mov	fp, r0
20001b60:	0014      	movs	r4, r2
20001b62:	4698      	mov	r8, r3
20001b64:	e007      	b.n	20001b76 <DAP_ProcessCommand+0xa3e>
20001b66:	2c00      	cmp	r4, #0
20001b68:	d100      	bne.n	20001b6c <DAP_ProcessCommand+0xa34>
20001b6a:	e08b      	b.n	20001c84 <DAP_ProcessCommand+0xb4c>
20001b6c:	782b      	ldrb	r3, [r5, #0]
20001b6e:	3c01      	subs	r4, #1
20001b70:	2b00      	cmp	r3, #0
20001b72:	d000      	beq.n	20001b76 <DAP_ProcessCommand+0xa3e>
20001b74:	e086      	b.n	20001c84 <DAP_ProcessCommand+0xb4c>
20001b76:	2100      	movs	r1, #0
20001b78:	4648      	mov	r0, r9
20001b7a:	f7ff f89d 	bl	20000cb8 <SWD_Transfer>
20001b7e:	2802      	cmp	r0, #2
20001b80:	d0f1      	beq.n	20001b66 <DAP_ProcessCommand+0xa2e>
20001b82:	4643      	mov	r3, r8
20001b84:	465c      	mov	r4, fp
20001b86:	2801      	cmp	r0, #1
20001b88:	d000      	beq.n	20001b8c <DAP_ProcessCommand+0xa54>
20001b8a:	e07c      	b.n	20001c86 <DAP_ProcessCommand+0xb4e>
20001b8c:	2000      	movs	r0, #0
20001b8e:	4683      	mov	fp, r0
20001b90:	a80b      	add	r0, sp, #44	; 0x2c
20001b92:	46d8      	mov	r8, fp
20001b94:	1d32      	adds	r2, r6, #4
20001b96:	46b3      	mov	fp, r6
20001b98:	9704      	str	r7, [sp, #16]
20001b9a:	002e      	movs	r6, r5
20001b9c:	464f      	mov	r7, r9
20001b9e:	46a1      	mov	r9, r4
20001ba0:	0004      	movs	r4, r0
20001ba2:	9901      	ldr	r1, [sp, #4]
20001ba4:	9305      	str	r3, [sp, #20]
20001ba6:	3901      	subs	r1, #1
20001ba8:	9202      	str	r2, [sp, #8]
20001baa:	2900      	cmp	r1, #0
20001bac:	d030      	beq.n	20001c10 <DAP_ProcessCommand+0xad8>
20001bae:	9b04      	ldr	r3, [sp, #16]
20001bb0:	8a1d      	ldrh	r5, [r3, #16]
20001bb2:	9103      	str	r1, [sp, #12]
20001bb4:	9201      	str	r2, [sp, #4]
20001bb6:	e005      	b.n	20001bc4 <DAP_ProcessCommand+0xa8c>
20001bb8:	2d00      	cmp	r5, #0
20001bba:	d01f      	beq.n	20001bfc <DAP_ProcessCommand+0xac4>
20001bbc:	7833      	ldrb	r3, [r6, #0]
20001bbe:	3d01      	subs	r5, #1
20001bc0:	2b00      	cmp	r3, #0
20001bc2:	d11b      	bne.n	20001bfc <DAP_ProcessCommand+0xac4>
20001bc4:	0021      	movs	r1, r4
20001bc6:	0038      	movs	r0, r7
20001bc8:	f7ff f876 	bl	20000cb8 <SWD_Transfer>
20001bcc:	2802      	cmp	r0, #2
20001bce:	d0f3      	beq.n	20001bb8 <DAP_ProcessCommand+0xa80>
20001bd0:	9903      	ldr	r1, [sp, #12]
20001bd2:	9a01      	ldr	r2, [sp, #4]
20001bd4:	2801      	cmp	r0, #1
20001bd6:	d112      	bne.n	20001bfe <DAP_ProcessCommand+0xac6>
20001bd8:	980b      	ldr	r0, [sp, #44]	; 0x2c
20001bda:	9b02      	ldr	r3, [sp, #8]
20001bdc:	0a05      	lsrs	r5, r0, #8
20001bde:	7010      	strb	r0, [r2, #0]
20001be0:	7055      	strb	r5, [r2, #1]
20001be2:	0c05      	lsrs	r5, r0, #16
20001be4:	0e00      	lsrs	r0, r0, #24
20001be6:	7095      	strb	r5, [r2, #2]
20001be8:	70d8      	strb	r0, [r3, #3]
20001bea:	2301      	movs	r3, #1
20001bec:	469c      	mov	ip, r3
20001bee:	3204      	adds	r2, #4
20001bf0:	44e0      	add	r8, ip
20001bf2:	1e48      	subs	r0, r1, #1
20001bf4:	2900      	cmp	r1, #0
20001bf6:	d03a      	beq.n	20001c6e <DAP_ProcessCommand+0xb36>
20001bf8:	0001      	movs	r1, r0
20001bfa:	e7d5      	b.n	20001ba8 <DAP_ProcessCommand+0xa70>
20001bfc:	9a01      	ldr	r2, [sp, #4]
20001bfe:	4643      	mov	r3, r8
20001c00:	0a19      	lsrs	r1, r3, #8
20001c02:	b2dd      	uxtb	r5, r3
20001c04:	4653      	mov	r3, sl
20001c06:	464c      	mov	r4, r9
20001c08:	465e      	mov	r6, fp
20001c0a:	b2c9      	uxtb	r1, r1
20001c0c:	1ad2      	subs	r2, r2, r3
20001c0e:	e718      	b.n	20001a42 <DAP_ProcessCommand+0x90a>
20001c10:	2301      	movs	r3, #1
20001c12:	423b      	tst	r3, r7
20001c14:	d0cb      	beq.n	20001bae <DAP_ProcessCommand+0xa76>
20001c16:	270e      	movs	r7, #14
20001c18:	e7c9      	b.n	20001bae <DAP_ProcessCommand+0xa76>
20001c1a:	2203      	movs	r2, #3
20001c1c:	2000      	movs	r0, #0
20001c1e:	2100      	movs	r1, #0
20001c20:	2500      	movs	r5, #0
20001c22:	e70e      	b.n	20001a42 <DAP_ProcessCommand+0x90a>
20001c24:	4c2a      	ldr	r4, [pc, #168]	; (20001cd0 <DAP_ProcessCommand+0xb98>)
20001c26:	e479      	b.n	2000151c <DAP_ProcessCommand+0x3e4>
20001c28:	9b07      	ldr	r3, [sp, #28]
20001c2a:	2b00      	cmp	r3, #0
20001c2c:	d100      	bne.n	20001c30 <DAP_ProcessCommand+0xaf8>
20001c2e:	e581      	b.n	20001734 <DAP_ProcessCommand+0x5fc>
20001c30:	8a3c      	ldrh	r4, [r7, #16]
20001c32:	e005      	b.n	20001c40 <DAP_ProcessCommand+0xb08>
20001c34:	2c00      	cmp	r4, #0
20001c36:	d009      	beq.n	20001c4c <DAP_ProcessCommand+0xb14>
20001c38:	782b      	ldrb	r3, [r5, #0]
20001c3a:	3c01      	subs	r4, #1
20001c3c:	2b00      	cmp	r3, #0
20001c3e:	d105      	bne.n	20001c4c <DAP_ProcessCommand+0xb14>
20001c40:	2100      	movs	r1, #0
20001c42:	200e      	movs	r0, #14
20001c44:	f7ff f838 	bl	20000cb8 <SWD_Transfer>
20001c48:	2802      	cmp	r0, #2
20001c4a:	d0f3      	beq.n	20001c34 <DAP_ProcessCommand+0xafc>
20001c4c:	9008      	str	r0, [sp, #32]
20001c4e:	e571      	b.n	20001734 <DAP_ProcessCommand+0x5fc>
20001c50:	b2c3      	uxtb	r3, r0
20001c52:	9308      	str	r3, [sp, #32]
20001c54:	e56e      	b.n	20001734 <DAP_ProcessCommand+0x5fc>
20001c56:	0888      	lsrs	r0, r1, #2
20001c58:	d001      	beq.n	20001c5e <DAP_ProcessCommand+0xb26>
20001c5a:	f7ff fc13 	bl	20001484 <DAP_ProcessCommand+0x34c>
20001c5e:	f7ff fbec 	bl	2000143a <DAP_ProcessCommand+0x302>
20001c62:	0888      	lsrs	r0, r1, #2
20001c64:	d001      	beq.n	20001c6a <DAP_ProcessCommand+0xb32>
20001c66:	f7ff fbe4 	bl	20001432 <DAP_ProcessCommand+0x2fa>
20001c6a:	f7ff fbe6 	bl	2000143a <DAP_ProcessCommand+0x302>
20001c6e:	4641      	mov	r1, r8
20001c70:	4650      	mov	r0, sl
20001c72:	9b05      	ldr	r3, [sp, #20]
20001c74:	b2cd      	uxtb	r5, r1
20001c76:	0a09      	lsrs	r1, r1, #8
20001c78:	1a12      	subs	r2, r2, r0
20001c7a:	464c      	mov	r4, r9
20001c7c:	465e      	mov	r6, fp
20001c7e:	0018      	movs	r0, r3
20001c80:	b2c9      	uxtb	r1, r1
20001c82:	e6de      	b.n	20001a42 <DAP_ProcessCommand+0x90a>
20001c84:	465c      	mov	r4, fp
20001c86:	2100      	movs	r1, #0
20001c88:	2203      	movs	r2, #3
20001c8a:	000d      	movs	r5, r1
20001c8c:	b2c0      	uxtb	r0, r0
20001c8e:	e6d8      	b.n	20001a42 <DAP_ProcessCommand+0x90a>
20001c90:	465b      	mov	r3, fp
20001c92:	b2dd      	uxtb	r5, r3
20001c94:	0a1b      	lsrs	r3, r3, #8
20001c96:	2203      	movs	r2, #3
20001c98:	b2d9      	uxtb	r1, r3
20001c9a:	e6d2      	b.n	20001a42 <DAP_ProcessCommand+0x90a>
20001c9c:	2300      	movs	r3, #0
20001c9e:	9104      	str	r1, [sp, #16]
20001ca0:	9302      	str	r3, [sp, #8]
20001ca2:	9308      	str	r3, [sp, #32]
20001ca4:	e546      	b.n	20001734 <DAP_ProcessCommand+0x5fc>
20001ca6:	0035      	movs	r5, r6
20001ca8:	9a05      	ldr	r2, [sp, #20]
20001caa:	465e      	mov	r6, fp
20001cac:	e4f6      	b.n	2000169c <DAP_ProcessCommand+0x564>
20001cae:	9a05      	ldr	r2, [sp, #20]
20001cb0:	e65d      	b.n	2000196e <DAP_ProcessCommand+0x836>
20001cb2:	4c08      	ldr	r4, [pc, #32]	; (20001cd4 <DAP_ProcessCommand+0xb9c>)
20001cb4:	7073      	strb	r3, [r6, #1]
20001cb6:	f7ff fa5a 	bl	2000116e <DAP_ProcessCommand+0x36>
20001cba:	46c0      	nop			; (mov r8, r8)
20001cbc:	2002058c 	.word	0x2002058c
20001cc0:	00060002 	.word	0x00060002
20001cc4:	20009d10 	.word	0x20009d10
20001cc8:	00020008 	.word	0x00020008
20001ccc:	00020006 	.word	0x00020006
20001cd0:	00030003 	.word	0x00030003
20001cd4:	00020002 	.word	0x00020002
20001cd8:	2d00      	cmp	r5, #0
20001cda:	d10e      	bne.n	20001cfa <DAP_ProcessCommand+0xbc2>
20001cdc:	0949      	lsrs	r1, r1, #5
20001cde:	2f00      	cmp	r7, #0
20001ce0:	d101      	bne.n	20001ce6 <DAP_ProcessCommand+0xbae>
20001ce2:	f7ff fbaa 	bl	2000143a <DAP_ProcessCommand+0x302>
20001ce6:	2900      	cmp	r1, #0
20001ce8:	d101      	bne.n	20001cee <DAP_ProcessCommand+0xbb6>
20001cea:	f7ff fba6 	bl	2000143a <DAP_ProcessCommand+0x302>
20001cee:	6a90      	ldr	r0, [r2, #40]	; 0x28
20001cf0:	1b00      	subs	r0, r0, r4
20001cf2:	4283      	cmp	r3, r0
20001cf4:	d8f7      	bhi.n	20001ce6 <DAP_ProcessCommand+0xbae>
20001cf6:	f7ff fba0 	bl	2000143a <DAP_ProcessCommand+0x302>
20001cfa:	0889      	lsrs	r1, r1, #2
20001cfc:	d101      	bne.n	20001d02 <DAP_ProcessCommand+0xbca>
20001cfe:	f7ff fb9c 	bl	2000143a <DAP_ProcessCommand+0x302>
20001d02:	6a91      	ldr	r1, [r2, #40]	; 0x28
20001d04:	1b09      	subs	r1, r1, r4
20001d06:	428b      	cmp	r3, r1
20001d08:	d8fb      	bhi.n	20001d02 <DAP_ProcessCommand+0xbca>
20001d0a:	f7ff fb96 	bl	2000143a <DAP_ProcessCommand+0x302>
20001d0e:	46c0      	nop			; (mov r8, r8)

20001d10 <DAP_ExecuteCommand>:
20001d10:	b5f8      	push	{r3, r4, r5, r6, r7, lr}
20001d12:	7803      	ldrb	r3, [r0, #0]
20001d14:	2b7f      	cmp	r3, #127	; 0x7f
20001d16:	d004      	beq.n	20001d22 <DAP_ExecuteCommand+0x12>
20001d18:	f7ff fa0e 	bl	20001138 <DAP_ProcessCommand>
20001d1c:	0005      	movs	r5, r0
20001d1e:	0028      	movs	r0, r5
20001d20:	bdf8      	pop	{r3, r4, r5, r6, r7, pc}
20001d22:	700b      	strb	r3, [r1, #0]
20001d24:	7844      	ldrb	r4, [r0, #1]
20001d26:	4d0a      	ldr	r5, [pc, #40]	; (20001d50 <DAP_ExecuteCommand+0x40>)
20001d28:	1c86      	adds	r6, r0, #2
20001d2a:	1c8f      	adds	r7, r1, #2
20001d2c:	704c      	strb	r4, [r1, #1]
20001d2e:	2c00      	cmp	r4, #0
20001d30:	d0f5      	beq.n	20001d1e <DAP_ExecuteCommand+0xe>
20001d32:	0039      	movs	r1, r7
20001d34:	0030      	movs	r0, r6
20001d36:	f7ff f9ff 	bl	20001138 <DAP_ProcessCommand>
20001d3a:	0c03      	lsrs	r3, r0, #16
20001d3c:	182d      	adds	r5, r5, r0
20001d3e:	0400      	lsls	r0, r0, #16
20001d40:	0c00      	lsrs	r0, r0, #16
20001d42:	3c01      	subs	r4, #1
20001d44:	18f6      	adds	r6, r6, r3
20001d46:	183f      	adds	r7, r7, r0
20001d48:	2c00      	cmp	r4, #0
20001d4a:	d1f2      	bne.n	20001d32 <DAP_ExecuteCommand+0x22>
20001d4c:	e7e7      	b.n	20001d1e <DAP_ExecuteCommand+0xe>
20001d4e:	46c0      	nop			; (mov r8, r8)
20001d50:	00020002 	.word	0x00020002

20001d54 <DAP_Setup>:
20001d54:	213d      	movs	r1, #61	; 0x3d
20001d56:	4b0d      	ldr	r3, [pc, #52]	; (20001d8c <DAP_Setup+0x38>)
20001d58:	b510      	push	{r4, lr}
20001d5a:	6059      	str	r1, [r3, #4]
20001d5c:	2100      	movs	r1, #0
20001d5e:	7319      	strb	r1, [r3, #12]
20001d60:	2200      	movs	r2, #0
20001d62:	2164      	movs	r1, #100	; 0x64
20001d64:	801a      	strh	r2, [r3, #0]
20001d66:	6119      	str	r1, [r3, #16]
20001d68:	615a      	str	r2, [r3, #20]
20001d6a:	200c      	movs	r0, #12
20001d6c:	3201      	adds	r2, #1
20001d6e:	395e      	subs	r1, #94	; 0x5e
20001d70:	831a      	strh	r2, [r3, #24]
20001d72:	f001 f9f5 	bl	20003160 <gpio_set_function>
20001d76:	2106      	movs	r1, #6
20001d78:	200e      	movs	r0, #14
20001d7a:	f001 f9f1 	bl	20003160 <gpio_set_function>
20001d7e:	2200      	movs	r2, #0
20001d80:	2101      	movs	r1, #1
20001d82:	200e      	movs	r0, #14
20001d84:	f001 fa0e 	bl	200031a4 <gpio_set_pulls>
20001d88:	bd10      	pop	{r4, pc}
20001d8a:	46c0      	nop			; (mov r8, r8)
20001d8c:	2000a604 	.word	0x2000a604

20001d90 <DAP_ProcessVendorCommand>:
20001d90:	7803      	ldrb	r3, [r0, #0]
20001d92:	4801      	ldr	r0, [pc, #4]	; (20001d98 <DAP_ProcessVendorCommand+0x8>)
20001d94:	700b      	strb	r3, [r1, #0]
20001d96:	4770      	bx	lr
20001d98:	00010001 	.word	0x00010001

20001d9c <lock_init>:
20001d9c:	4b02      	ldr	r3, [pc, #8]	; (20001da8 <lock_init+0xc>)
20001d9e:	469c      	mov	ip, r3
20001da0:	4461      	add	r1, ip
20001da2:	0089      	lsls	r1, r1, #2
20001da4:	6001      	str	r1, [r0, #0]
20001da6:	4770      	bx	lr
20001da8:	34000040 	.word	0x34000040

20001dac <mutex_init>:
20001dac:	b510      	push	{r4, lr}
20001dae:	0004      	movs	r4, r0
20001db0:	f000 fd3e 	bl	20002830 <next_striped_spin_lock_num>
20001db4:	0001      	movs	r1, r0
20001db6:	0020      	movs	r0, r4
20001db8:	f7ff fff0 	bl	20001d9c <lock_init>
20001dbc:	2301      	movs	r3, #1
20001dbe:	425b      	negs	r3, r3
20001dc0:	6063      	str	r3, [r4, #4]
20001dc2:	f3bf 8f5f 	dmb	sy
20001dc6:	bd10      	pop	{r4, pc}

20001dc8 <recursive_mutex_init>:
20001dc8:	b510      	push	{r4, lr}
20001dca:	0004      	movs	r4, r0
20001dcc:	f000 fd30 	bl	20002830 <next_striped_spin_lock_num>
20001dd0:	0001      	movs	r1, r0
20001dd2:	0020      	movs	r0, r4
20001dd4:	f7ff ffe2 	bl	20001d9c <lock_init>
20001dd8:	2301      	movs	r3, #1
20001dda:	425b      	negs	r3, r3
20001ddc:	6063      	str	r3, [r4, #4]
20001dde:	2300      	movs	r3, #0
20001de0:	7223      	strb	r3, [r4, #8]
20001de2:	f3bf 8f5f 	dmb	sy
20001de6:	bd10      	pop	{r4, pc}

20001de8 <critical_section_init>:
20001de8:	b510      	push	{r4, lr}
20001dea:	0004      	movs	r4, r0
20001dec:	2001      	movs	r0, #1
20001dee:	f000 fd2b 	bl	20002848 <spin_lock_claim_unused>
20001df2:	4b03      	ldr	r3, [pc, #12]	; (20001e00 <critical_section_init+0x18>)
20001df4:	18c3      	adds	r3, r0, r3
20001df6:	009b      	lsls	r3, r3, #2
20001df8:	6023      	str	r3, [r4, #0]
20001dfa:	f3bf 8f5f 	dmb	sy
20001dfe:	bd10      	pop	{r4, pc}
20001e00:	34000040 	.word	0x34000040

20001e04 <timer_pool_entry_comparator>:
20001e04:	6883      	ldr	r3, [r0, #8]
20001e06:	480b      	ldr	r0, [pc, #44]	; (20001e34 <timer_pool_entry_comparator+0x30>)
20001e08:	b510      	push	{r4, lr}
20001e0a:	4684      	mov	ip, r0
20001e0c:	4461      	add	r1, ip
20001e0e:	4462      	add	r2, ip
20001e10:	0112      	lsls	r2, r2, #4
20001e12:	0109      	lsls	r1, r1, #4
20001e14:	1859      	adds	r1, r3, r1
20001e16:	189b      	adds	r3, r3, r2
20001e18:	685c      	ldr	r4, [r3, #4]
20001e1a:	684a      	ldr	r2, [r1, #4]
20001e1c:	2001      	movs	r0, #1
20001e1e:	4294      	cmp	r4, r2
20001e20:	d801      	bhi.n	20001e26 <timer_pool_entry_comparator+0x22>
20001e22:	d002      	beq.n	20001e2a <timer_pool_entry_comparator+0x26>
20001e24:	2000      	movs	r0, #0
20001e26:	b2c0      	uxtb	r0, r0
20001e28:	bd10      	pop	{r4, pc}
20001e2a:	681a      	ldr	r2, [r3, #0]
20001e2c:	680b      	ldr	r3, [r1, #0]
20001e2e:	429a      	cmp	r2, r3
20001e30:	d8f9      	bhi.n	20001e26 <timer_pool_entry_comparator+0x22>
20001e32:	e7f7      	b.n	20001e24 <timer_pool_entry_comparator+0x20>
20001e34:	0fffffff 	.word	0x0fffffff

20001e38 <sleep_until_callback>:
20001e38:	4807      	ldr	r0, [pc, #28]	; (20001e58 <sleep_until_callback+0x20>)
20001e3a:	b510      	push	{r4, lr}
20001e3c:	6802      	ldr	r2, [r0, #0]
20001e3e:	f3ef 8110 	mrs	r1, PRIMASK
20001e42:	b672      	cpsid	i
20001e44:	6813      	ldr	r3, [r2, #0]
20001e46:	2b00      	cmp	r3, #0
20001e48:	d0fc      	beq.n	20001e44 <sleep_until_callback+0xc>
20001e4a:	f3bf 8f5f 	dmb	sy
20001e4e:	f004 ffe1 	bl	20006e14 <vPortLockInternalSpinUnlockWithNotify>
20001e52:	2000      	movs	r0, #0
20001e54:	2100      	movs	r1, #0
20001e56:	bd10      	pop	{r4, pc}
20001e58:	20010444 	.word	0x20010444

20001e5c <add_alarm_under_lock.isra.0>:
20001e5c:	b5f8      	push	{r3, r4, r5, r6, r7, lr}
20001e5e:	4657      	mov	r7, sl
20001e60:	4645      	mov	r5, r8
20001e62:	464e      	mov	r6, r9
20001e64:	46de      	mov	lr, fp
20001e66:	b5e0      	push	{r5, r6, r7, lr}
20001e68:	4698      	mov	r8, r3
20001e6a:	ab0c      	add	r3, sp, #48	; 0x30
20001e6c:	781c      	ldrb	r4, [r3, #0]
20001e6e:	ab0d      	add	r3, sp, #52	; 0x34
20001e70:	781b      	ldrb	r3, [r3, #0]
20001e72:	0007      	movs	r7, r0
20001e74:	4691      	mov	r9, r2
20001e76:	469a      	mov	sl, r3
20001e78:	6805      	ldr	r5, [r0, #0]
20001e7a:	2c00      	cmp	r4, #0
20001e7c:	d15e      	bne.n	20001f3c <add_alarm_under_lock.isra.0+0xe0>
20001e7e:	7bac      	ldrb	r4, [r5, #14]
20001e80:	2c00      	cmp	r4, #0
20001e82:	d03b      	beq.n	20001efc <add_alarm_under_lock.isra.0+0xa0>
20001e84:	0066      	lsls	r6, r4, #1
20001e86:	6829      	ldr	r1, [r5, #0]
20001e88:	1936      	adds	r6, r6, r4
20001e8a:	3e03      	subs	r6, #3
20001e8c:	1989      	adds	r1, r1, r6
20001e8e:	784b      	ldrb	r3, [r1, #1]
20001e90:	73ab      	strb	r3, [r5, #14]
20001e92:	2b00      	cmp	r3, #0
20001e94:	d100      	bne.n	20001e98 <add_alarm_under_lock.isra.0+0x3c>
20001e96:	73eb      	strb	r3, [r5, #15]
20001e98:	2300      	movs	r3, #0
20001e9a:	708b      	strb	r3, [r1, #2]
20001e9c:	704b      	strb	r3, [r1, #1]
20001e9e:	700b      	strb	r3, [r1, #0]
20001ea0:	4b2d      	ldr	r3, [pc, #180]	; (20001f58 <add_alarm_under_lock.isra.0+0xfc>)
20001ea2:	18e2      	adds	r2, r4, r3
20001ea4:	68bb      	ldr	r3, [r7, #8]
20001ea6:	0112      	lsls	r2, r2, #4
20001ea8:	189b      	adds	r3, r3, r2
20001eaa:	464a      	mov	r2, r9
20001eac:	601a      	str	r2, [r3, #0]
20001eae:	4642      	mov	r2, r8
20001eb0:	605a      	str	r2, [r3, #4]
20001eb2:	9a0a      	ldr	r2, [sp, #40]	; 0x28
20001eb4:	609a      	str	r2, [r3, #8]
20001eb6:	9a0b      	ldr	r2, [sp, #44]	; 0x2c
20001eb8:	60da      	str	r2, [r3, #12]
20001eba:	2300      	movs	r3, #0
20001ebc:	708b      	strb	r3, [r1, #2]
20001ebe:	704b      	strb	r3, [r1, #1]
20001ec0:	700b      	strb	r3, [r1, #0]
20001ec2:	7b6b      	ldrb	r3, [r5, #13]
20001ec4:	469b      	mov	fp, r3
20001ec6:	2b00      	cmp	r3, #0
20001ec8:	d02b      	beq.n	20001f22 <add_alarm_under_lock.isra.0+0xc6>
20001eca:	0022      	movs	r2, r4
20001ecc:	4659      	mov	r1, fp
20001ece:	68a8      	ldr	r0, [r5, #8]
20001ed0:	686b      	ldr	r3, [r5, #4]
20001ed2:	4798      	blx	r3
20001ed4:	682a      	ldr	r2, [r5, #0]
20001ed6:	2800      	cmp	r0, #0
20001ed8:	d016      	beq.n	20001f08 <add_alarm_under_lock.isra.0+0xac>
20001eda:	465b      	mov	r3, fp
20001edc:	4658      	mov	r0, fp
20001ede:	005b      	lsls	r3, r3, #1
20001ee0:	445b      	add	r3, fp
20001ee2:	1996      	adds	r6, r2, r6
20001ee4:	3b03      	subs	r3, #3
20001ee6:	70b0      	strb	r0, [r6, #2]
20001ee8:	18d1      	adds	r1, r2, r3
20001eea:	5cd3      	ldrb	r3, [r2, r3]
20001eec:	2b00      	cmp	r3, #0
20001eee:	d000      	beq.n	20001ef2 <add_alarm_under_lock.isra.0+0x96>
20001ef0:	7073      	strb	r3, [r6, #1]
20001ef2:	465b      	mov	r3, fp
20001ef4:	700c      	strb	r4, [r1, #0]
20001ef6:	736b      	strb	r3, [r5, #13]
20001ef8:	455c      	cmp	r4, fp
20001efa:	d013      	beq.n	20001f24 <add_alarm_under_lock.isra.0+0xc8>
20001efc:	bcf0      	pop	{r4, r5, r6, r7}
20001efe:	46bb      	mov	fp, r7
20001f00:	46b2      	mov	sl, r6
20001f02:	46a9      	mov	r9, r5
20001f04:	46a0      	mov	r8, r4
20001f06:	bdf8      	pop	{r3, r4, r5, r6, r7, pc}
20001f08:	465b      	mov	r3, fp
20001f0a:	005b      	lsls	r3, r3, #1
20001f0c:	445b      	add	r3, fp
20001f0e:	3b03      	subs	r3, #3
20001f10:	18d3      	adds	r3, r2, r3
20001f12:	709c      	strb	r4, [r3, #2]
20001f14:	1991      	adds	r1, r2, r6
20001f16:	5d92      	ldrb	r2, [r2, r6]
20001f18:	2a00      	cmp	r2, #0
20001f1a:	d000      	beq.n	20001f1e <add_alarm_under_lock.isra.0+0xc2>
20001f1c:	705a      	strb	r2, [r3, #1]
20001f1e:	465b      	mov	r3, fp
20001f20:	700b      	strb	r3, [r1, #0]
20001f22:	736c      	strb	r4, [r5, #13]
20001f24:	464a      	mov	r2, r9
20001f26:	4643      	mov	r3, r8
20001f28:	7d38      	ldrb	r0, [r7, #20]
20001f2a:	f000 fb59 	bl	200025e0 <hardware_alarm_set_target>
20001f2e:	1e05      	subs	r5, r0, #0
20001f30:	d10a      	bne.n	20001f48 <add_alarm_under_lock.isra.0+0xec>
20001f32:	9b0e      	ldr	r3, [sp, #56]	; 0x38
20001f34:	2b00      	cmp	r3, #0
20001f36:	d0e1      	beq.n	20001efc <add_alarm_under_lock.isra.0+0xa0>
20001f38:	701d      	strb	r5, [r3, #0]
20001f3a:	e7df      	b.n	20001efc <add_alarm_under_lock.isra.0+0xa0>
20001f3c:	0066      	lsls	r6, r4, #1
20001f3e:	6829      	ldr	r1, [r5, #0]
20001f40:	1936      	adds	r6, r6, r4
20001f42:	3e03      	subs	r6, #3
20001f44:	1989      	adds	r1, r1, r6
20001f46:	e7ab      	b.n	20001ea0 <add_alarm_under_lock.isra.0+0x44>
20001f48:	4653      	mov	r3, sl
20001f4a:	2b00      	cmp	r3, #0
20001f4c:	d1f1      	bne.n	20001f32 <add_alarm_under_lock.isra.0+0xd6>
20001f4e:	0021      	movs	r1, r4
20001f50:	6838      	ldr	r0, [r7, #0]
20001f52:	f001 f8c9 	bl	200030e8 <ph_remove_and_free_node>
20001f56:	e7ec      	b.n	20001f32 <add_alarm_under_lock.isra.0+0xd6>
20001f58:	0fffffff 	.word	0x0fffffff

20001f5c <alarm_pool_alarm_callback>:
20001f5c:	b5f0      	push	{r4, r5, r6, r7, lr}
20001f5e:	46de      	mov	lr, fp
20001f60:	4657      	mov	r7, sl
20001f62:	464e      	mov	r6, r9
20001f64:	4645      	mov	r5, r8
20001f66:	2300      	movs	r3, #0
20001f68:	b5e0      	push	{r5, r6, r7, lr}
20001f6a:	b08b      	sub	sp, #44	; 0x2c
20001f6c:	9308      	str	r3, [sp, #32]
20001f6e:	4b68      	ldr	r3, [pc, #416]	; (20002110 <alarm_pool_alarm_callback+0x1b4>)
20001f70:	0082      	lsls	r2, r0, #2
20001f72:	58d4      	ldr	r4, [r2, r3]
20001f74:	2300      	movs	r3, #0
20001f76:	469b      	mov	fp, r3
20001f78:	9009      	str	r0, [sp, #36]	; 0x24
20001f7a:	f000 faad 	bl	200024d8 <time_us_64>
20001f7e:	0002      	movs	r2, r0
20001f80:	000b      	movs	r3, r1
20001f82:	6860      	ldr	r0, [r4, #4]
20001f84:	f3ef 8a10 	mrs	sl, PRIMASK
20001f88:	b672      	cpsid	i
20001f8a:	4656      	mov	r6, sl
20001f8c:	6801      	ldr	r1, [r0, #0]
20001f8e:	2900      	cmp	r1, #0
20001f90:	d0fc      	beq.n	20001f8c <alarm_pool_alarm_callback+0x30>
20001f92:	46b2      	mov	sl, r6
20001f94:	f3bf 8f5f 	dmb	sy
20001f98:	6821      	ldr	r1, [r4, #0]
20001f9a:	7b4f      	ldrb	r7, [r1, #13]
20001f9c:	468c      	mov	ip, r1
20001f9e:	2f00      	cmp	r7, #0
20001fa0:	d02e      	beq.n	20002000 <alarm_pool_alarm_callback+0xa4>
20001fa2:	68a5      	ldr	r5, [r4, #8]
20001fa4:	495b      	ldr	r1, [pc, #364]	; (20002114 <alarm_pool_alarm_callback+0x1b8>)
20001fa6:	46a9      	mov	r9, r5
20001fa8:	1879      	adds	r1, r7, r1
20001faa:	0109      	lsls	r1, r1, #4
20001fac:	4489      	add	r9, r1
20001fae:	4649      	mov	r1, r9
20001fb0:	6808      	ldr	r0, [r1, #0]
20001fb2:	6849      	ldr	r1, [r1, #4]
20001fb4:	0005      	movs	r5, r0
20001fb6:	000e      	movs	r6, r1
20001fb8:	1aad      	subs	r5, r5, r2
20001fba:	419e      	sbcs	r6, r3
20001fbc:	2e00      	cmp	r6, #0
20001fbe:	dd5f      	ble.n	20002080 <alarm_pool_alarm_callback+0x124>
20001fc0:	0002      	movs	r2, r0
20001fc2:	000b      	movs	r3, r1
20001fc4:	9809      	ldr	r0, [sp, #36]	; 0x24
20001fc6:	f000 fb0b 	bl	200025e0 <hardware_alarm_set_target>
20001fca:	2300      	movs	r3, #0
20001fcc:	2200      	movs	r2, #0
20001fce:	4699      	mov	r9, r3
20001fd0:	2300      	movs	r3, #0
20001fd2:	9206      	str	r2, [sp, #24]
20001fd4:	9307      	str	r3, [sp, #28]
20001fd6:	2300      	movs	r3, #0
20001fd8:	4698      	mov	r8, r3
20001fda:	6863      	ldr	r3, [r4, #4]
20001fdc:	f3bf 8f5f 	dmb	sy
20001fe0:	465a      	mov	r2, fp
20001fe2:	601a      	str	r2, [r3, #0]
20001fe4:	f38a 8810 	msr	PRIMASK, sl
20001fe8:	4643      	mov	r3, r8
20001fea:	2b00      	cmp	r3, #0
20001fec:	d112      	bne.n	20002014 <alarm_pool_alarm_callback+0xb8>
20001fee:	2800      	cmp	r0, #0
20001ff0:	d1c3      	bne.n	20001f7a <alarm_pool_alarm_callback+0x1e>
20001ff2:	b00b      	add	sp, #44	; 0x2c
20001ff4:	bcf0      	pop	{r4, r5, r6, r7}
20001ff6:	46bb      	mov	fp, r7
20001ff8:	46b2      	mov	sl, r6
20001ffa:	46a9      	mov	r9, r5
20001ffc:	46a0      	mov	r8, r4
20001ffe:	bdf0      	pop	{r4, r5, r6, r7, pc}
20002000:	2300      	movs	r3, #0
20002002:	2200      	movs	r2, #0
20002004:	4699      	mov	r9, r3
20002006:	2300      	movs	r3, #0
20002008:	9206      	str	r2, [sp, #24]
2000200a:	9307      	str	r3, [sp, #28]
2000200c:	2300      	movs	r3, #0
2000200e:	2000      	movs	r0, #0
20002010:	4698      	mov	r8, r3
20002012:	e7e2      	b.n	20001fda <alarm_pool_alarm_callback+0x7e>
20002014:	9b08      	ldr	r3, [sp, #32]
20002016:	4649      	mov	r1, r9
20002018:	0218      	lsls	r0, r3, #8
2000201a:	4338      	orrs	r0, r7
2000201c:	47c0      	blx	r8
2000201e:	6862      	ldr	r2, [r4, #4]
20002020:	0005      	movs	r5, r0
20002022:	000e      	movs	r6, r1
20002024:	f3ef 8a10 	mrs	sl, PRIMASK
20002028:	b672      	cpsid	i
2000202a:	6813      	ldr	r3, [r2, #0]
2000202c:	2b00      	cmp	r3, #0
2000202e:	d0fc      	beq.n	2000202a <alarm_pool_alarm_callback+0xce>
20002030:	f3bf 8f5f 	dmb	sy
20002034:	2e00      	cmp	r6, #0
20002036:	db41      	blt.n	200020bc <alarm_pool_alarm_callback+0x160>
20002038:	002b      	movs	r3, r5
2000203a:	4333      	orrs	r3, r6
2000203c:	d002      	beq.n	20002044 <alarm_pool_alarm_callback+0xe8>
2000203e:	6923      	ldr	r3, [r4, #16]
20002040:	2b00      	cmp	r3, #0
20002042:	d156      	bne.n	200020f2 <alarm_pool_alarm_callback+0x196>
20002044:	6823      	ldr	r3, [r4, #0]
20002046:	7bd9      	ldrb	r1, [r3, #15]
20002048:	2900      	cmp	r1, #0
2000204a:	d005      	beq.n	20002058 <alarm_pool_alarm_callback+0xfc>
2000204c:	681a      	ldr	r2, [r3, #0]
2000204e:	0048      	lsls	r0, r1, #1
20002050:	1841      	adds	r1, r0, r1
20002052:	1852      	adds	r2, r2, r1
20002054:	3a03      	subs	r2, #3
20002056:	7057      	strb	r7, [r2, #1]
20002058:	7b9a      	ldrb	r2, [r3, #14]
2000205a:	2a00      	cmp	r2, #0
2000205c:	d100      	bne.n	20002060 <alarm_pool_alarm_callback+0x104>
2000205e:	739f      	strb	r7, [r3, #14]
20002060:	73df      	strb	r7, [r3, #15]
20002062:	68e2      	ldr	r2, [r4, #12]
20002064:	3f01      	subs	r7, #1
20002066:	5dd3      	ldrb	r3, [r2, r7]
20002068:	3301      	adds	r3, #1
2000206a:	55d3      	strb	r3, [r2, r7]
2000206c:	465b      	mov	r3, fp
2000206e:	6123      	str	r3, [r4, #16]
20002070:	6863      	ldr	r3, [r4, #4]
20002072:	f3bf 8f5f 	dmb	sy
20002076:	465a      	mov	r2, fp
20002078:	601a      	str	r2, [r3, #0]
2000207a:	f38a 8810 	msr	PRIMASK, sl
2000207e:	e77c      	b.n	20001f7a <alarm_pool_alarm_callback+0x1e>
20002080:	2e00      	cmp	r6, #0
20002082:	d102      	bne.n	2000208a <alarm_pool_alarm_callback+0x12e>
20002084:	2d00      	cmp	r5, #0
20002086:	d000      	beq.n	2000208a <alarm_pool_alarm_callback+0x12e>
20002088:	e79a      	b.n	20001fc0 <alarm_pool_alarm_callback+0x64>
2000208a:	2100      	movs	r1, #0
2000208c:	4660      	mov	r0, ip
2000208e:	f000 ffa9 	bl	20002fe4 <ph_remove_head>
20002092:	464b      	mov	r3, r9
20002094:	681a      	ldr	r2, [r3, #0]
20002096:	685b      	ldr	r3, [r3, #4]
20002098:	9206      	str	r2, [sp, #24]
2000209a:	9307      	str	r3, [sp, #28]
2000209c:	464b      	mov	r3, r9
2000209e:	689b      	ldr	r3, [r3, #8]
200020a0:	4698      	mov	r8, r3
200020a2:	464b      	mov	r3, r9
200020a4:	68db      	ldr	r3, [r3, #12]
200020a6:	4699      	mov	r9, r3
200020a8:	68e3      	ldr	r3, [r4, #12]
200020aa:	19db      	adds	r3, r3, r7
200020ac:	3b01      	subs	r3, #1
200020ae:	781b      	ldrb	r3, [r3, #0]
200020b0:	9308      	str	r3, [sp, #32]
200020b2:	021b      	lsls	r3, r3, #8
200020b4:	4303      	orrs	r3, r0
200020b6:	6123      	str	r3, [r4, #16]
200020b8:	2000      	movs	r0, #0
200020ba:	e78e      	b.n	20001fda <alarm_pool_alarm_callback+0x7e>
200020bc:	6923      	ldr	r3, [r4, #16]
200020be:	2b00      	cmp	r3, #0
200020c0:	d0c0      	beq.n	20002044 <alarm_pool_alarm_callback+0xe8>
200020c2:	9a06      	ldr	r2, [sp, #24]
200020c4:	9b07      	ldr	r3, [sp, #28]
200020c6:	2180      	movs	r1, #128	; 0x80
200020c8:	1b52      	subs	r2, r2, r5
200020ca:	41b3      	sbcs	r3, r6
200020cc:	0609      	lsls	r1, r1, #24
200020ce:	428b      	cmp	r3, r1
200020d0:	d302      	bcc.n	200020d8 <alarm_pool_alarm_callback+0x17c>
200020d2:	2201      	movs	r2, #1
200020d4:	4b10      	ldr	r3, [pc, #64]	; (20002118 <alarm_pool_alarm_callback+0x1bc>)
200020d6:	4252      	negs	r2, r2
200020d8:	2100      	movs	r1, #0
200020da:	9104      	str	r1, [sp, #16]
200020dc:	3101      	adds	r1, #1
200020de:	9103      	str	r1, [sp, #12]
200020e0:	4649      	mov	r1, r9
200020e2:	9101      	str	r1, [sp, #4]
200020e4:	4641      	mov	r1, r8
200020e6:	0020      	movs	r0, r4
200020e8:	9702      	str	r7, [sp, #8]
200020ea:	9100      	str	r1, [sp, #0]
200020ec:	f7ff feb6 	bl	20001e5c <add_alarm_under_lock.isra.0>
200020f0:	e7bc      	b.n	2000206c <alarm_pool_alarm_callback+0x110>
200020f2:	f000 f9f1 	bl	200024d8 <time_us_64>
200020f6:	002a      	movs	r2, r5
200020f8:	0033      	movs	r3, r6
200020fa:	1812      	adds	r2, r2, r0
200020fc:	414b      	adcs	r3, r1
200020fe:	2180      	movs	r1, #128	; 0x80
20002100:	0609      	lsls	r1, r1, #24
20002102:	428b      	cmp	r3, r1
20002104:	d3e8      	bcc.n	200020d8 <alarm_pool_alarm_callback+0x17c>
20002106:	2201      	movs	r2, #1
20002108:	4b03      	ldr	r3, [pc, #12]	; (20002118 <alarm_pool_alarm_callback+0x1bc>)
2000210a:	4252      	negs	r2, r2
2000210c:	e7e4      	b.n	200020d8 <alarm_pool_alarm_callback+0x17c>
2000210e:	46c0      	nop			; (mov r8, r8)
20002110:	2001015c 	.word	0x2001015c
20002114:	0fffffff 	.word	0x0fffffff
20002118:	7fffffff 	.word	0x7fffffff

2000211c <alarm_pool_init_default>:
2000211c:	b510      	push	{r4, lr}
2000211e:	4c14      	ldr	r4, [pc, #80]	; (20002170 <alarm_pool_init_default+0x54>)
20002120:	6863      	ldr	r3, [r4, #4]
20002122:	2b00      	cmp	r3, #0
20002124:	d004      	beq.n	20002130 <alarm_pool_init_default+0x14>
20002126:	210a      	movs	r1, #10
20002128:	4812      	ldr	r0, [pc, #72]	; (20002174 <alarm_pool_init_default+0x58>)
2000212a:	f7ff fe37 	bl	20001d9c <lock_init>
2000212e:	bd10      	pop	{r4, pc}
20002130:	0023      	movs	r3, r4
20002132:	4a11      	ldr	r2, [pc, #68]	; (20002178 <alarm_pool_init_default+0x5c>)
20002134:	2110      	movs	r1, #16
20002136:	6820      	ldr	r0, [r4, #0]
20002138:	f000 fe6a 	bl	20002e10 <ph_post_alloc_init>
2000213c:	2003      	movs	r0, #3
2000213e:	f000 f9bf 	bl	200024c0 <hardware_alarm_claim>
20002142:	2003      	movs	r0, #3
20002144:	f000 fab4 	bl	200026b0 <hardware_alarm_cancel>
20002148:	2003      	movs	r0, #3
2000214a:	490c      	ldr	r1, [pc, #48]	; (2000217c <alarm_pool_init_default+0x60>)
2000214c:	f000 fa02 	bl	20002554 <hardware_alarm_set_callback>
20002150:	f000 fb6e 	bl	20002830 <next_striped_spin_lock_num>
20002154:	4b0a      	ldr	r3, [pc, #40]	; (20002180 <alarm_pool_init_default+0x64>)
20002156:	469c      	mov	ip, r3
20002158:	2303      	movs	r3, #3
2000215a:	7523      	strb	r3, [r4, #20]
2000215c:	23d0      	movs	r3, #208	; 0xd0
2000215e:	061b      	lsls	r3, r3, #24
20002160:	681b      	ldr	r3, [r3, #0]
20002162:	4460      	add	r0, ip
20002164:	7563      	strb	r3, [r4, #21]
20002166:	4b07      	ldr	r3, [pc, #28]	; (20002184 <alarm_pool_init_default+0x68>)
20002168:	0080      	lsls	r0, r0, #2
2000216a:	6060      	str	r0, [r4, #4]
2000216c:	60dc      	str	r4, [r3, #12]
2000216e:	e7da      	b.n	20002126 <alarm_pool_init_default+0xa>
20002170:	2000a0f4 	.word	0x2000a0f4
20002174:	20010444 	.word	0x20010444
20002178:	20001e05 	.word	0x20001e05
2000217c:	20001f5d 	.word	0x20001f5d
20002180:	34000040 	.word	0x34000040
20002184:	2001015c 	.word	0x2001015c

20002188 <alarm_pool_get_default>:
20002188:	4800      	ldr	r0, [pc, #0]	; (2000218c <alarm_pool_get_default+0x4>)
2000218a:	4770      	bx	lr
2000218c:	2000a0f4 	.word	0x2000a0f4

20002190 <alarm_pool_add_alarm_at>:
20002190:	b5f0      	push	{r4, r5, r6, r7, lr}
20002192:	4657      	mov	r7, sl
20002194:	464e      	mov	r6, r9
20002196:	4645      	mov	r5, r8
20002198:	46de      	mov	lr, fp
2000219a:	b5e0      	push	{r5, r6, r7, lr}
2000219c:	b085      	sub	sp, #20
2000219e:	9301      	str	r3, [sp, #4]
200021a0:	ab10      	add	r3, sp, #64	; 0x40
200021a2:	781b      	ldrb	r3, [r3, #0]
200021a4:	0006      	movs	r6, r0
200021a6:	9303      	str	r3, [sp, #12]
200021a8:	2300      	movs	r3, #0
200021aa:	469a      	mov	sl, r3
200021ac:	4698      	mov	r8, r3
200021ae:	9200      	str	r2, [sp, #0]
200021b0:	6872      	ldr	r2, [r6, #4]
200021b2:	f3ef 8b10 	mrs	fp, PRIMASK
200021b6:	b672      	cpsid	i
200021b8:	6813      	ldr	r3, [r2, #0]
200021ba:	2b00      	cmp	r3, #0
200021bc:	d0fc      	beq.n	200021b8 <alarm_pool_add_alarm_at+0x28>
200021be:	f3bf 8f5f 	dmb	sy
200021c2:	6835      	ldr	r5, [r6, #0]
200021c4:	7bac      	ldrb	r4, [r5, #14]
200021c6:	2c00      	cmp	r4, #0
200021c8:	d100      	bne.n	200021cc <alarm_pool_add_alarm_at+0x3c>
200021ca:	e06f      	b.n	200022ac <alarm_pool_add_alarm_at+0x11c>
200021cc:	0067      	lsls	r7, r4, #1
200021ce:	682b      	ldr	r3, [r5, #0]
200021d0:	193f      	adds	r7, r7, r4
200021d2:	3f03      	subs	r7, #3
200021d4:	19db      	adds	r3, r3, r7
200021d6:	785a      	ldrb	r2, [r3, #1]
200021d8:	73aa      	strb	r2, [r5, #14]
200021da:	2a00      	cmp	r2, #0
200021dc:	d100      	bne.n	200021e0 <alarm_pool_add_alarm_at+0x50>
200021de:	73ea      	strb	r2, [r5, #15]
200021e0:	4a4b      	ldr	r2, [pc, #300]	; (20002310 <alarm_pool_add_alarm_at+0x180>)
200021e2:	18a1      	adds	r1, r4, r2
200021e4:	68b2      	ldr	r2, [r6, #8]
200021e6:	0109      	lsls	r1, r1, #4
200021e8:	1852      	adds	r2, r2, r1
200021ea:	9800      	ldr	r0, [sp, #0]
200021ec:	9901      	ldr	r1, [sp, #4]
200021ee:	6010      	str	r0, [r2, #0]
200021f0:	6051      	str	r1, [r2, #4]
200021f2:	990e      	ldr	r1, [sp, #56]	; 0x38
200021f4:	6091      	str	r1, [r2, #8]
200021f6:	990f      	ldr	r1, [sp, #60]	; 0x3c
200021f8:	60d1      	str	r1, [r2, #12]
200021fa:	4642      	mov	r2, r8
200021fc:	709a      	strb	r2, [r3, #2]
200021fe:	705a      	strb	r2, [r3, #1]
20002200:	701a      	strb	r2, [r3, #0]
20002202:	7b6b      	ldrb	r3, [r5, #13]
20002204:	4699      	mov	r9, r3
20002206:	2b00      	cmp	r3, #0
20002208:	d100      	bne.n	2000220c <alarm_pool_add_alarm_at+0x7c>
2000220a:	e070      	b.n	200022ee <alarm_pool_add_alarm_at+0x15e>
2000220c:	0022      	movs	r2, r4
2000220e:	4649      	mov	r1, r9
20002210:	68a8      	ldr	r0, [r5, #8]
20002212:	686b      	ldr	r3, [r5, #4]
20002214:	4798      	blx	r3
20002216:	682a      	ldr	r2, [r5, #0]
20002218:	2800      	cmp	r0, #0
2000221a:	d05b      	beq.n	200022d4 <alarm_pool_add_alarm_at+0x144>
2000221c:	464b      	mov	r3, r9
2000221e:	4648      	mov	r0, r9
20002220:	005b      	lsls	r3, r3, #1
20002222:	444b      	add	r3, r9
20002224:	19d7      	adds	r7, r2, r7
20002226:	3b03      	subs	r3, #3
20002228:	70b8      	strb	r0, [r7, #2]
2000222a:	18d1      	adds	r1, r2, r3
2000222c:	5cd3      	ldrb	r3, [r2, r3]
2000222e:	2b00      	cmp	r3, #0
20002230:	d000      	beq.n	20002234 <alarm_pool_add_alarm_at+0xa4>
20002232:	707b      	strb	r3, [r7, #1]
20002234:	464b      	mov	r3, r9
20002236:	700c      	strb	r4, [r1, #0]
20002238:	736b      	strb	r3, [r5, #13]
2000223a:	454c      	cmp	r4, r9
2000223c:	d058      	beq.n	200022f0 <alarm_pool_add_alarm_at+0x160>
2000223e:	68f3      	ldr	r3, [r6, #12]
20002240:	191b      	adds	r3, r3, r4
20002242:	3b01      	subs	r3, #1
20002244:	7818      	ldrb	r0, [r3, #0]
20002246:	6873      	ldr	r3, [r6, #4]
20002248:	f3bf 8f5f 	dmb	sy
2000224c:	4642      	mov	r2, r8
2000224e:	601a      	str	r2, [r3, #0]
20002250:	f38b 8810 	msr	PRIMASK, fp
20002254:	4653      	mov	r3, sl
20002256:	2b00      	cmp	r3, #0
20002258:	d108      	bne.n	2000226c <alarm_pool_add_alarm_at+0xdc>
2000225a:	0200      	lsls	r0, r0, #8
2000225c:	4320      	orrs	r0, r4
2000225e:	b005      	add	sp, #20
20002260:	bcf0      	pop	{r4, r5, r6, r7}
20002262:	46bb      	mov	fp, r7
20002264:	46b2      	mov	sl, r6
20002266:	46a9      	mov	r9, r5
20002268:	46a0      	mov	r8, r4
2000226a:	bdf0      	pop	{r4, r5, r6, r7, pc}
2000226c:	9b03      	ldr	r3, [sp, #12]
2000226e:	2b00      	cmp	r3, #0
20002270:	d04b      	beq.n	2000230a <alarm_pool_add_alarm_at+0x17a>
20002272:	9b0e      	ldr	r3, [sp, #56]	; 0x38
20002274:	2000      	movs	r0, #0
20002276:	990f      	ldr	r1, [sp, #60]	; 0x3c
20002278:	4798      	blx	r3
2000227a:	0003      	movs	r3, r0
2000227c:	0004      	movs	r4, r0
2000227e:	000d      	movs	r5, r1
20002280:	430b      	orrs	r3, r1
20002282:	d042      	beq.n	2000230a <alarm_pool_add_alarm_at+0x17a>
20002284:	2900      	cmp	r1, #0
20002286:	da1a      	bge.n	200022be <alarm_pool_add_alarm_at+0x12e>
20002288:	9a00      	ldr	r2, [sp, #0]
2000228a:	9b01      	ldr	r3, [sp, #4]
2000228c:	1b12      	subs	r2, r2, r4
2000228e:	41ab      	sbcs	r3, r5
20002290:	9200      	str	r2, [sp, #0]
20002292:	9301      	str	r3, [sp, #4]
20002294:	2280      	movs	r2, #128	; 0x80
20002296:	0612      	lsls	r2, r2, #24
20002298:	4293      	cmp	r3, r2
2000229a:	d304      	bcc.n	200022a6 <alarm_pool_add_alarm_at+0x116>
2000229c:	2301      	movs	r3, #1
2000229e:	4c1d      	ldr	r4, [pc, #116]	; (20002314 <alarm_pool_add_alarm_at+0x184>)
200022a0:	425b      	negs	r3, r3
200022a2:	9300      	str	r3, [sp, #0]
200022a4:	9401      	str	r4, [sp, #4]
200022a6:	9b03      	ldr	r3, [sp, #12]
200022a8:	469a      	mov	sl, r3
200022aa:	e781      	b.n	200021b0 <alarm_pool_add_alarm_at+0x20>
200022ac:	6873      	ldr	r3, [r6, #4]
200022ae:	f3bf 8f5f 	dmb	sy
200022b2:	601c      	str	r4, [r3, #0]
200022b4:	f38b 8810 	msr	PRIMASK, fp
200022b8:	2001      	movs	r0, #1
200022ba:	4240      	negs	r0, r0
200022bc:	e7cf      	b.n	2000225e <alarm_pool_add_alarm_at+0xce>
200022be:	f000 f90b 	bl	200024d8 <time_us_64>
200022c2:	2280      	movs	r2, #128	; 0x80
200022c4:	1824      	adds	r4, r4, r0
200022c6:	414d      	adcs	r5, r1
200022c8:	0612      	lsls	r2, r2, #24
200022ca:	9400      	str	r4, [sp, #0]
200022cc:	9501      	str	r5, [sp, #4]
200022ce:	4295      	cmp	r5, r2
200022d0:	d3e9      	bcc.n	200022a6 <alarm_pool_add_alarm_at+0x116>
200022d2:	e7e3      	b.n	2000229c <alarm_pool_add_alarm_at+0x10c>
200022d4:	464b      	mov	r3, r9
200022d6:	005b      	lsls	r3, r3, #1
200022d8:	444b      	add	r3, r9
200022da:	3b03      	subs	r3, #3
200022dc:	18d3      	adds	r3, r2, r3
200022de:	709c      	strb	r4, [r3, #2]
200022e0:	19d1      	adds	r1, r2, r7
200022e2:	5dd2      	ldrb	r2, [r2, r7]
200022e4:	2a00      	cmp	r2, #0
200022e6:	d000      	beq.n	200022ea <alarm_pool_add_alarm_at+0x15a>
200022e8:	705a      	strb	r2, [r3, #1]
200022ea:	464b      	mov	r3, r9
200022ec:	700b      	strb	r3, [r1, #0]
200022ee:	736c      	strb	r4, [r5, #13]
200022f0:	7d30      	ldrb	r0, [r6, #20]
200022f2:	9a00      	ldr	r2, [sp, #0]
200022f4:	9b01      	ldr	r3, [sp, #4]
200022f6:	f000 f973 	bl	200025e0 <hardware_alarm_set_target>
200022fa:	4682      	mov	sl, r0
200022fc:	2800      	cmp	r0, #0
200022fe:	d09e      	beq.n	2000223e <alarm_pool_add_alarm_at+0xae>
20002300:	0021      	movs	r1, r4
20002302:	6830      	ldr	r0, [r6, #0]
20002304:	f000 fef0 	bl	200030e8 <ph_remove_and_free_node>
20002308:	e799      	b.n	2000223e <alarm_pool_add_alarm_at+0xae>
2000230a:	2000      	movs	r0, #0
2000230c:	e7a7      	b.n	2000225e <alarm_pool_add_alarm_at+0xce>
2000230e:	46c0      	nop			; (mov r8, r8)
20002310:	0fffffff 	.word	0x0fffffff
20002314:	7fffffff 	.word	0x7fffffff

20002318 <best_effort_wfe_or_timeout>:
20002318:	b5f0      	push	{r4, r5, r6, r7, lr}
2000231a:	f3ef 8305 	mrs	r3, IPSR
2000231e:	46ce      	mov	lr, r9
20002320:	4647      	mov	r7, r8
20002322:	b580      	push	{r7, lr}
20002324:	0005      	movs	r5, r0
20002326:	000c      	movs	r4, r1
20002328:	b085      	sub	sp, #20
2000232a:	2b00      	cmp	r3, #0
2000232c:	d00d      	beq.n	2000234a <best_effort_wfe_or_timeout+0x32>
2000232e:	4a32      	ldr	r2, [pc, #200]	; (200023f8 <best_effort_wfe_or_timeout+0xe0>)
20002330:	2000      	movs	r0, #0
20002332:	6a53      	ldr	r3, [r2, #36]	; 0x24
20002334:	429c      	cmp	r4, r3
20002336:	d803      	bhi.n	20002340 <best_effort_wfe_or_timeout+0x28>
20002338:	6a92      	ldr	r2, [r2, #40]	; 0x28
2000233a:	3001      	adds	r0, #1
2000233c:	42aa      	cmp	r2, r5
2000233e:	d332      	bcc.n	200023a6 <best_effort_wfe_or_timeout+0x8e>
20002340:	b005      	add	sp, #20
20002342:	bcc0      	pop	{r6, r7}
20002344:	46b9      	mov	r9, r7
20002346:	46b0      	mov	r8, r6
20002348:	bdf0      	pop	{r4, r5, r6, r7, pc}
2000234a:	4e2c      	ldr	r6, [pc, #176]	; (200023fc <best_effort_wfe_or_timeout+0xe4>)
2000234c:	9302      	str	r3, [sp, #8]
2000234e:	9301      	str	r3, [sp, #4]
20002350:	4b2b      	ldr	r3, [pc, #172]	; (20002400 <best_effort_wfe_or_timeout+0xe8>)
20002352:	0002      	movs	r2, r0
20002354:	9300      	str	r3, [sp, #0]
20002356:	0030      	movs	r0, r6
20002358:	000b      	movs	r3, r1
2000235a:	f7ff ff19 	bl	20002190 <alarm_pool_add_alarm_at>
2000235e:	1e03      	subs	r3, r0, #0
20002360:	dde5      	ble.n	2000232e <best_effort_wfe_or_timeout+0x16>
20002362:	bf20      	wfe
20002364:	6871      	ldr	r1, [r6, #4]
20002366:	f3ef 8710 	mrs	r7, PRIMASK
2000236a:	b672      	cpsid	i
2000236c:	680a      	ldr	r2, [r1, #0]
2000236e:	2a00      	cmp	r2, #0
20002370:	d0fc      	beq.n	2000236c <best_effort_wfe_or_timeout+0x54>
20002372:	f3bf 8f5f 	dmb	sy
20002376:	b2da      	uxtb	r2, r3
20002378:	4694      	mov	ip, r2
2000237a:	6830      	ldr	r0, [r6, #0]
2000237c:	7b42      	ldrb	r2, [r0, #13]
2000237e:	4562      	cmp	r2, ip
20002380:	d016      	beq.n	200023b0 <best_effort_wfe_or_timeout+0x98>
20002382:	22ff      	movs	r2, #255	; 0xff
20002384:	6801      	ldr	r1, [r0, #0]
20002386:	401a      	ands	r2, r3
20002388:	4689      	mov	r9, r1
2000238a:	0051      	lsls	r1, r2, #1
2000238c:	4688      	mov	r8, r1
2000238e:	4649      	mov	r1, r9
20002390:	4490      	add	r8, r2
20002392:	4441      	add	r1, r8
20002394:	3903      	subs	r1, #3
20002396:	7889      	ldrb	r1, [r1, #2]
20002398:	2900      	cmp	r1, #0
2000239a:	d10b      	bne.n	200023b4 <best_effort_wfe_or_timeout+0x9c>
2000239c:	6932      	ldr	r2, [r6, #16]
2000239e:	4293      	cmp	r3, r2
200023a0:	d110      	bne.n	200023c4 <best_effort_wfe_or_timeout+0xac>
200023a2:	6131      	str	r1, [r6, #16]
200023a4:	e00e      	b.n	200023c4 <best_effort_wfe_or_timeout+0xac>
200023a6:	1ae3      	subs	r3, r4, r3
200023a8:	1e5a      	subs	r2, r3, #1
200023aa:	4193      	sbcs	r3, r2
200023ac:	b2d8      	uxtb	r0, r3
200023ae:	e7c7      	b.n	20002340 <best_effort_wfe_or_timeout+0x28>
200023b0:	22ff      	movs	r2, #255	; 0xff
200023b2:	401a      	ands	r2, r3
200023b4:	68f1      	ldr	r1, [r6, #12]
200023b6:	0a1b      	lsrs	r3, r3, #8
200023b8:	188a      	adds	r2, r1, r2
200023ba:	3a01      	subs	r2, #1
200023bc:	7812      	ldrb	r2, [r2, #0]
200023be:	b2db      	uxtb	r3, r3
200023c0:	429a      	cmp	r2, r3
200023c2:	d014      	beq.n	200023ee <best_effort_wfe_or_timeout+0xd6>
200023c4:	6873      	ldr	r3, [r6, #4]
200023c6:	f3bf 8f5f 	dmb	sy
200023ca:	2200      	movs	r2, #0
200023cc:	601a      	str	r2, [r3, #0]
200023ce:	f387 8810 	msr	PRIMASK, r7
200023d2:	4b09      	ldr	r3, [pc, #36]	; (200023f8 <best_effort_wfe_or_timeout+0xe0>)
200023d4:	2000      	movs	r0, #0
200023d6:	6a5a      	ldr	r2, [r3, #36]	; 0x24
200023d8:	4294      	cmp	r4, r2
200023da:	d8b1      	bhi.n	20002340 <best_effort_wfe_or_timeout+0x28>
200023dc:	6a9b      	ldr	r3, [r3, #40]	; 0x28
200023de:	3001      	adds	r0, #1
200023e0:	42ab      	cmp	r3, r5
200023e2:	d2ad      	bcs.n	20002340 <best_effort_wfe_or_timeout+0x28>
200023e4:	1aa4      	subs	r4, r4, r2
200023e6:	1e63      	subs	r3, r4, #1
200023e8:	419c      	sbcs	r4, r3
200023ea:	b2e0      	uxtb	r0, r4
200023ec:	e7a8      	b.n	20002340 <best_effort_wfe_or_timeout+0x28>
200023ee:	4661      	mov	r1, ip
200023f0:	f000 fe7a 	bl	200030e8 <ph_remove_and_free_node>
200023f4:	e7e6      	b.n	200023c4 <best_effort_wfe_or_timeout+0xac>
200023f6:	46c0      	nop			; (mov r8, r8)
200023f8:	40054000 	.word	0x40054000
200023fc:	2000a0f4 	.word	0x2000a0f4
20002400:	20001e39 	.word	0x20001e39

20002404 <hardware_alarm_irq_handler>:
20002404:	b5f0      	push	{r4, r5, r6, r7, lr}
20002406:	f3ef 8205 	mrs	r2, IPSR
2000240a:	46d6      	mov	lr, sl
2000240c:	464f      	mov	r7, r9
2000240e:	4646      	mov	r6, r8
20002410:	0010      	movs	r0, r2
20002412:	b5c0      	push	{r6, r7, lr}
20002414:	3810      	subs	r0, #16
20002416:	f3ef 8810 	mrs	r8, PRIMASK
2000241a:	b672      	cpsid	i
2000241c:	4c21      	ldr	r4, [pc, #132]	; (200024a4 <hardware_alarm_irq_handler+0xa0>)
2000241e:	6823      	ldr	r3, [r4, #0]
20002420:	2b00      	cmp	r3, #0
20002422:	d0fc      	beq.n	2000241e <hardware_alarm_irq_handler+0x1a>
20002424:	f3bf 8f5f 	dmb	sy
20002428:	2301      	movs	r3, #1
2000242a:	0019      	movs	r1, r3
2000242c:	4081      	lsls	r1, r0
2000242e:	4d1e      	ldr	r5, [pc, #120]	; (200024a8 <hardware_alarm_irq_handler+0xa4>)
20002430:	001f      	movs	r7, r3
20002432:	6369      	str	r1, [r5, #52]	; 0x34
20002434:	46aa      	mov	sl, r5
20002436:	4d1d      	ldr	r5, [pc, #116]	; (200024ac <hardware_alarm_irq_handler+0xa8>)
20002438:	6029      	str	r1, [r5, #0]
2000243a:	4d1d      	ldr	r5, [pc, #116]	; (200024b0 <hardware_alarm_irq_handler+0xac>)
2000243c:	782e      	ldrb	r6, [r5, #0]
2000243e:	46ac      	mov	ip, r5
20002440:	0035      	movs	r5, r6
20002442:	40c5      	lsrs	r5, r0
20002444:	402f      	ands	r7, r5
20002446:	422b      	tst	r3, r5
20002448:	d015      	beq.n	20002476 <hardware_alarm_irq_handler+0x72>
2000244a:	4653      	mov	r3, sl
2000244c:	6a5f      	ldr	r7, [r3, #36]	; 0x24
2000244e:	4b19      	ldr	r3, [pc, #100]	; (200024b4 <hardware_alarm_irq_handler+0xb0>)
20002450:	0085      	lsls	r5, r0, #2
20002452:	58eb      	ldr	r3, [r5, r3]
20002454:	429f      	cmp	r7, r3
20002456:	d318      	bcc.n	2000248a <hardware_alarm_irq_handler+0x86>
20002458:	4662      	mov	r2, ip
2000245a:	4b17      	ldr	r3, [pc, #92]	; (200024b8 <hardware_alarm_irq_handler+0xb4>)
2000245c:	438e      	bics	r6, r1
2000245e:	58eb      	ldr	r3, [r5, r3]
20002460:	7016      	strb	r6, [r2, #0]
20002462:	f3bf 8f5f 	dmb	sy
20002466:	2200      	movs	r2, #0
20002468:	6022      	str	r2, [r4, #0]
2000246a:	f388 8810 	msr	PRIMASK, r8
2000246e:	2b00      	cmp	r3, #0
20002470:	d006      	beq.n	20002480 <hardware_alarm_irq_handler+0x7c>
20002472:	4798      	blx	r3
20002474:	e004      	b.n	20002480 <hardware_alarm_irq_handler+0x7c>
20002476:	f3bf 8f5f 	dmb	sy
2000247a:	6027      	str	r7, [r4, #0]
2000247c:	f388 8810 	msr	PRIMASK, r8
20002480:	bce0      	pop	{r5, r6, r7}
20002482:	46ba      	mov	sl, r7
20002484:	46b1      	mov	r9, r6
20002486:	46a8      	mov	r8, r5
20002488:	bdf0      	pop	{r4, r5, r6, r7, pc}
2000248a:	4b0c      	ldr	r3, [pc, #48]	; (200024bc <hardware_alarm_irq_handler+0xb8>)
2000248c:	0092      	lsls	r2, r2, #2
2000248e:	469c      	mov	ip, r3
20002490:	4462      	add	r2, ip
20002492:	6813      	ldr	r3, [r2, #0]
20002494:	6013      	str	r3, [r2, #0]
20002496:	f3bf 8f5f 	dmb	sy
2000249a:	2300      	movs	r3, #0
2000249c:	6023      	str	r3, [r4, #0]
2000249e:	f388 8810 	msr	PRIMASK, r8
200024a2:	e7ed      	b.n	20002480 <hardware_alarm_irq_handler+0x7c>
200024a4:	d0000128 	.word	0xd0000128
200024a8:	40054000 	.word	0x40054000
200024ac:	4005703c 	.word	0x4005703c
200024b0:	20020595 	.word	0x20020595
200024b4:	20010448 	.word	0x20010448
200024b8:	2000fbd0 	.word	0x2000fbd0
200024bc:	40053fd0 	.word	0x40053fd0

200024c0 <hardware_alarm_claim>:
200024c0:	b510      	push	{r4, lr}
200024c2:	4b03      	ldr	r3, [pc, #12]	; (200024d0 <hardware_alarm_claim+0x10>)
200024c4:	0001      	movs	r1, r0
200024c6:	0018      	movs	r0, r3
200024c8:	4a02      	ldr	r2, [pc, #8]	; (200024d4 <hardware_alarm_claim+0x14>)
200024ca:	f000 f933 	bl	20002734 <hw_claim_or_assert>
200024ce:	bd10      	pop	{r4, pc}
200024d0:	20020592 	.word	0x20020592
200024d4:	20009d90 	.word	0x20009d90

200024d8 <time_us_64>:
200024d8:	4b03      	ldr	r3, [pc, #12]	; (200024e8 <time_us_64+0x10>)
200024da:	6a59      	ldr	r1, [r3, #36]	; 0x24
200024dc:	000a      	movs	r2, r1
200024de:	6a98      	ldr	r0, [r3, #40]	; 0x28
200024e0:	6a59      	ldr	r1, [r3, #36]	; 0x24
200024e2:	428a      	cmp	r2, r1
200024e4:	d1fa      	bne.n	200024dc <time_us_64+0x4>
200024e6:	4770      	bx	lr
200024e8:	40054000 	.word	0x40054000

200024ec <busy_wait_us>:
200024ec:	b570      	push	{r4, r5, r6, lr}
200024ee:	0004      	movs	r4, r0
200024f0:	000d      	movs	r5, r1
200024f2:	4a17      	ldr	r2, [pc, #92]	; (20002550 <busy_wait_us+0x64>)
200024f4:	6a53      	ldr	r3, [r2, #36]	; 0x24
200024f6:	0019      	movs	r1, r3
200024f8:	6a96      	ldr	r6, [r2, #40]	; 0x28
200024fa:	6a53      	ldr	r3, [r2, #36]	; 0x24
200024fc:	428b      	cmp	r3, r1
200024fe:	d1fa      	bne.n	200024f6 <busy_wait_us+0xa>
20002500:	0030      	movs	r0, r6
20002502:	0019      	movs	r1, r3
20002504:	1824      	adds	r4, r4, r0
20002506:	414d      	adcs	r5, r1
20002508:	42ab      	cmp	r3, r5
2000250a:	d816      	bhi.n	2000253a <busy_wait_us+0x4e>
2000250c:	d013      	beq.n	20002536 <busy_wait_us+0x4a>
2000250e:	4b10      	ldr	r3, [pc, #64]	; (20002550 <busy_wait_us+0x64>)
20002510:	002a      	movs	r2, r5
20002512:	6a5b      	ldr	r3, [r3, #36]	; 0x24
20002514:	429d      	cmp	r5, r3
20002516:	d903      	bls.n	20002520 <busy_wait_us+0x34>
20002518:	490d      	ldr	r1, [pc, #52]	; (20002550 <busy_wait_us+0x64>)
2000251a:	6a4b      	ldr	r3, [r1, #36]	; 0x24
2000251c:	4293      	cmp	r3, r2
2000251e:	d3fc      	bcc.n	2000251a <busy_wait_us+0x2e>
20002520:	4293      	cmp	r3, r2
20002522:	d107      	bne.n	20002534 <busy_wait_us+0x48>
20002524:	4a0a      	ldr	r2, [pc, #40]	; (20002550 <busy_wait_us+0x64>)
20002526:	e002      	b.n	2000252e <busy_wait_us+0x42>
20002528:	6a51      	ldr	r1, [r2, #36]	; 0x24
2000252a:	4299      	cmp	r1, r3
2000252c:	d102      	bne.n	20002534 <busy_wait_us+0x48>
2000252e:	6a91      	ldr	r1, [r2, #40]	; 0x28
20002530:	42a1      	cmp	r1, r4
20002532:	d3f9      	bcc.n	20002528 <busy_wait_us+0x3c>
20002534:	bd70      	pop	{r4, r5, r6, pc}
20002536:	42a6      	cmp	r6, r4
20002538:	d9e9      	bls.n	2000250e <busy_wait_us+0x22>
2000253a:	4b05      	ldr	r3, [pc, #20]	; (20002550 <busy_wait_us+0x64>)
2000253c:	6a5b      	ldr	r3, [r3, #36]	; 0x24
2000253e:	001c      	movs	r4, r3
20002540:	1c5a      	adds	r2, r3, #1
20002542:	d0ef      	beq.n	20002524 <busy_wait_us+0x38>
20002544:	2201      	movs	r2, #1
20002546:	2401      	movs	r4, #1
20002548:	4264      	negs	r4, r4
2000254a:	17e5      	asrs	r5, r4, #31
2000254c:	4252      	negs	r2, r2
2000254e:	e7e3      	b.n	20002518 <busy_wait_us+0x2c>
20002550:	40054000 	.word	0x40054000

20002554 <hardware_alarm_set_callback>:
20002554:	b570      	push	{r4, r5, r6, lr}
20002556:	0004      	movs	r4, r0
20002558:	000d      	movs	r5, r1
2000255a:	f3ef 8610 	mrs	r6, PRIMASK
2000255e:	b672      	cpsid	i
20002560:	4a1a      	ldr	r2, [pc, #104]	; (200025cc <hardware_alarm_set_callback+0x78>)
20002562:	6813      	ldr	r3, [r2, #0]
20002564:	2b00      	cmp	r3, #0
20002566:	d0fc      	beq.n	20002562 <hardware_alarm_set_callback+0xe>
20002568:	f3bf 8f5f 	dmb	sy
2000256c:	2d00      	cmp	r5, #0
2000256e:	d01b      	beq.n	200025a8 <hardware_alarm_set_callback+0x54>
20002570:	0020      	movs	r0, r4
20002572:	f000 f98d 	bl	20002890 <irq_get_vtable_handler>
20002576:	4916      	ldr	r1, [pc, #88]	; (200025d0 <hardware_alarm_set_callback+0x7c>)
20002578:	4281      	cmp	r1, r0
2000257a:	d00a      	beq.n	20002592 <hardware_alarm_set_callback+0x3e>
2000257c:	0020      	movs	r0, r4
2000257e:	f000 f98f 	bl	200028a0 <irq_set_exclusive_handler>
20002582:	2101      	movs	r1, #1
20002584:	0020      	movs	r0, r4
20002586:	f000 f971 	bl	2000286c <irq_set_enabled>
2000258a:	2301      	movs	r3, #1
2000258c:	40a3      	lsls	r3, r4
2000258e:	4a11      	ldr	r2, [pc, #68]	; (200025d4 <hardware_alarm_set_callback+0x80>)
20002590:	6013      	str	r3, [r2, #0]
20002592:	4b11      	ldr	r3, [pc, #68]	; (200025d8 <hardware_alarm_set_callback+0x84>)
20002594:	00a4      	lsls	r4, r4, #2
20002596:	50e5      	str	r5, [r4, r3]
20002598:	f3bf 8f5f 	dmb	sy
2000259c:	2200      	movs	r2, #0
2000259e:	4b0b      	ldr	r3, [pc, #44]	; (200025cc <hardware_alarm_set_callback+0x78>)
200025a0:	601a      	str	r2, [r3, #0]
200025a2:	f386 8810 	msr	PRIMASK, r6
200025a6:	bd70      	pop	{r4, r5, r6, pc}
200025a8:	2101      	movs	r1, #1
200025aa:	40a1      	lsls	r1, r4
200025ac:	4b0a      	ldr	r3, [pc, #40]	; (200025d8 <hardware_alarm_set_callback+0x84>)
200025ae:	00a2      	lsls	r2, r4, #2
200025b0:	50d5      	str	r5, [r2, r3]
200025b2:	4b0a      	ldr	r3, [pc, #40]	; (200025dc <hardware_alarm_set_callback+0x88>)
200025b4:	0020      	movs	r0, r4
200025b6:	781a      	ldrb	r2, [r3, #0]
200025b8:	438a      	bics	r2, r1
200025ba:	4905      	ldr	r1, [pc, #20]	; (200025d0 <hardware_alarm_set_callback+0x7c>)
200025bc:	701a      	strb	r2, [r3, #0]
200025be:	f000 fa93 	bl	20002ae8 <irq_remove_handler>
200025c2:	2100      	movs	r1, #0
200025c4:	0020      	movs	r0, r4
200025c6:	f000 f951 	bl	2000286c <irq_set_enabled>
200025ca:	e7e5      	b.n	20002598 <hardware_alarm_set_callback+0x44>
200025cc:	d0000128 	.word	0xd0000128
200025d0:	20002405 	.word	0x20002405
200025d4:	40056038 	.word	0x40056038
200025d8:	2000fbd0 	.word	0x2000fbd0
200025dc:	20020595 	.word	0x20020595

200025e0 <hardware_alarm_set_target>:
200025e0:	b5f0      	push	{r4, r5, r6, r7, lr}
200025e2:	464f      	mov	r7, r9
200025e4:	46d6      	mov	lr, sl
200025e6:	4646      	mov	r6, r8
200025e8:	b5c0      	push	{r6, r7, lr}
200025ea:	0007      	movs	r7, r0
200025ec:	4c2b      	ldr	r4, [pc, #172]	; (2000269c <hardware_alarm_set_target+0xbc>)
200025ee:	6a61      	ldr	r1, [r4, #36]	; 0x24
200025f0:	000d      	movs	r5, r1
200025f2:	6aa6      	ldr	r6, [r4, #40]	; 0x28
200025f4:	6a61      	ldr	r1, [r4, #36]	; 0x24
200025f6:	42a9      	cmp	r1, r5
200025f8:	d1fa      	bne.n	200025f0 <hardware_alarm_set_target+0x10>
200025fa:	428b      	cmp	r3, r1
200025fc:	d808      	bhi.n	20002610 <hardware_alarm_set_target+0x30>
200025fe:	d005      	beq.n	2000260c <hardware_alarm_set_target+0x2c>
20002600:	2001      	movs	r0, #1
20002602:	bce0      	pop	{r5, r6, r7}
20002604:	46ba      	mov	sl, r7
20002606:	46b1      	mov	r9, r6
20002608:	46a8      	mov	r8, r5
2000260a:	bdf0      	pop	{r4, r5, r6, r7, pc}
2000260c:	42b2      	cmp	r2, r6
2000260e:	d9f7      	bls.n	20002600 <hardware_alarm_set_target+0x20>
20002610:	f3ef 8a10 	mrs	sl, PRIMASK
20002614:	b672      	cpsid	i
20002616:	4822      	ldr	r0, [pc, #136]	; (200026a0 <hardware_alarm_set_target+0xc0>)
20002618:	6801      	ldr	r1, [r0, #0]
2000261a:	2900      	cmp	r1, #0
2000261c:	d0fc      	beq.n	20002618 <hardware_alarm_set_target+0x38>
2000261e:	f3bf 8f5f 	dmb	sy
20002622:	2501      	movs	r5, #1
20002624:	40bd      	lsls	r5, r7
20002626:	491f      	ldr	r1, [pc, #124]	; (200026a4 <hardware_alarm_set_target+0xc4>)
20002628:	4c1c      	ldr	r4, [pc, #112]	; (2000269c <hardware_alarm_set_target+0xbc>)
2000262a:	4688      	mov	r8, r1
2000262c:	7809      	ldrb	r1, [r1, #0]
2000262e:	4689      	mov	r9, r1
20002630:	4329      	orrs	r1, r5
20002632:	b2c9      	uxtb	r1, r1
20002634:	468c      	mov	ip, r1
20002636:	4641      	mov	r1, r8
20002638:	4660      	mov	r0, ip
2000263a:	7008      	strb	r0, [r1, #0]
2000263c:	1d39      	adds	r1, r7, #4
2000263e:	0089      	lsls	r1, r1, #2
20002640:	6365      	str	r5, [r4, #52]	; 0x34
20002642:	510a      	str	r2, [r1, r4]
20002644:	4918      	ldr	r1, [pc, #96]	; (200026a8 <hardware_alarm_set_target+0xc8>)
20002646:	00b8      	lsls	r0, r7, #2
20002648:	5043      	str	r3, [r0, r1]
2000264a:	6a21      	ldr	r1, [r4, #32]
2000264c:	2000      	movs	r0, #0
2000264e:	4229      	tst	r1, r5
20002650:	d019      	beq.n	20002686 <hardware_alarm_set_target+0xa6>
20002652:	6a61      	ldr	r1, [r4, #36]	; 0x24
20002654:	0008      	movs	r0, r1
20002656:	6aa6      	ldr	r6, [r4, #40]	; 0x28
20002658:	6a61      	ldr	r1, [r4, #36]	; 0x24
2000265a:	4281      	cmp	r1, r0
2000265c:	d1fa      	bne.n	20002654 <hardware_alarm_set_target+0x74>
2000265e:	428b      	cmp	r3, r1
20002660:	d819      	bhi.n	20002696 <hardware_alarm_set_target+0xb6>
20002662:	d101      	bne.n	20002668 <hardware_alarm_set_target+0x88>
20002664:	42b2      	cmp	r2, r6
20002666:	d816      	bhi.n	20002696 <hardware_alarm_set_target+0xb6>
20002668:	45cc      	cmp	ip, r9
2000266a:	d00b      	beq.n	20002684 <hardware_alarm_set_target+0xa4>
2000266c:	4b0b      	ldr	r3, [pc, #44]	; (2000269c <hardware_alarm_set_target+0xbc>)
2000266e:	221f      	movs	r2, #31
20002670:	621d      	str	r5, [r3, #32]
20002672:	635d      	str	r5, [r3, #52]	; 0x34
20002674:	2301      	movs	r3, #1
20002676:	403a      	ands	r2, r7
20002678:	4093      	lsls	r3, r2
2000267a:	4a0c      	ldr	r2, [pc, #48]	; (200026ac <hardware_alarm_set_target+0xcc>)
2000267c:	6013      	str	r3, [r2, #0]
2000267e:	4643      	mov	r3, r8
20002680:	464a      	mov	r2, r9
20002682:	701a      	strb	r2, [r3, #0]
20002684:	2001      	movs	r0, #1
20002686:	f3bf 8f5f 	dmb	sy
2000268a:	2200      	movs	r2, #0
2000268c:	4b04      	ldr	r3, [pc, #16]	; (200026a0 <hardware_alarm_set_target+0xc0>)
2000268e:	601a      	str	r2, [r3, #0]
20002690:	f38a 8810 	msr	PRIMASK, sl
20002694:	e7b5      	b.n	20002602 <hardware_alarm_set_target+0x22>
20002696:	2000      	movs	r0, #0
20002698:	e7f5      	b.n	20002686 <hardware_alarm_set_target+0xa6>
2000269a:	46c0      	nop			; (mov r8, r8)
2000269c:	40054000 	.word	0x40054000
200026a0:	d0000128 	.word	0xd0000128
200026a4:	20020595 	.word	0x20020595
200026a8:	20010448 	.word	0x20010448
200026ac:	e000e280 	.word	0xe000e280

200026b0 <hardware_alarm_cancel>:
200026b0:	f3ef 8c10 	mrs	ip, PRIMASK
200026b4:	b672      	cpsid	i
200026b6:	490a      	ldr	r1, [pc, #40]	; (200026e0 <hardware_alarm_cancel+0x30>)
200026b8:	680b      	ldr	r3, [r1, #0]
200026ba:	2b00      	cmp	r3, #0
200026bc:	d0fc      	beq.n	200026b8 <hardware_alarm_cancel+0x8>
200026be:	f3bf 8f5f 	dmb	sy
200026c2:	2301      	movs	r3, #1
200026c4:	4083      	lsls	r3, r0
200026c6:	4a07      	ldr	r2, [pc, #28]	; (200026e4 <hardware_alarm_cancel+0x34>)
200026c8:	4807      	ldr	r0, [pc, #28]	; (200026e8 <hardware_alarm_cancel+0x38>)
200026ca:	6213      	str	r3, [r2, #32]
200026cc:	7802      	ldrb	r2, [r0, #0]
200026ce:	439a      	bics	r2, r3
200026d0:	7002      	strb	r2, [r0, #0]
200026d2:	f3bf 8f5f 	dmb	sy
200026d6:	2300      	movs	r3, #0
200026d8:	600b      	str	r3, [r1, #0]
200026da:	f38c 8810 	msr	PRIMASK, ip
200026de:	4770      	bx	lr
200026e0:	d0000128 	.word	0xd0000128
200026e4:	40054000 	.word	0x40054000
200026e8:	20020595 	.word	0x20020595

200026ec <running_on_fpga>:
200026ec:	4b02      	ldr	r3, [pc, #8]	; (200026f8 <running_on_fpga+0xc>)
200026ee:	6818      	ldr	r0, [r3, #0]
200026f0:	0780      	lsls	r0, r0, #30
200026f2:	0fc0      	lsrs	r0, r0, #31
200026f4:	4770      	bx	lr
200026f6:	46c0      	nop			; (mov r8, r8)
200026f8:	4006c000 	.word	0x4006c000

200026fc <rp2040_chip_version>:
200026fc:	2380      	movs	r3, #128	; 0x80
200026fe:	05db      	lsls	r3, r3, #23
20002700:	6818      	ldr	r0, [r3, #0]
20002702:	0f00      	lsrs	r0, r0, #28
20002704:	4770      	bx	lr
20002706:	46c0      	nop			; (mov r8, r8)

20002708 <hw_claim_lock>:
20002708:	f3ef 8010 	mrs	r0, PRIMASK
2000270c:	b672      	cpsid	i
2000270e:	4a03      	ldr	r2, [pc, #12]	; (2000271c <hw_claim_lock+0x14>)
20002710:	6813      	ldr	r3, [r2, #0]
20002712:	2b00      	cmp	r3, #0
20002714:	d0fc      	beq.n	20002710 <hw_claim_lock+0x8>
20002716:	f3bf 8f5f 	dmb	sy
2000271a:	4770      	bx	lr
2000271c:	d000012c 	.word	0xd000012c

20002720 <hw_claim_unlock>:
20002720:	f3bf 8f5f 	dmb	sy
20002724:	2200      	movs	r2, #0
20002726:	4b02      	ldr	r3, [pc, #8]	; (20002730 <hw_claim_unlock+0x10>)
20002728:	601a      	str	r2, [r3, #0]
2000272a:	f380 8810 	msr	PRIMASK, r0
2000272e:	4770      	bx	lr
20002730:	d000012c 	.word	0xd000012c

20002734 <hw_claim_or_assert>:
20002734:	b570      	push	{r4, r5, r6, lr}
20002736:	f3ef 8c10 	mrs	ip, PRIMASK
2000273a:	b672      	cpsid	i
2000273c:	4d0d      	ldr	r5, [pc, #52]	; (20002774 <hw_claim_or_assert+0x40>)
2000273e:	682b      	ldr	r3, [r5, #0]
20002740:	2b00      	cmp	r3, #0
20002742:	d0fc      	beq.n	2000273e <hw_claim_or_assert+0xa>
20002744:	f3bf 8f5f 	dmb	sy
20002748:	2407      	movs	r4, #7
2000274a:	08cb      	lsrs	r3, r1, #3
2000274c:	18c6      	adds	r6, r0, r3
2000274e:	5cc0      	ldrb	r0, [r0, r3]
20002750:	2301      	movs	r3, #1
20002752:	400c      	ands	r4, r1
20002754:	40a3      	lsls	r3, r4
20002756:	001c      	movs	r4, r3
20002758:	4004      	ands	r4, r0
2000275a:	4203      	tst	r3, r0
2000275c:	d107      	bne.n	2000276e <hw_claim_or_assert+0x3a>
2000275e:	4318      	orrs	r0, r3
20002760:	7030      	strb	r0, [r6, #0]
20002762:	f3bf 8f5f 	dmb	sy
20002766:	602c      	str	r4, [r5, #0]
20002768:	f38c 8810 	msr	PRIMASK, ip
2000276c:	bd70      	pop	{r4, r5, r6, pc}
2000276e:	0010      	movs	r0, r2
20002770:	f001 f904 	bl	2000397c <panic>
20002774:	d000012c 	.word	0xd000012c

20002778 <hw_claim_unused_from_range>:
20002778:	b5f8      	push	{r3, r4, r5, r6, r7, lr}
2000277a:	4647      	mov	r7, r8
2000277c:	46ce      	mov	lr, r9
2000277e:	4688      	mov	r8, r1
20002780:	b580      	push	{r7, lr}
20002782:	f3ef 8c10 	mrs	ip, PRIMASK
20002786:	b672      	cpsid	i
20002788:	4d21      	ldr	r5, [pc, #132]	; (20002810 <hw_claim_unused_from_range+0x98>)
2000278a:	682c      	ldr	r4, [r5, #0]
2000278c:	2c00      	cmp	r4, #0
2000278e:	d0fc      	beq.n	2000278a <hw_claim_unused_from_range+0x12>
20002790:	f3bf 8f5f 	dmb	sy
20002794:	429a      	cmp	r2, r3
20002796:	d82c      	bhi.n	200027f2 <hw_claim_unused_from_range+0x7a>
20002798:	08d4      	lsrs	r4, r2, #3
2000279a:	2707      	movs	r7, #7
2000279c:	5d05      	ldrb	r5, [r0, r4]
2000279e:	1906      	adds	r6, r0, r4
200027a0:	2401      	movs	r4, #1
200027a2:	4017      	ands	r7, r2
200027a4:	40bc      	lsls	r4, r7
200027a6:	422c      	tst	r4, r5
200027a8:	d01f      	beq.n	200027ea <hw_claim_unused_from_range+0x72>
200027aa:	2107      	movs	r1, #7
200027ac:	2701      	movs	r7, #1
200027ae:	4689      	mov	r9, r1
200027b0:	e009      	b.n	200027c6 <hw_claim_unused_from_range+0x4e>
200027b2:	08d4      	lsrs	r4, r2, #3
200027b4:	5d05      	ldrb	r5, [r0, r4]
200027b6:	1906      	adds	r6, r0, r4
200027b8:	464c      	mov	r4, r9
200027ba:	0039      	movs	r1, r7
200027bc:	4014      	ands	r4, r2
200027be:	40a1      	lsls	r1, r4
200027c0:	000c      	movs	r4, r1
200027c2:	4229      	tst	r1, r5
200027c4:	d011      	beq.n	200027ea <hw_claim_unused_from_range+0x72>
200027c6:	3201      	adds	r2, #1
200027c8:	4293      	cmp	r3, r2
200027ca:	d2f2      	bcs.n	200027b2 <hw_claim_unused_from_range+0x3a>
200027cc:	2001      	movs	r0, #1
200027ce:	4240      	negs	r0, r0
200027d0:	f3bf 8f5f 	dmb	sy
200027d4:	2200      	movs	r2, #0
200027d6:	4b0e      	ldr	r3, [pc, #56]	; (20002810 <hw_claim_unused_from_range+0x98>)
200027d8:	601a      	str	r2, [r3, #0]
200027da:	f38c 8810 	msr	PRIMASK, ip
200027de:	2800      	cmp	r0, #0
200027e0:	db0f      	blt.n	20002802 <hw_claim_unused_from_range+0x8a>
200027e2:	bcc0      	pop	{r6, r7}
200027e4:	46b9      	mov	r9, r7
200027e6:	46b0      	mov	r8, r6
200027e8:	bdf8      	pop	{r3, r4, r5, r6, r7, pc}
200027ea:	4325      	orrs	r5, r4
200027ec:	0010      	movs	r0, r2
200027ee:	7035      	strb	r5, [r6, #0]
200027f0:	e7ee      	b.n	200027d0 <hw_claim_unused_from_range+0x58>
200027f2:	f3bf 8f5f 	dmb	sy
200027f6:	2300      	movs	r3, #0
200027f8:	602b      	str	r3, [r5, #0]
200027fa:	f38c 8810 	msr	PRIMASK, ip
200027fe:	2001      	movs	r0, #1
20002800:	4240      	negs	r0, r0
20002802:	4643      	mov	r3, r8
20002804:	2b00      	cmp	r3, #0
20002806:	d0ec      	beq.n	200027e2 <hw_claim_unused_from_range+0x6a>
20002808:	9808      	ldr	r0, [sp, #32]
2000280a:	f001 f8b7 	bl	2000397c <panic>
2000280e:	46c0      	nop			; (mov r8, r8)
20002810:	d000012c 	.word	0xd000012c

20002814 <spin_locks_reset>:
20002814:	2100      	movs	r1, #0
20002816:	4b04      	ldr	r3, [pc, #16]	; (20002828 <spin_locks_reset+0x14>)
20002818:	4a04      	ldr	r2, [pc, #16]	; (2000282c <spin_locks_reset+0x18>)
2000281a:	f3bf 8f5f 	dmb	sy
2000281e:	c302      	stmia	r3!, {r1}
20002820:	4293      	cmp	r3, r2
20002822:	d1fa      	bne.n	2000281a <spin_locks_reset+0x6>
20002824:	4770      	bx	lr
20002826:	46c0      	nop			; (mov r8, r8)
20002828:	d0000100 	.word	0xd0000100
2000282c:	d0000180 	.word	0xd0000180

20002830 <next_striped_spin_lock_num>:
20002830:	4a04      	ldr	r2, [pc, #16]	; (20002844 <next_striped_spin_lock_num+0x14>)
20002832:	7810      	ldrb	r0, [r2, #0]
20002834:	1c43      	adds	r3, r0, #1
20002836:	b2db      	uxtb	r3, r3
20002838:	2b17      	cmp	r3, #23
2000283a:	d900      	bls.n	2000283e <next_striped_spin_lock_num+0xe>
2000283c:	2310      	movs	r3, #16
2000283e:	7013      	strb	r3, [r2, #0]
20002840:	4770      	bx	lr
20002842:	46c0      	nop			; (mov r8, r8)
20002844:	2000a11c 	.word	0x2000a11c

20002848 <spin_lock_claim_unused>:
20002848:	b510      	push	{r4, lr}
2000284a:	4b06      	ldr	r3, [pc, #24]	; (20002864 <spin_lock_claim_unused+0x1c>)
2000284c:	4c06      	ldr	r4, [pc, #24]	; (20002868 <spin_lock_claim_unused+0x20>)
2000284e:	b082      	sub	sp, #8
20002850:	0001      	movs	r1, r0
20002852:	9300      	str	r3, [sp, #0]
20002854:	2218      	movs	r2, #24
20002856:	231f      	movs	r3, #31
20002858:	0020      	movs	r0, r4
2000285a:	f7ff ff8d 	bl	20002778 <hw_claim_unused_from_range>
2000285e:	b002      	add	sp, #8
20002860:	bd10      	pop	{r4, pc}
20002862:	46c0      	nop			; (mov r8, r8)
20002864:	20009db4 	.word	0x20009db4
20002868:	2000fcf4 	.word	0x2000fcf4

2000286c <irq_set_enabled>:
2000286c:	2301      	movs	r3, #1
2000286e:	4083      	lsls	r3, r0
20002870:	2900      	cmp	r1, #0
20002872:	d004      	beq.n	2000287e <irq_set_enabled+0x12>
20002874:	4a03      	ldr	r2, [pc, #12]	; (20002884 <irq_set_enabled+0x18>)
20002876:	6013      	str	r3, [r2, #0]
20002878:	4a03      	ldr	r2, [pc, #12]	; (20002888 <irq_set_enabled+0x1c>)
2000287a:	6013      	str	r3, [r2, #0]
2000287c:	4770      	bx	lr
2000287e:	4a03      	ldr	r2, [pc, #12]	; (2000288c <irq_set_enabled+0x20>)
20002880:	6013      	str	r3, [r2, #0]
20002882:	e7fb      	b.n	2000287c <irq_set_enabled+0x10>
20002884:	e000e280 	.word	0xe000e280
20002888:	e000e100 	.word	0xe000e100
2000288c:	e000e180 	.word	0xe000e180

20002890 <irq_get_vtable_handler>:
20002890:	4b02      	ldr	r3, [pc, #8]	; (2000289c <irq_get_vtable_handler+0xc>)
20002892:	3010      	adds	r0, #16
20002894:	689b      	ldr	r3, [r3, #8]
20002896:	0080      	lsls	r0, r0, #2
20002898:	58c0      	ldr	r0, [r0, r3]
2000289a:	4770      	bx	lr
2000289c:	e000ed00 	.word	0xe000ed00

200028a0 <irq_set_exclusive_handler>:
200028a0:	b570      	push	{r4, r5, r6, lr}
200028a2:	000d      	movs	r5, r1
200028a4:	f3ef 8610 	mrs	r6, PRIMASK
200028a8:	b672      	cpsid	i
200028aa:	4a0f      	ldr	r2, [pc, #60]	; (200028e8 <irq_set_exclusive_handler+0x48>)
200028ac:	6813      	ldr	r3, [r2, #0]
200028ae:	2b00      	cmp	r3, #0
200028b0:	d0fc      	beq.n	200028ac <irq_set_exclusive_handler+0xc>
200028b2:	f3bf 8f5f 	dmb	sy
200028b6:	4b0d      	ldr	r3, [pc, #52]	; (200028ec <irq_set_exclusive_handler+0x4c>)
200028b8:	3010      	adds	r0, #16
200028ba:	689b      	ldr	r3, [r3, #8]
200028bc:	0084      	lsls	r4, r0, #2
200028be:	591b      	ldr	r3, [r3, r4]
200028c0:	4a0b      	ldr	r2, [pc, #44]	; (200028f0 <irq_set_exclusive_handler+0x50>)
200028c2:	4293      	cmp	r3, r2
200028c4:	d003      	beq.n	200028ce <irq_set_exclusive_handler+0x2e>
200028c6:	429d      	cmp	r5, r3
200028c8:	d001      	beq.n	200028ce <irq_set_exclusive_handler+0x2e>
200028ca:	f001 f875 	bl	200039b8 <hard_assertion_failure>
200028ce:	4b07      	ldr	r3, [pc, #28]	; (200028ec <irq_set_exclusive_handler+0x4c>)
200028d0:	689b      	ldr	r3, [r3, #8]
200028d2:	511d      	str	r5, [r3, r4]
200028d4:	f3bf 8f5f 	dmb	sy
200028d8:	f3bf 8f5f 	dmb	sy
200028dc:	2200      	movs	r2, #0
200028de:	4b02      	ldr	r3, [pc, #8]	; (200028e8 <irq_set_exclusive_handler+0x48>)
200028e0:	601a      	str	r2, [r3, #0]
200028e2:	f386 8810 	msr	PRIMASK, r6
200028e6:	bd70      	pop	{r4, r5, r6, pc}
200028e8:	d0000124 	.word	0xd0000124
200028ec:	e000ed00 	.word	0xe000ed00
200028f0:	100001cd 	.word	0x100001cd

200028f4 <irq_add_shared_handler>:
200028f4:	b5f0      	push	{r4, r5, r6, r7, lr}
200028f6:	4657      	mov	r7, sl
200028f8:	464e      	mov	r6, r9
200028fa:	46de      	mov	lr, fp
200028fc:	4645      	mov	r5, r8
200028fe:	b5e0      	push	{r5, r6, r7, lr}
20002900:	b085      	sub	sp, #20
20002902:	0006      	movs	r6, r0
20002904:	9100      	str	r1, [sp, #0]
20002906:	0017      	movs	r7, r2
20002908:	f3ef 8b10 	mrs	fp, PRIMASK
2000290c:	b672      	cpsid	i
2000290e:	4a6a      	ldr	r2, [pc, #424]	; (20002ab8 <irq_add_shared_handler+0x1c4>)
20002910:	6813      	ldr	r3, [r2, #0]
20002912:	2b00      	cmp	r3, #0
20002914:	d0fc      	beq.n	20002910 <irq_add_shared_handler+0x1c>
20002916:	f3bf 8f5f 	dmb	sy
2000291a:	2500      	movs	r5, #0
2000291c:	4b67      	ldr	r3, [pc, #412]	; (20002abc <irq_add_shared_handler+0x1c8>)
2000291e:	575d      	ldrsb	r5, [r3, r5]
20002920:	469a      	mov	sl, r3
20002922:	2d00      	cmp	r5, #0
20002924:	da00      	bge.n	20002928 <irq_add_shared_handler+0x34>
20002926:	e08b      	b.n	20002a40 <irq_add_shared_handler+0x14c>
20002928:	006b      	lsls	r3, r5, #1
2000292a:	4c65      	ldr	r4, [pc, #404]	; (20002ac0 <irq_add_shared_handler+0x1cc>)
2000292c:	9301      	str	r3, [sp, #4]
2000292e:	195b      	adds	r3, r3, r5
20002930:	009b      	lsls	r3, r3, #2
20002932:	4698      	mov	r8, r3
20002934:	46a1      	mov	r9, r4
20002936:	44c1      	add	r9, r8
20002938:	464b      	mov	r3, r9
2000293a:	4652      	mov	r2, sl
2000293c:	799b      	ldrb	r3, [r3, #6]
2000293e:	3610      	adds	r6, #16
20002940:	7013      	strb	r3, [r2, #0]
20002942:	4b60      	ldr	r3, [pc, #384]	; (20002ac4 <irq_add_shared_handler+0x1d0>)
20002944:	00b6      	lsls	r6, r6, #2
20002946:	689b      	ldr	r3, [r3, #8]
20002948:	5999      	ldr	r1, [r3, r6]
2000294a:	1b0b      	subs	r3, r1, r4
2000294c:	2b2f      	cmp	r3, #47	; 0x2f
2000294e:	d933      	bls.n	200029b8 <irq_add_shared_handler+0xc4>
20002950:	4b5d      	ldr	r3, [pc, #372]	; (20002ac8 <irq_add_shared_handler+0x1d4>)
20002952:	4299      	cmp	r1, r3
20002954:	d000      	beq.n	20002958 <irq_add_shared_handler+0x64>
20002956:	e0ac      	b.n	20002ab2 <irq_add_shared_handler+0x1be>
20002958:	9b01      	ldr	r3, [sp, #4]
2000295a:	4642      	mov	r2, r8
2000295c:	469c      	mov	ip, r3
2000295e:	4b5b      	ldr	r3, [pc, #364]	; (20002acc <irq_add_shared_handler+0x1d8>)
20002960:	4465      	add	r5, ip
20002962:	00ad      	lsls	r5, r5, #2
20002964:	5363      	strh	r3, [r4, r5]
20002966:	4b5a      	ldr	r3, [pc, #360]	; (20002ad0 <irq_add_shared_handler+0x1dc>)
20002968:	3202      	adds	r2, #2
2000296a:	18a2      	adds	r2, r4, r2
2000296c:	3b04      	subs	r3, #4
2000296e:	1a9b      	subs	r3, r3, r2
20002970:	051b      	lsls	r3, r3, #20
20002972:	4a58      	ldr	r2, [pc, #352]	; (20002ad4 <irq_add_shared_handler+0x1e0>)
20002974:	0d5b      	lsrs	r3, r3, #21
20002976:	1965      	adds	r5, r4, r5
20002978:	4313      	orrs	r3, r2
2000297a:	806b      	strh	r3, [r5, #2]
2000297c:	4b56      	ldr	r3, [pc, #344]	; (20002ad8 <irq_add_shared_handler+0x1e4>)
2000297e:	2101      	movs	r1, #1
20002980:	80ab      	strh	r3, [r5, #4]
20002982:	23ff      	movs	r3, #255	; 0xff
20002984:	71ab      	strb	r3, [r5, #6]
20002986:	9b00      	ldr	r3, [sp, #0]
20002988:	71ef      	strb	r7, [r5, #7]
2000298a:	60ab      	str	r3, [r5, #8]
2000298c:	464b      	mov	r3, r9
2000298e:	430b      	orrs	r3, r1
20002990:	0019      	movs	r1, r3
20002992:	4b4c      	ldr	r3, [pc, #304]	; (20002ac4 <irq_add_shared_handler+0x1d0>)
20002994:	689b      	ldr	r3, [r3, #8]
20002996:	5199      	str	r1, [r3, r6]
20002998:	f3bf 8f5f 	dmb	sy
2000299c:	f3bf 8f5f 	dmb	sy
200029a0:	2200      	movs	r2, #0
200029a2:	4b45      	ldr	r3, [pc, #276]	; (20002ab8 <irq_add_shared_handler+0x1c4>)
200029a4:	601a      	str	r2, [r3, #0]
200029a6:	f38b 8810 	msr	PRIMASK, fp
200029aa:	b005      	add	sp, #20
200029ac:	bcf0      	pop	{r4, r5, r6, r7}
200029ae:	46bb      	mov	fp, r7
200029b0:	46b2      	mov	sl, r6
200029b2:	46a9      	mov	r9, r5
200029b4:	46a0      	mov	r8, r4
200029b6:	bdf0      	pop	{r4, r5, r6, r7, pc}
200029b8:	2001      	movs	r0, #1
200029ba:	000a      	movs	r2, r1
200029bc:	4382      	bics	r2, r0
200029be:	79d3      	ldrb	r3, [r2, #7]
200029c0:	468c      	mov	ip, r1
200029c2:	42bb      	cmp	r3, r7
200029c4:	d831      	bhi.n	20002a2a <irq_add_shared_handler+0x136>
200029c6:	4645      	mov	r5, r8
200029c8:	0013      	movs	r3, r2
200029ca:	4944      	ldr	r1, [pc, #272]	; (20002adc <irq_add_shared_handler+0x1e8>)
200029cc:	1b1b      	subs	r3, r3, r4
200029ce:	415b      	adcs	r3, r3
200029d0:	4359      	muls	r1, r3
200029d2:	0d09      	lsrs	r1, r1, #20
200029d4:	4b3d      	ldr	r3, [pc, #244]	; (20002acc <irq_add_shared_handler+0x1d8>)
200029d6:	5363      	strh	r3, [r4, r5]
200029d8:	4b3d      	ldr	r3, [pc, #244]	; (20002ad0 <irq_add_shared_handler+0x1dc>)
200029da:	3502      	adds	r5, #2
200029dc:	1965      	adds	r5, r4, r5
200029de:	3b04      	subs	r3, #4
200029e0:	1b5b      	subs	r3, r3, r5
200029e2:	051b      	lsls	r3, r3, #20
200029e4:	4d3b      	ldr	r5, [pc, #236]	; (20002ad4 <irq_add_shared_handler+0x1e0>)
200029e6:	0d5b      	lsrs	r3, r3, #21
200029e8:	432b      	orrs	r3, r5
200029ea:	46aa      	mov	sl, r5
200029ec:	464d      	mov	r5, r9
200029ee:	806b      	strh	r3, [r5, #2]
200029f0:	2504      	movs	r5, #4
200029f2:	46ac      	mov	ip, r5
200029f4:	4655      	mov	r5, sl
200029f6:	44e0      	add	r8, ip
200029f8:	1f13      	subs	r3, r2, #4
200029fa:	4444      	add	r4, r8
200029fc:	1b1b      	subs	r3, r3, r4
200029fe:	051b      	lsls	r3, r3, #20
20002a00:	0d5b      	lsrs	r3, r3, #21
20002a02:	431d      	orrs	r5, r3
20002a04:	464b      	mov	r3, r9
20002a06:	7199      	strb	r1, [r3, #6]
20002a08:	9900      	ldr	r1, [sp, #0]
20002a0a:	809d      	strh	r5, [r3, #4]
20002a0c:	6099      	str	r1, [r3, #8]
20002a0e:	4649      	mov	r1, r9
20002a10:	71df      	strb	r7, [r3, #7]
20002a12:	4b33      	ldr	r3, [pc, #204]	; (20002ae0 <irq_add_shared_handler+0x1ec>)
20002a14:	4301      	orrs	r1, r0
20002a16:	6013      	str	r3, [r2, #0]
20002a18:	e7bb      	b.n	20002992 <irq_add_shared_handler+0x9e>
20002a1a:	0058      	lsls	r0, r3, #1
20002a1c:	18c0      	adds	r0, r0, r3
20002a1e:	0080      	lsls	r0, r0, #2
20002a20:	1820      	adds	r0, r4, r0
20002a22:	79c1      	ldrb	r1, [r0, #7]
20002a24:	42b9      	cmp	r1, r7
20002a26:	d911      	bls.n	20002a4c <irq_add_shared_handler+0x158>
20002a28:	0002      	movs	r2, r0
20002a2a:	2306      	movs	r3, #6
20002a2c:	56d3      	ldrsb	r3, [r2, r3]
20002a2e:	2b00      	cmp	r3, #0
20002a30:	daf3      	bge.n	20002a1a <irq_add_shared_handler+0x126>
20002a32:	9302      	str	r3, [sp, #8]
20002a34:	1d13      	adds	r3, r2, #4
20002a36:	469a      	mov	sl, r3
20002a38:	4b2a      	ldr	r3, [pc, #168]	; (20002ae4 <irq_add_shared_handler+0x1f0>)
20002a3a:	4661      	mov	r1, ip
20002a3c:	9303      	str	r3, [sp, #12]
20002a3e:	e019      	b.n	20002a74 <irq_add_shared_handler+0x180>
20002a40:	f000 ffba 	bl	200039b8 <hard_assertion_failure>
20002a44:	2500      	movs	r5, #0
20002a46:	4653      	mov	r3, sl
20002a48:	575d      	ldrsb	r5, [r3, r5]
20002a4a:	e76d      	b.n	20002928 <irq_add_shared_handler+0x34>
20002a4c:	8890      	ldrh	r0, [r2, #4]
20002a4e:	9302      	str	r3, [sp, #8]
20002a50:	0540      	lsls	r0, r0, #21
20002a52:	1d13      	adds	r3, r2, #4
20002a54:	469a      	mov	sl, r3
20002a56:	1503      	asrs	r3, r0, #20
20002a58:	4661      	mov	r1, ip
20002a5a:	469c      	mov	ip, r3
20002a5c:	4640      	mov	r0, r8
20002a5e:	44d4      	add	ip, sl
20002a60:	4663      	mov	r3, ip
20002a62:	3004      	adds	r0, #4
20002a64:	1820      	adds	r0, r4, r0
20002a66:	1a18      	subs	r0, r3, r0
20002a68:	23e0      	movs	r3, #224	; 0xe0
20002a6a:	0500      	lsls	r0, r0, #20
20002a6c:	0d40      	lsrs	r0, r0, #21
20002a6e:	021b      	lsls	r3, r3, #8
20002a70:	4318      	orrs	r0, r3
20002a72:	9003      	str	r0, [sp, #12]
20002a74:	2304      	movs	r3, #4
20002a76:	425b      	negs	r3, r3
20002a78:	469c      	mov	ip, r3
20002a7a:	44e1      	add	r9, ip
20002a7c:	4650      	mov	r0, sl
20002a7e:	464b      	mov	r3, r9
20002a80:	1a1b      	subs	r3, r3, r0
20002a82:	051b      	lsls	r3, r3, #20
20002a84:	0d5b      	lsrs	r3, r3, #21
20002a86:	469c      	mov	ip, r3
20002a88:	4b12      	ldr	r3, [pc, #72]	; (20002ad4 <irq_add_shared_handler+0x1e0>)
20002a8a:	7195      	strb	r5, [r2, #6]
20002a8c:	4698      	mov	r8, r3
20002a8e:	4663      	mov	r3, ip
20002a90:	4640      	mov	r0, r8
20002a92:	4303      	orrs	r3, r0
20002a94:	8093      	strh	r3, [r2, #4]
20002a96:	9b01      	ldr	r3, [sp, #4]
20002a98:	195a      	adds	r2, r3, r5
20002a9a:	0092      	lsls	r2, r2, #2
20002a9c:	9b03      	ldr	r3, [sp, #12]
20002a9e:	18a4      	adds	r4, r4, r2
20002aa0:	80a3      	strh	r3, [r4, #4]
20002aa2:	9b02      	ldr	r3, [sp, #8]
20002aa4:	4a0e      	ldr	r2, [pc, #56]	; (20002ae0 <irq_add_shared_handler+0x1ec>)
20002aa6:	71a3      	strb	r3, [r4, #6]
20002aa8:	9b00      	ldr	r3, [sp, #0]
20002aaa:	6022      	str	r2, [r4, #0]
20002aac:	71e7      	strb	r7, [r4, #7]
20002aae:	60a3      	str	r3, [r4, #8]
20002ab0:	e76f      	b.n	20002992 <irq_add_shared_handler+0x9e>
20002ab2:	f000 ff81 	bl	200039b8 <hard_assertion_failure>
20002ab6:	e74f      	b.n	20002958 <irq_add_shared_handler+0x64>
20002ab8:	d0000124 	.word	0xd0000124
20002abc:	20020593 	.word	0x20020593
20002ac0:	2000a120 	.word	0x2000a120
20002ac4:	e000ed00 	.word	0xe000ed00
20002ac8:	100001cd 	.word	0x100001cd
20002acc:	ffffa100 	.word	0xffffa100
20002ad0:	2000a150 	.word	0x2000a150
20002ad4:	ffffe000 	.word	0xffffe000
20002ad8:	ffffbd01 	.word	0xffffbd01
20002adc:	0000aaaa 	.word	0x0000aaaa
20002ae0:	47804801 	.word	0x47804801
20002ae4:	0000bd01 	.word	0x0000bd01

20002ae8 <irq_remove_handler>:
20002ae8:	b5f0      	push	{r4, r5, r6, r7, lr}
20002aea:	46de      	mov	lr, fp
20002aec:	4657      	mov	r7, sl
20002aee:	464e      	mov	r6, r9
20002af0:	4645      	mov	r5, r8
20002af2:	b5e0      	push	{r5, r6, r7, lr}
20002af4:	000c      	movs	r4, r1
20002af6:	b083      	sub	sp, #12
20002af8:	f3ef 8810 	mrs	r8, PRIMASK
20002afc:	b672      	cpsid	i
20002afe:	4a5d      	ldr	r2, [pc, #372]	; (20002c74 <irq_remove_handler+0x18c>)
20002b00:	6813      	ldr	r3, [r2, #0]
20002b02:	2b00      	cmp	r3, #0
20002b04:	d0fc      	beq.n	20002b00 <irq_remove_handler+0x18>
20002b06:	f3bf 8f5f 	dmb	sy
20002b0a:	4b5b      	ldr	r3, [pc, #364]	; (20002c78 <irq_remove_handler+0x190>)
20002b0c:	495b      	ldr	r1, [pc, #364]	; (20002c7c <irq_remove_handler+0x194>)
20002b0e:	689a      	ldr	r2, [r3, #8]
20002b10:	0003      	movs	r3, r0
20002b12:	3310      	adds	r3, #16
20002b14:	009f      	lsls	r7, r3, #2
20002b16:	59d5      	ldr	r5, [r2, r7]
20002b18:	428d      	cmp	r5, r1
20002b1a:	d039      	beq.n	20002b90 <irq_remove_handler+0xa8>
20002b1c:	42a5      	cmp	r5, r4
20002b1e:	d04a      	beq.n	20002bb6 <irq_remove_handler+0xce>
20002b20:	4e57      	ldr	r6, [pc, #348]	; (20002c80 <irq_remove_handler+0x198>)
20002b22:	1baa      	subs	r2, r5, r6
20002b24:	2a2f      	cmp	r2, #47	; 0x2f
20002b26:	d833      	bhi.n	20002b90 <irq_remove_handler+0xa8>
20002b28:	2201      	movs	r2, #1
20002b2a:	4692      	mov	sl, r2
20002b2c:	4082      	lsls	r2, r0
20002b2e:	4691      	mov	r9, r2
20002b30:	4648      	mov	r0, r9
20002b32:	4a54      	ldr	r2, [pc, #336]	; (20002c84 <irq_remove_handler+0x19c>)
20002b34:	6812      	ldr	r2, [r2, #0]
20002b36:	4010      	ands	r0, r2
20002b38:	9001      	str	r0, [sp, #4]
20002b3a:	4648      	mov	r0, r9
20002b3c:	4a52      	ldr	r2, [pc, #328]	; (20002c88 <irq_remove_handler+0x1a0>)
20002b3e:	6010      	str	r0, [r2, #0]
20002b40:	f3bf 8f5f 	dmb	sy
20002b44:	f3ef 8205 	mrs	r2, IPSR
20002b48:	4693      	mov	fp, r2
20002b4a:	2a00      	cmp	r2, #0
20002b4c:	d035      	beq.n	20002bba <irq_remove_handler+0xd2>
20002b4e:	4293      	cmp	r3, r2
20002b50:	d001      	beq.n	20002b56 <irq_remove_handler+0x6e>
20002b52:	f000 ff31 	bl	200039b8 <hard_assertion_failure>
20002b56:	002a      	movs	r2, r5
20002b58:	4653      	mov	r3, sl
20002b5a:	439a      	bics	r2, r3
20002b5c:	6890      	ldr	r0, [r2, #8]
20002b5e:	4284      	cmp	r4, r0
20002b60:	d108      	bne.n	20002b74 <irq_remove_handler+0x8c>
20002b62:	e075      	b.n	20002c50 <irq_remove_handler+0x168>
20002b64:	004b      	lsls	r3, r1, #1
20002b66:	185b      	adds	r3, r3, r1
20002b68:	009b      	lsls	r3, r3, #2
20002b6a:	18f3      	adds	r3, r6, r3
20002b6c:	6898      	ldr	r0, [r3, #8]
20002b6e:	42a0      	cmp	r0, r4
20002b70:	d034      	beq.n	20002bdc <irq_remove_handler+0xf4>
20002b72:	001a      	movs	r2, r3
20002b74:	2106      	movs	r1, #6
20002b76:	5651      	ldrsb	r1, [r2, r1]
20002b78:	2900      	cmp	r1, #0
20002b7a:	daf3      	bge.n	20002b64 <irq_remove_handler+0x7c>
20002b7c:	4284      	cmp	r4, r0
20002b7e:	d053      	beq.n	20002c28 <irq_remove_handler+0x140>
20002b80:	9b01      	ldr	r3, [sp, #4]
20002b82:	2b00      	cmp	r3, #0
20002b84:	d026      	beq.n	20002bd4 <irq_remove_handler+0xec>
20002b86:	464a      	mov	r2, r9
20002b88:	4b40      	ldr	r3, [pc, #256]	; (20002c8c <irq_remove_handler+0x1a4>)
20002b8a:	601a      	str	r2, [r3, #0]
20002b8c:	4b3d      	ldr	r3, [pc, #244]	; (20002c84 <irq_remove_handler+0x19c>)
20002b8e:	601a      	str	r2, [r3, #0]
20002b90:	4b39      	ldr	r3, [pc, #228]	; (20002c78 <irq_remove_handler+0x190>)
20002b92:	689b      	ldr	r3, [r3, #8]
20002b94:	51dd      	str	r5, [r3, r7]
20002b96:	f3bf 8f5f 	dmb	sy
20002b9a:	f3bf 8f5f 	dmb	sy
20002b9e:	2200      	movs	r2, #0
20002ba0:	4b34      	ldr	r3, [pc, #208]	; (20002c74 <irq_remove_handler+0x18c>)
20002ba2:	601a      	str	r2, [r3, #0]
20002ba4:	f388 8810 	msr	PRIMASK, r8
20002ba8:	b003      	add	sp, #12
20002baa:	bcf0      	pop	{r4, r5, r6, r7}
20002bac:	46bb      	mov	fp, r7
20002bae:	46b2      	mov	sl, r6
20002bb0:	46a9      	mov	r9, r5
20002bb2:	46a0      	mov	r8, r4
20002bb4:	bdf0      	pop	{r4, r5, r6, r7, pc}
20002bb6:	000d      	movs	r5, r1
20002bb8:	e7ea      	b.n	20002b90 <irq_remove_handler+0xa8>
20002bba:	002a      	movs	r2, r5
20002bbc:	4653      	mov	r3, sl
20002bbe:	439a      	bics	r2, r3
20002bc0:	6890      	ldr	r0, [r2, #8]
20002bc2:	4284      	cmp	r4, r0
20002bc4:	d1d6      	bne.n	20002b74 <irq_remove_handler+0x8c>
20002bc6:	2006      	movs	r0, #6
20002bc8:	5610      	ldrsb	r0, [r2, r0]
20002bca:	0013      	movs	r3, r2
20002bcc:	2800      	cmp	r0, #0
20002bce:	da09      	bge.n	20002be4 <irq_remove_handler+0xfc>
20002bd0:	000d      	movs	r5, r1
20002bd2:	e031      	b.n	20002c38 <irq_remove_handler+0x150>
20002bd4:	464a      	mov	r2, r9
20002bd6:	4b2c      	ldr	r3, [pc, #176]	; (20002c88 <irq_remove_handler+0x1a0>)
20002bd8:	601a      	str	r2, [r3, #0]
20002bda:	e7d9      	b.n	20002b90 <irq_remove_handler+0xa8>
20002bdc:	2006      	movs	r0, #6
20002bde:	5618      	ldrsb	r0, [r3, r0]
20002be0:	2800      	cmp	r0, #0
20002be2:	db22      	blt.n	20002c2a <irq_remove_handler+0x142>
20002be4:	0042      	lsls	r2, r0, #1
20002be6:	1811      	adds	r1, r2, r0
20002be8:	0089      	lsls	r1, r1, #2
20002bea:	1874      	adds	r4, r6, r1
20002bec:	468a      	mov	sl, r1
20002bee:	68a1      	ldr	r1, [r4, #8]
20002bf0:	6099      	str	r1, [r3, #8]
20002bf2:	79e1      	ldrb	r1, [r4, #7]
20002bf4:	71d9      	strb	r1, [r3, #7]
20002bf6:	2106      	movs	r1, #6
20002bf8:	5661      	ldrsb	r1, [r4, r1]
20002bfa:	7199      	strb	r1, [r3, #6]
20002bfc:	2900      	cmp	r1, #0
20002bfe:	db25      	blt.n	20002c4c <irq_remove_handler+0x164>
20002c00:	88a4      	ldrh	r4, [r4, #4]
20002c02:	1af1      	subs	r1, r6, r3
20002c04:	0564      	lsls	r4, r4, #21
20002c06:	1524      	asrs	r4, r4, #20
20002c08:	4454      	add	r4, sl
20002c0a:	1909      	adds	r1, r1, r4
20002c0c:	24e0      	movs	r4, #224	; 0xe0
20002c0e:	0509      	lsls	r1, r1, #20
20002c10:	0d49      	lsrs	r1, r1, #21
20002c12:	0224      	lsls	r4, r4, #8
20002c14:	4321      	orrs	r1, r4
20002c16:	8099      	strh	r1, [r3, #4]
20002c18:	1813      	adds	r3, r2, r0
20002c1a:	4a1d      	ldr	r2, [pc, #116]	; (20002c90 <irq_remove_handler+0x1a8>)
20002c1c:	009b      	lsls	r3, r3, #2
20002c1e:	7811      	ldrb	r1, [r2, #0]
20002c20:	18f3      	adds	r3, r6, r3
20002c22:	7199      	strb	r1, [r3, #6]
20002c24:	7010      	strb	r0, [r2, #0]
20002c26:	e7ab      	b.n	20002b80 <irq_remove_handler+0x98>
20002c28:	0013      	movs	r3, r2
20002c2a:	4659      	mov	r1, fp
20002c2c:	2900      	cmp	r1, #0
20002c2e:	d114      	bne.n	20002c5a <irq_remove_handler+0x172>
20002c30:	31ff      	adds	r1, #255	; 0xff
20002c32:	7191      	strb	r1, [r2, #6]
20002c34:	4917      	ldr	r1, [pc, #92]	; (20002c94 <irq_remove_handler+0x1ac>)
20002c36:	8091      	strh	r1, [r2, #4]
20002c38:	4915      	ldr	r1, [pc, #84]	; (20002c90 <irq_remove_handler+0x1a8>)
20002c3a:	780a      	ldrb	r2, [r1, #0]
20002c3c:	719a      	strb	r2, [r3, #6]
20002c3e:	4a16      	ldr	r2, [pc, #88]	; (20002c98 <irq_remove_handler+0x1b0>)
20002c40:	1b9b      	subs	r3, r3, r6
20002c42:	415b      	adcs	r3, r3
20002c44:	435a      	muls	r2, r3
20002c46:	0d12      	lsrs	r2, r2, #20
20002c48:	700a      	strb	r2, [r1, #0]
20002c4a:	e799      	b.n	20002b80 <irq_remove_handler+0x98>
20002c4c:	4913      	ldr	r1, [pc, #76]	; (20002c9c <irq_remove_handler+0x1b4>)
20002c4e:	e7e2      	b.n	20002c16 <irq_remove_handler+0x12e>
20002c50:	2006      	movs	r0, #6
20002c52:	5610      	ldrsb	r0, [r2, r0]
20002c54:	0013      	movs	r3, r2
20002c56:	2800      	cmp	r0, #0
20002c58:	dac4      	bge.n	20002be4 <irq_remove_handler+0xfc>
20002c5a:	4a11      	ldr	r2, [pc, #68]	; (20002ca0 <irq_remove_handler+0x1b8>)
20002c5c:	4911      	ldr	r1, [pc, #68]	; (20002ca4 <irq_remove_handler+0x1bc>)
20002c5e:	1ad2      	subs	r2, r2, r3
20002c60:	3a08      	subs	r2, #8
20002c62:	0250      	lsls	r0, r2, #9
20002c64:	0d40      	lsrs	r0, r0, #21
20002c66:	4301      	orrs	r1, r0
20002c68:	8099      	strh	r1, [r3, #4]
20002c6a:	490f      	ldr	r1, [pc, #60]	; (20002ca8 <irq_remove_handler+0x1c0>)
20002c6c:	0852      	lsrs	r2, r2, #1
20002c6e:	430a      	orrs	r2, r1
20002c70:	80da      	strh	r2, [r3, #6]
20002c72:	e785      	b.n	20002b80 <irq_remove_handler+0x98>
20002c74:	d0000124 	.word	0xd0000124
20002c78:	e000ed00 	.word	0xe000ed00
20002c7c:	100001cd 	.word	0x100001cd
20002c80:	2000a120 	.word	0x2000a120
20002c84:	e000e100 	.word	0xe000e100
20002c88:	e000e180 	.word	0xe000e180
20002c8c:	e000e280 	.word	0xe000e280
20002c90:	20020593 	.word	0x20020593
20002c94:	ffffbd01 	.word	0xffffbd01
20002c98:	0000aaaa 	.word	0x0000aaaa
20002c9c:	0000bd01 	.word	0x0000bd01
20002ca0:	2000a15a 	.word	0x2000a15a
20002ca4:	fffff000 	.word	0xfffff000
20002ca8:	fffff800 	.word	0xfffff800

20002cac <irq_set_priority>:
20002cac:	2303      	movs	r3, #3
20002cae:	b510      	push	{r4, lr}
20002cb0:	0004      	movs	r4, r0
20002cb2:	4a07      	ldr	r2, [pc, #28]	; (20002cd0 <irq_set_priority+0x24>)
20002cb4:	4018      	ands	r0, r3
20002cb6:	4694      	mov	ip, r2
20002cb8:	00c0      	lsls	r0, r0, #3
20002cba:	439c      	bics	r4, r3
20002cbc:	33fc      	adds	r3, #252	; 0xfc
20002cbe:	4083      	lsls	r3, r0
20002cc0:	4464      	add	r4, ip
20002cc2:	6822      	ldr	r2, [r4, #0]
20002cc4:	4081      	lsls	r1, r0
20002cc6:	439a      	bics	r2, r3
20002cc8:	0013      	movs	r3, r2
20002cca:	430b      	orrs	r3, r1
20002ccc:	6023      	str	r3, [r4, #0]
20002cce:	bd10      	pop	{r4, pc}
20002cd0:	e000e400 	.word	0xe000e400

20002cd4 <irq_add_tail_to_free_list>:
20002cd4:	b570      	push	{r4, r5, r6, lr}
20002cd6:	f3ef 8105 	mrs	r1, IPSR
20002cda:	2401      	movs	r4, #1
20002cdc:	4304      	orrs	r4, r0
20002cde:	f3ef 8c10 	mrs	ip, PRIMASK
20002ce2:	b672      	cpsid	i
20002ce4:	4a21      	ldr	r2, [pc, #132]	; (20002d6c <irq_add_tail_to_free_list+0x98>)
20002ce6:	6813      	ldr	r3, [r2, #0]
20002ce8:	2b00      	cmp	r3, #0
20002cea:	d0fc      	beq.n	20002ce6 <irq_add_tail_to_free_list+0x12>
20002cec:	f3bf 8f5f 	dmb	sy
20002cf0:	4b1f      	ldr	r3, [pc, #124]	; (20002d70 <irq_add_tail_to_free_list+0x9c>)
20002cf2:	0005      	movs	r5, r0
20002cf4:	4a1f      	ldr	r2, [pc, #124]	; (20002d74 <irq_add_tail_to_free_list+0xa0>)
20002cf6:	1aed      	subs	r5, r5, r3
20002cf8:	416d      	adcs	r5, r5
20002cfa:	436a      	muls	r2, r5
20002cfc:	0d12      	lsrs	r2, r2, #20
20002cfe:	4d1e      	ldr	r5, [pc, #120]	; (20002d78 <irq_add_tail_to_free_list+0xa4>)
20002d00:	0089      	lsls	r1, r1, #2
20002d02:	68ae      	ldr	r6, [r5, #8]
20002d04:	b252      	sxtb	r2, r2
20002d06:	5876      	ldr	r6, [r6, r1]
20002d08:	42a6      	cmp	r6, r4
20002d0a:	d01c      	beq.n	20002d46 <irq_add_tail_to_free_list+0x72>
20002d0c:	2106      	movs	r1, #6
20002d0e:	5659      	ldrsb	r1, [r3, r1]
20002d10:	4291      	cmp	r1, r2
20002d12:	d01c      	beq.n	20002d4e <irq_add_tail_to_free_list+0x7a>
20002d14:	2112      	movs	r1, #18
20002d16:	5659      	ldrsb	r1, [r3, r1]
20002d18:	4291      	cmp	r1, r2
20002d1a:	d022      	beq.n	20002d62 <irq_add_tail_to_free_list+0x8e>
20002d1c:	211e      	movs	r1, #30
20002d1e:	5659      	ldrsb	r1, [r3, r1]
20002d20:	4291      	cmp	r1, r2
20002d22:	d020      	beq.n	20002d66 <irq_add_tail_to_free_list+0x92>
20002d24:	212a      	movs	r1, #42	; 0x2a
20002d26:	5659      	ldrsb	r1, [r3, r1]
20002d28:	2403      	movs	r4, #3
20002d2a:	4291      	cmp	r1, r2
20002d2c:	d010      	beq.n	20002d50 <irq_add_tail_to_free_list+0x7c>
20002d2e:	4b13      	ldr	r3, [pc, #76]	; (20002d7c <irq_add_tail_to_free_list+0xa8>)
20002d30:	7819      	ldrb	r1, [r3, #0]
20002d32:	701a      	strb	r2, [r3, #0]
20002d34:	7181      	strb	r1, [r0, #6]
20002d36:	f3bf 8f5f 	dmb	sy
20002d3a:	2200      	movs	r2, #0
20002d3c:	4b0b      	ldr	r3, [pc, #44]	; (20002d6c <irq_add_tail_to_free_list+0x98>)
20002d3e:	601a      	str	r2, [r3, #0]
20002d40:	f38c 8810 	msr	PRIMASK, ip
20002d44:	bd70      	pop	{r4, r5, r6, pc}
20002d46:	68ab      	ldr	r3, [r5, #8]
20002d48:	4c0d      	ldr	r4, [pc, #52]	; (20002d80 <irq_add_tail_to_free_list+0xac>)
20002d4a:	505c      	str	r4, [r3, r1]
20002d4c:	e7ef      	b.n	20002d2e <irq_add_tail_to_free_list+0x5a>
20002d4e:	2400      	movs	r4, #0
20002d50:	0061      	lsls	r1, r4, #1
20002d52:	1909      	adds	r1, r1, r4
20002d54:	0089      	lsls	r1, r1, #2
20002d56:	185b      	adds	r3, r3, r1
20002d58:	21ff      	movs	r1, #255	; 0xff
20002d5a:	7199      	strb	r1, [r3, #6]
20002d5c:	4909      	ldr	r1, [pc, #36]	; (20002d84 <irq_add_tail_to_free_list+0xb0>)
20002d5e:	8099      	strh	r1, [r3, #4]
20002d60:	e7e5      	b.n	20002d2e <irq_add_tail_to_free_list+0x5a>
20002d62:	2401      	movs	r4, #1
20002d64:	e7f4      	b.n	20002d50 <irq_add_tail_to_free_list+0x7c>
20002d66:	2402      	movs	r4, #2
20002d68:	e7f2      	b.n	20002d50 <irq_add_tail_to_free_list+0x7c>
20002d6a:	46c0      	nop			; (mov r8, r8)
20002d6c:	d0000124 	.word	0xd0000124
20002d70:	2000a120 	.word	0x2000a120
20002d74:	0000aaaa 	.word	0x0000aaaa
20002d78:	e000ed00 	.word	0xe000ed00
20002d7c:	20020593 	.word	0x20020593
20002d80:	100001cd 	.word	0x100001cd
20002d84:	ffffbd01 	.word	0xffffbd01

20002d88 <irq_init_priorities>:
20002d88:	4b05      	ldr	r3, [pc, #20]	; (20002da0 <irq_init_priorities+0x18>)
20002d8a:	4a06      	ldr	r2, [pc, #24]	; (20002da4 <irq_init_priorities+0x1c>)
20002d8c:	6013      	str	r3, [r2, #0]
20002d8e:	4a06      	ldr	r2, [pc, #24]	; (20002da8 <irq_init_priorities+0x20>)
20002d90:	6013      	str	r3, [r2, #0]
20002d92:	6053      	str	r3, [r2, #4]
20002d94:	6093      	str	r3, [r2, #8]
20002d96:	60d3      	str	r3, [r2, #12]
20002d98:	6113      	str	r3, [r2, #16]
20002d9a:	6153      	str	r3, [r2, #20]
20002d9c:	6193      	str	r3, [r2, #24]
20002d9e:	4770      	bx	lr
20002da0:	80808080 	.word	0x80808080
20002da4:	e000e400 	.word	0xe000e400
20002da8:	e000e404 	.word	0xe000e404

20002dac <ph_merge_nodes>:
20002dac:	b570      	push	{r4, r5, r6, lr}
20002dae:	0005      	movs	r5, r0
20002db0:	000e      	movs	r6, r1
20002db2:	0014      	movs	r4, r2
20002db4:	2900      	cmp	r1, #0
20002db6:	d023      	beq.n	20002e00 <ph_merge_nodes+0x54>
20002db8:	2a00      	cmp	r2, #0
20002dba:	d012      	beq.n	20002de2 <ph_merge_nodes+0x36>
20002dbc:	6880      	ldr	r0, [r0, #8]
20002dbe:	686b      	ldr	r3, [r5, #4]
20002dc0:	4798      	blx	r3
20002dc2:	6829      	ldr	r1, [r5, #0]
20002dc4:	2800      	cmp	r0, #0
20002dc6:	d00e      	beq.n	20002de6 <ph_merge_nodes+0x3a>
20002dc8:	0063      	lsls	r3, r4, #1
20002dca:	191b      	adds	r3, r3, r4
20002dcc:	0072      	lsls	r2, r6, #1
20002dce:	3b03      	subs	r3, #3
20002dd0:	1992      	adds	r2, r2, r6
20002dd2:	18cb      	adds	r3, r1, r3
20002dd4:	3a03      	subs	r2, #3
20002dd6:	709e      	strb	r6, [r3, #2]
20002dd8:	1888      	adds	r0, r1, r2
20002dda:	5c8a      	ldrb	r2, [r1, r2]
20002ddc:	2a00      	cmp	r2, #0
20002dde:	d111      	bne.n	20002e04 <ph_merge_nodes+0x58>
20002de0:	7004      	strb	r4, [r0, #0]
20002de2:	0030      	movs	r0, r6
20002de4:	bd70      	pop	{r4, r5, r6, pc}
20002de6:	0073      	lsls	r3, r6, #1
20002de8:	199b      	adds	r3, r3, r6
20002dea:	0062      	lsls	r2, r4, #1
20002dec:	3b03      	subs	r3, #3
20002dee:	1912      	adds	r2, r2, r4
20002df0:	18cb      	adds	r3, r1, r3
20002df2:	3a03      	subs	r2, #3
20002df4:	709c      	strb	r4, [r3, #2]
20002df6:	1888      	adds	r0, r1, r2
20002df8:	5c8a      	ldrb	r2, [r1, r2]
20002dfa:	2a00      	cmp	r2, #0
20002dfc:	d105      	bne.n	20002e0a <ph_merge_nodes+0x5e>
20002dfe:	7006      	strb	r6, [r0, #0]
20002e00:	0020      	movs	r0, r4
20002e02:	e7ef      	b.n	20002de4 <ph_merge_nodes+0x38>
20002e04:	705a      	strb	r2, [r3, #1]
20002e06:	7004      	strb	r4, [r0, #0]
20002e08:	e7eb      	b.n	20002de2 <ph_merge_nodes+0x36>
20002e0a:	705a      	strb	r2, [r3, #1]
20002e0c:	7006      	strb	r6, [r0, #0]
20002e0e:	e7f7      	b.n	20002e00 <ph_merge_nodes+0x54>

20002e10 <ph_post_alloc_init>:
20002e10:	b530      	push	{r4, r5, lr}
20002e12:	6083      	str	r3, [r0, #8]
20002e14:	2300      	movs	r3, #0
20002e16:	b2cc      	uxtb	r4, r1
20002e18:	7343      	strb	r3, [r0, #13]
20002e1a:	3301      	adds	r3, #1
20002e1c:	7304      	strb	r4, [r0, #12]
20002e1e:	6042      	str	r2, [r0, #4]
20002e20:	7383      	strb	r3, [r0, #14]
20002e22:	73c4      	strb	r4, [r0, #15]
20002e24:	000d      	movs	r5, r1
20002e26:	6800      	ldr	r0, [r0, #0]
20002e28:	2c01      	cmp	r4, #1
20002e2a:	d906      	bls.n	20002e3a <ph_post_alloc_init+0x2a>
20002e2c:	1c42      	adds	r2, r0, #1
20002e2e:	3301      	adds	r3, #1
20002e30:	b2db      	uxtb	r3, r3
20002e32:	7013      	strb	r3, [r2, #0]
20002e34:	3203      	adds	r2, #3
20002e36:	429c      	cmp	r4, r3
20002e38:	d1f9      	bne.n	20002e2e <ph_post_alloc_init+0x1e>
20002e3a:	21ff      	movs	r1, #255	; 0xff
20002e3c:	4029      	ands	r1, r5
20002e3e:	004b      	lsls	r3, r1, #1
20002e40:	185b      	adds	r3, r3, r1
20002e42:	18c0      	adds	r0, r0, r3
20002e44:	2300      	movs	r3, #0
20002e46:	3803      	subs	r0, #3
20002e48:	7043      	strb	r3, [r0, #1]
20002e4a:	bd30      	pop	{r4, r5, pc}

20002e4c <ph_merge_two_pass>:
20002e4c:	b570      	push	{r4, r5, r6, lr}
20002e4e:	0005      	movs	r5, r0
20002e50:	1e0c      	subs	r4, r1, #0
20002e52:	d007      	beq.n	20002e64 <ph_merge_two_pass+0x18>
20002e54:	0063      	lsls	r3, r4, #1
20002e56:	6801      	ldr	r1, [r0, #0]
20002e58:	191b      	adds	r3, r3, r4
20002e5a:	3b03      	subs	r3, #3
20002e5c:	18cb      	adds	r3, r1, r3
20002e5e:	785a      	ldrb	r2, [r3, #1]
20002e60:	2a00      	cmp	r2, #0
20002e62:	d101      	bne.n	20002e68 <ph_merge_two_pass+0x1c>
20002e64:	0020      	movs	r0, r4
20002e66:	bd70      	pop	{r4, r5, r6, pc}
20002e68:	0050      	lsls	r0, r2, #1
20002e6a:	1880      	adds	r0, r0, r2
20002e6c:	3803      	subs	r0, #3
20002e6e:	1809      	adds	r1, r1, r0
20002e70:	2000      	movs	r0, #0
20002e72:	784e      	ldrb	r6, [r1, #1]
20002e74:	7048      	strb	r0, [r1, #1]
20002e76:	0021      	movs	r1, r4
20002e78:	7058      	strb	r0, [r3, #1]
20002e7a:	0028      	movs	r0, r5
20002e7c:	f7ff ff96 	bl	20002dac <ph_merge_nodes>
20002e80:	0031      	movs	r1, r6
20002e82:	0004      	movs	r4, r0
20002e84:	0028      	movs	r0, r5
20002e86:	f7ff ffe1 	bl	20002e4c <ph_merge_two_pass>
20002e8a:	0006      	movs	r6, r0
20002e8c:	2c00      	cmp	r4, #0
20002e8e:	d026      	beq.n	20002ede <ph_merge_two_pass+0x92>
20002e90:	2800      	cmp	r0, #0
20002e92:	d0e7      	beq.n	20002e64 <ph_merge_two_pass+0x18>
20002e94:	0021      	movs	r1, r4
20002e96:	0032      	movs	r2, r6
20002e98:	68a8      	ldr	r0, [r5, #8]
20002e9a:	686b      	ldr	r3, [r5, #4]
20002e9c:	4798      	blx	r3
20002e9e:	6829      	ldr	r1, [r5, #0]
20002ea0:	2800      	cmp	r0, #0
20002ea2:	d00e      	beq.n	20002ec2 <ph_merge_two_pass+0x76>
20002ea4:	0073      	lsls	r3, r6, #1
20002ea6:	199b      	adds	r3, r3, r6
20002ea8:	0062      	lsls	r2, r4, #1
20002eaa:	3b03      	subs	r3, #3
20002eac:	1912      	adds	r2, r2, r4
20002eae:	18cb      	adds	r3, r1, r3
20002eb0:	3a03      	subs	r2, #3
20002eb2:	709c      	strb	r4, [r3, #2]
20002eb4:	1888      	adds	r0, r1, r2
20002eb6:	5c8a      	ldrb	r2, [r1, r2]
20002eb8:	2a00      	cmp	r2, #0
20002eba:	d000      	beq.n	20002ebe <ph_merge_two_pass+0x72>
20002ebc:	705a      	strb	r2, [r3, #1]
20002ebe:	7006      	strb	r6, [r0, #0]
20002ec0:	e7d0      	b.n	20002e64 <ph_merge_two_pass+0x18>
20002ec2:	0063      	lsls	r3, r4, #1
20002ec4:	191b      	adds	r3, r3, r4
20002ec6:	0072      	lsls	r2, r6, #1
20002ec8:	3b03      	subs	r3, #3
20002eca:	1992      	adds	r2, r2, r6
20002ecc:	18cb      	adds	r3, r1, r3
20002ece:	3a03      	subs	r2, #3
20002ed0:	709e      	strb	r6, [r3, #2]
20002ed2:	1888      	adds	r0, r1, r2
20002ed4:	5c8a      	ldrb	r2, [r1, r2]
20002ed6:	2a00      	cmp	r2, #0
20002ed8:	d000      	beq.n	20002edc <ph_merge_two_pass+0x90>
20002eda:	705a      	strb	r2, [r3, #1]
20002edc:	7004      	strb	r4, [r0, #0]
20002ede:	0034      	movs	r4, r6
20002ee0:	e7c0      	b.n	20002e64 <ph_merge_two_pass+0x18>
20002ee2:	46c0      	nop			; (mov r8, r8)

20002ee4 <ph_remove_any_head>:
20002ee4:	b5f0      	push	{r4, r5, r6, r7, lr}
20002ee6:	4657      	mov	r7, sl
20002ee8:	4645      	mov	r5, r8
20002eea:	46de      	mov	lr, fp
20002eec:	464e      	mov	r6, r9
20002eee:	b5e0      	push	{r5, r6, r7, lr}
20002ef0:	000d      	movs	r5, r1
20002ef2:	006f      	lsls	r7, r5, #1
20002ef4:	6801      	ldr	r1, [r0, #0]
20002ef6:	197f      	adds	r7, r7, r5
20002ef8:	3f03      	subs	r7, #3
20002efa:	0004      	movs	r4, r0
20002efc:	5dc8      	ldrb	r0, [r1, r7]
20002efe:	b083      	sub	sp, #12
20002f00:	9201      	str	r2, [sp, #4]
20002f02:	19ca      	adds	r2, r1, r7
20002f04:	2800      	cmp	r0, #0
20002f06:	d050      	beq.n	20002faa <ph_remove_any_head+0xc6>
20002f08:	0043      	lsls	r3, r0, #1
20002f0a:	181b      	adds	r3, r3, r0
20002f0c:	3b03      	subs	r3, #3
20002f0e:	18cb      	adds	r3, r1, r3
20002f10:	785e      	ldrb	r6, [r3, #1]
20002f12:	46b4      	mov	ip, r6
20002f14:	2e00      	cmp	r6, #0
20002f16:	d11a      	bne.n	20002f4e <ph_remove_any_head+0x6a>
20002f18:	9e01      	ldr	r6, [sp, #4]
20002f1a:	2e00      	cmp	r6, #0
20002f1c:	d042      	beq.n	20002fa4 <ph_remove_any_head+0xc0>
20002f1e:	7be6      	ldrb	r6, [r4, #15]
20002f20:	2e00      	cmp	r6, #0
20002f22:	d004      	beq.n	20002f2e <ph_remove_any_head+0x4a>
20002f24:	0073      	lsls	r3, r6, #1
20002f26:	199b      	adds	r3, r3, r6
20002f28:	18cb      	adds	r3, r1, r3
20002f2a:	3b03      	subs	r3, #3
20002f2c:	705d      	strb	r5, [r3, #1]
20002f2e:	7ba3      	ldrb	r3, [r4, #14]
20002f30:	2b00      	cmp	r3, #0
20002f32:	d100      	bne.n	20002f36 <ph_remove_any_head+0x52>
20002f34:	73a5      	strb	r5, [r4, #14]
20002f36:	73e5      	strb	r5, [r4, #15]
20002f38:	2800      	cmp	r0, #0
20002f3a:	d12f      	bne.n	20002f9c <ph_remove_any_head+0xb8>
20002f3c:	2300      	movs	r3, #0
20002f3e:	7053      	strb	r3, [r2, #1]
20002f40:	b003      	add	sp, #12
20002f42:	bcf0      	pop	{r4, r5, r6, r7}
20002f44:	46bb      	mov	fp, r7
20002f46:	46b2      	mov	sl, r6
20002f48:	46a9      	mov	r9, r5
20002f4a:	46a0      	mov	r8, r4
20002f4c:	bdf0      	pop	{r4, r5, r6, r7, pc}
20002f4e:	0072      	lsls	r2, r6, #1
20002f50:	4462      	add	r2, ip
20002f52:	3a03      	subs	r2, #3
20002f54:	188a      	adds	r2, r1, r2
20002f56:	7851      	ldrb	r1, [r2, #1]
20002f58:	4688      	mov	r8, r1
20002f5a:	2100      	movs	r1, #0
20002f5c:	7051      	strb	r1, [r2, #1]
20002f5e:	4689      	mov	r9, r1
20002f60:	7059      	strb	r1, [r3, #1]
20002f62:	0032      	movs	r2, r6
20002f64:	0001      	movs	r1, r0
20002f66:	0020      	movs	r0, r4
20002f68:	f7ff ff20 	bl	20002dac <ph_merge_nodes>
20002f6c:	4643      	mov	r3, r8
20002f6e:	4682      	mov	sl, r0
20002f70:	2b00      	cmp	r3, #0
20002f72:	d007      	beq.n	20002f84 <ph_remove_any_head+0xa0>
20002f74:	005b      	lsls	r3, r3, #1
20002f76:	6821      	ldr	r1, [r4, #0]
20002f78:	4443      	add	r3, r8
20002f7a:	3b03      	subs	r3, #3
20002f7c:	18cb      	adds	r3, r1, r3
20002f7e:	785a      	ldrb	r2, [r3, #1]
20002f80:	2a00      	cmp	r2, #0
20002f82:	d116      	bne.n	20002fb2 <ph_remove_any_head+0xce>
20002f84:	4642      	mov	r2, r8
20002f86:	4651      	mov	r1, sl
20002f88:	0020      	movs	r0, r4
20002f8a:	f7ff ff0f 	bl	20002dac <ph_merge_nodes>
20002f8e:	6821      	ldr	r1, [r4, #0]
20002f90:	9b01      	ldr	r3, [sp, #4]
20002f92:	19ca      	adds	r2, r1, r7
20002f94:	2b00      	cmp	r3, #0
20002f96:	d1c2      	bne.n	20002f1e <ph_remove_any_head+0x3a>
20002f98:	2800      	cmp	r0, #0
20002f9a:	d0cf      	beq.n	20002f3c <ph_remove_any_head+0x58>
20002f9c:	0043      	lsls	r3, r0, #1
20002f9e:	181b      	adds	r3, r3, r0
20002fa0:	3b03      	subs	r3, #3
20002fa2:	18cb      	adds	r3, r1, r3
20002fa4:	2100      	movs	r1, #0
20002fa6:	7099      	strb	r1, [r3, #2]
20002fa8:	e7c8      	b.n	20002f3c <ph_remove_any_head+0x58>
20002faa:	9b01      	ldr	r3, [sp, #4]
20002fac:	2b00      	cmp	r3, #0
20002fae:	d1b6      	bne.n	20002f1e <ph_remove_any_head+0x3a>
20002fb0:	e7c4      	b.n	20002f3c <ph_remove_any_head+0x58>
20002fb2:	0050      	lsls	r0, r2, #1
20002fb4:	1880      	adds	r0, r0, r2
20002fb6:	3803      	subs	r0, #3
20002fb8:	1809      	adds	r1, r1, r0
20002fba:	7848      	ldrb	r0, [r1, #1]
20002fbc:	4683      	mov	fp, r0
20002fbe:	4648      	mov	r0, r9
20002fc0:	7048      	strb	r0, [r1, #1]
20002fc2:	7058      	strb	r0, [r3, #1]
20002fc4:	4641      	mov	r1, r8
20002fc6:	0020      	movs	r0, r4
20002fc8:	f7ff fef0 	bl	20002dac <ph_merge_nodes>
20002fcc:	4659      	mov	r1, fp
20002fce:	4680      	mov	r8, r0
20002fd0:	0020      	movs	r0, r4
20002fd2:	f7ff ff3b 	bl	20002e4c <ph_merge_two_pass>
20002fd6:	4641      	mov	r1, r8
20002fd8:	0002      	movs	r2, r0
20002fda:	0020      	movs	r0, r4
20002fdc:	f7ff fee6 	bl	20002dac <ph_merge_nodes>
20002fe0:	4680      	mov	r8, r0
20002fe2:	e7cf      	b.n	20002f84 <ph_remove_any_head+0xa0>

20002fe4 <ph_remove_head>:
20002fe4:	b5f0      	push	{r4, r5, r6, r7, lr}
20002fe6:	4657      	mov	r7, sl
20002fe8:	4645      	mov	r5, r8
20002fea:	46de      	mov	lr, fp
20002fec:	464e      	mov	r6, r9
20002fee:	b5e0      	push	{r5, r6, r7, lr}
20002ff0:	b083      	sub	sp, #12
20002ff2:	9101      	str	r1, [sp, #4]
20002ff4:	7b45      	ldrb	r5, [r0, #13]
20002ff6:	0004      	movs	r4, r0
20002ff8:	006f      	lsls	r7, r5, #1
20002ffa:	6800      	ldr	r0, [r0, #0]
20002ffc:	197f      	adds	r7, r7, r5
20002ffe:	3f03      	subs	r7, #3
20003000:	5dc1      	ldrb	r1, [r0, r7]
20003002:	19c2      	adds	r2, r0, r7
20003004:	2900      	cmp	r1, #0
20003006:	d052      	beq.n	200030ae <ph_remove_head+0xca>
20003008:	004b      	lsls	r3, r1, #1
2000300a:	185b      	adds	r3, r3, r1
2000300c:	3b03      	subs	r3, #3
2000300e:	18c3      	adds	r3, r0, r3
20003010:	785e      	ldrb	r6, [r3, #1]
20003012:	46b4      	mov	ip, r6
20003014:	2e00      	cmp	r6, #0
20003016:	d11c      	bne.n	20003052 <ph_remove_head+0x6e>
20003018:	9e01      	ldr	r6, [sp, #4]
2000301a:	2e00      	cmp	r6, #0
2000301c:	d044      	beq.n	200030a8 <ph_remove_head+0xc4>
2000301e:	7be6      	ldrb	r6, [r4, #15]
20003020:	2e00      	cmp	r6, #0
20003022:	d004      	beq.n	2000302e <ph_remove_head+0x4a>
20003024:	0073      	lsls	r3, r6, #1
20003026:	199b      	adds	r3, r3, r6
20003028:	18c3      	adds	r3, r0, r3
2000302a:	3b03      	subs	r3, #3
2000302c:	705d      	strb	r5, [r3, #1]
2000302e:	7ba3      	ldrb	r3, [r4, #14]
20003030:	2b00      	cmp	r3, #0
20003032:	d100      	bne.n	20003036 <ph_remove_head+0x52>
20003034:	73a5      	strb	r5, [r4, #14]
20003036:	73e5      	strb	r5, [r4, #15]
20003038:	2900      	cmp	r1, #0
2000303a:	d131      	bne.n	200030a0 <ph_remove_head+0xbc>
2000303c:	2300      	movs	r3, #0
2000303e:	0028      	movs	r0, r5
20003040:	7053      	strb	r3, [r2, #1]
20003042:	7361      	strb	r1, [r4, #13]
20003044:	b003      	add	sp, #12
20003046:	bcf0      	pop	{r4, r5, r6, r7}
20003048:	46bb      	mov	fp, r7
2000304a:	46b2      	mov	sl, r6
2000304c:	46a9      	mov	r9, r5
2000304e:	46a0      	mov	r8, r4
20003050:	bdf0      	pop	{r4, r5, r6, r7, pc}
20003052:	0072      	lsls	r2, r6, #1
20003054:	4462      	add	r2, ip
20003056:	3a03      	subs	r2, #3
20003058:	1882      	adds	r2, r0, r2
2000305a:	7850      	ldrb	r0, [r2, #1]
2000305c:	4680      	mov	r8, r0
2000305e:	2000      	movs	r0, #0
20003060:	7050      	strb	r0, [r2, #1]
20003062:	4681      	mov	r9, r0
20003064:	7058      	strb	r0, [r3, #1]
20003066:	0032      	movs	r2, r6
20003068:	0020      	movs	r0, r4
2000306a:	f7ff fe9f 	bl	20002dac <ph_merge_nodes>
2000306e:	4643      	mov	r3, r8
20003070:	4682      	mov	sl, r0
20003072:	2b00      	cmp	r3, #0
20003074:	d007      	beq.n	20003086 <ph_remove_head+0xa2>
20003076:	005b      	lsls	r3, r3, #1
20003078:	6821      	ldr	r1, [r4, #0]
2000307a:	4443      	add	r3, r8
2000307c:	3b03      	subs	r3, #3
2000307e:	18cb      	adds	r3, r1, r3
20003080:	785a      	ldrb	r2, [r3, #1]
20003082:	2a00      	cmp	r2, #0
20003084:	d117      	bne.n	200030b6 <ph_remove_head+0xd2>
20003086:	4642      	mov	r2, r8
20003088:	4651      	mov	r1, sl
2000308a:	0020      	movs	r0, r4
2000308c:	f7ff fe8e 	bl	20002dac <ph_merge_nodes>
20003090:	9b01      	ldr	r3, [sp, #4]
20003092:	0001      	movs	r1, r0
20003094:	6820      	ldr	r0, [r4, #0]
20003096:	19c2      	adds	r2, r0, r7
20003098:	2b00      	cmp	r3, #0
2000309a:	d1c0      	bne.n	2000301e <ph_remove_head+0x3a>
2000309c:	2900      	cmp	r1, #0
2000309e:	d0cd      	beq.n	2000303c <ph_remove_head+0x58>
200030a0:	004b      	lsls	r3, r1, #1
200030a2:	185b      	adds	r3, r3, r1
200030a4:	3b03      	subs	r3, #3
200030a6:	18c3      	adds	r3, r0, r3
200030a8:	2000      	movs	r0, #0
200030aa:	7098      	strb	r0, [r3, #2]
200030ac:	e7c6      	b.n	2000303c <ph_remove_head+0x58>
200030ae:	9b01      	ldr	r3, [sp, #4]
200030b0:	2b00      	cmp	r3, #0
200030b2:	d1b4      	bne.n	2000301e <ph_remove_head+0x3a>
200030b4:	e7c2      	b.n	2000303c <ph_remove_head+0x58>
200030b6:	0050      	lsls	r0, r2, #1
200030b8:	1880      	adds	r0, r0, r2
200030ba:	3803      	subs	r0, #3
200030bc:	1809      	adds	r1, r1, r0
200030be:	7848      	ldrb	r0, [r1, #1]
200030c0:	4683      	mov	fp, r0
200030c2:	4648      	mov	r0, r9
200030c4:	7048      	strb	r0, [r1, #1]
200030c6:	7058      	strb	r0, [r3, #1]
200030c8:	4641      	mov	r1, r8
200030ca:	0020      	movs	r0, r4
200030cc:	f7ff fe6e 	bl	20002dac <ph_merge_nodes>
200030d0:	4659      	mov	r1, fp
200030d2:	4680      	mov	r8, r0
200030d4:	0020      	movs	r0, r4
200030d6:	f7ff feb9 	bl	20002e4c <ph_merge_two_pass>
200030da:	4641      	mov	r1, r8
200030dc:	0002      	movs	r2, r0
200030de:	0020      	movs	r0, r4
200030e0:	f7ff fe64 	bl	20002dac <ph_merge_nodes>
200030e4:	4680      	mov	r8, r0
200030e6:	e7ce      	b.n	20003086 <ph_remove_head+0xa2>

200030e8 <ph_remove_and_free_node>:
200030e8:	b570      	push	{r4, r5, r6, lr}
200030ea:	0005      	movs	r5, r0
200030ec:	2900      	cmp	r1, #0
200030ee:	d02c      	beq.n	2000314a <ph_remove_and_free_node+0x62>
200030f0:	7b43      	ldrb	r3, [r0, #13]
200030f2:	428b      	cmp	r3, r1
200030f4:	d02e      	beq.n	20003154 <ph_remove_and_free_node+0x6c>
200030f6:	004c      	lsls	r4, r1, #1
200030f8:	6800      	ldr	r0, [r0, #0]
200030fa:	1864      	adds	r4, r4, r1
200030fc:	3c03      	subs	r4, #3
200030fe:	1904      	adds	r4, r0, r4
20003100:	78a2      	ldrb	r2, [r4, #2]
20003102:	2a00      	cmp	r2, #0
20003104:	d021      	beq.n	2000314a <ph_remove_and_free_node+0x62>
20003106:	0053      	lsls	r3, r2, #1
20003108:	189b      	adds	r3, r3, r2
2000310a:	3b03      	subs	r3, #3
2000310c:	5cc2      	ldrb	r2, [r0, r3]
2000310e:	18c6      	adds	r6, r0, r3
20003110:	428a      	cmp	r2, r1
20003112:	d102      	bne.n	2000311a <ph_remove_and_free_node+0x32>
20003114:	e01b      	b.n	2000314e <ph_remove_and_free_node+0x66>
20003116:	2a00      	cmp	r2, #0
20003118:	d008      	beq.n	2000312c <ph_remove_and_free_node+0x44>
2000311a:	0053      	lsls	r3, r2, #1
2000311c:	189b      	adds	r3, r3, r2
2000311e:	3b03      	subs	r3, #3
20003120:	18c3      	adds	r3, r0, r3
20003122:	785a      	ldrb	r2, [r3, #1]
20003124:	428a      	cmp	r2, r1
20003126:	d1f6      	bne.n	20003116 <ph_remove_and_free_node+0x2e>
20003128:	7862      	ldrb	r2, [r4, #1]
2000312a:	705a      	strb	r2, [r3, #1]
2000312c:	2300      	movs	r3, #0
2000312e:	2201      	movs	r2, #1
20003130:	0028      	movs	r0, r5
20003132:	70a3      	strb	r3, [r4, #2]
20003134:	7063      	strb	r3, [r4, #1]
20003136:	f7ff fed5 	bl	20002ee4 <ph_remove_any_head>
2000313a:	7b69      	ldrb	r1, [r5, #13]
2000313c:	0002      	movs	r2, r0
2000313e:	0028      	movs	r0, r5
20003140:	f7ff fe34 	bl	20002dac <ph_merge_nodes>
20003144:	7368      	strb	r0, [r5, #13]
20003146:	2001      	movs	r0, #1
20003148:	e000      	b.n	2000314c <ph_remove_and_free_node+0x64>
2000314a:	2000      	movs	r0, #0
2000314c:	bd70      	pop	{r4, r5, r6, pc}
2000314e:	7863      	ldrb	r3, [r4, #1]
20003150:	7033      	strb	r3, [r6, #0]
20003152:	e7eb      	b.n	2000312c <ph_remove_and_free_node+0x44>
20003154:	2201      	movs	r2, #1
20003156:	0019      	movs	r1, r3
20003158:	f7ff fec4 	bl	20002ee4 <ph_remove_any_head>
2000315c:	e7f2      	b.n	20003144 <ph_remove_and_free_node+0x5c>
2000315e:	46c0      	nop			; (mov r8, r8)

20003160 <gpio_set_function>:
20003160:	4a09      	ldr	r2, [pc, #36]	; (20003188 <gpio_set_function+0x28>)
20003162:	b510      	push	{r4, lr}
20003164:	4694      	mov	ip, r2
20003166:	2440      	movs	r4, #64	; 0x40
20003168:	0083      	lsls	r3, r0, #2
2000316a:	4463      	add	r3, ip
2000316c:	681a      	ldr	r2, [r3, #0]
2000316e:	00c0      	lsls	r0, r0, #3
20003170:	4062      	eors	r2, r4
20003172:	3480      	adds	r4, #128	; 0x80
20003174:	4014      	ands	r4, r2
20003176:	2280      	movs	r2, #128	; 0x80
20003178:	0152      	lsls	r2, r2, #5
2000317a:	4313      	orrs	r3, r2
2000317c:	601c      	str	r4, [r3, #0]
2000317e:	4b03      	ldr	r3, [pc, #12]	; (2000318c <gpio_set_function+0x2c>)
20003180:	469c      	mov	ip, r3
20003182:	4460      	add	r0, ip
20003184:	6041      	str	r1, [r0, #4]
20003186:	bd10      	pop	{r4, pc}
20003188:	4001c004 	.word	0x4001c004
2000318c:	40014000 	.word	0x40014000

20003190 <gpio_get_function>:
20003190:	4b03      	ldr	r3, [pc, #12]	; (200031a0 <gpio_get_function+0x10>)
20003192:	00c0      	lsls	r0, r0, #3
20003194:	469c      	mov	ip, r3
20003196:	4460      	add	r0, ip
20003198:	6843      	ldr	r3, [r0, #4]
2000319a:	201f      	movs	r0, #31
2000319c:	4018      	ands	r0, r3
2000319e:	4770      	bx	lr
200031a0:	40014000 	.word	0x40014000

200031a4 <gpio_set_pulls>:
200031a4:	4b07      	ldr	r3, [pc, #28]	; (200031c4 <gpio_set_pulls+0x20>)
200031a6:	0080      	lsls	r0, r0, #2
200031a8:	469c      	mov	ip, r3
200031aa:	4460      	add	r0, ip
200031ac:	6803      	ldr	r3, [r0, #0]
200031ae:	00c9      	lsls	r1, r1, #3
200031b0:	0092      	lsls	r2, r2, #2
200031b2:	430a      	orrs	r2, r1
200031b4:	405a      	eors	r2, r3
200031b6:	230c      	movs	r3, #12
200031b8:	401a      	ands	r2, r3
200031ba:	2380      	movs	r3, #128	; 0x80
200031bc:	015b      	lsls	r3, r3, #5
200031be:	4303      	orrs	r3, r0
200031c0:	601a      	str	r2, [r3, #0]
200031c2:	4770      	bx	lr
200031c4:	4001c004 	.word	0x4001c004

200031c8 <gpio_set_inover>:
200031c8:	4b07      	ldr	r3, [pc, #28]	; (200031e8 <gpio_set_inover+0x20>)
200031ca:	00c0      	lsls	r0, r0, #3
200031cc:	469c      	mov	ip, r3
200031ce:	4460      	add	r0, ip
200031d0:	6803      	ldr	r3, [r0, #0]
200031d2:	0409      	lsls	r1, r1, #16
200031d4:	4059      	eors	r1, r3
200031d6:	23c0      	movs	r3, #192	; 0xc0
200031d8:	029b      	lsls	r3, r3, #10
200031da:	4019      	ands	r1, r3
200031dc:	2380      	movs	r3, #128	; 0x80
200031de:	015b      	lsls	r3, r3, #5
200031e0:	4303      	orrs	r3, r0
200031e2:	6019      	str	r1, [r3, #0]
200031e4:	4770      	bx	lr
200031e6:	46c0      	nop			; (mov r8, r8)
200031e8:	40014004 	.word	0x40014004

200031ec <gpio_set_oeover>:
200031ec:	4b07      	ldr	r3, [pc, #28]	; (2000320c <gpio_set_oeover+0x20>)
200031ee:	00c0      	lsls	r0, r0, #3
200031f0:	469c      	mov	ip, r3
200031f2:	4460      	add	r0, ip
200031f4:	6803      	ldr	r3, [r0, #0]
200031f6:	0309      	lsls	r1, r1, #12
200031f8:	4059      	eors	r1, r3
200031fa:	23c0      	movs	r3, #192	; 0xc0
200031fc:	019b      	lsls	r3, r3, #6
200031fe:	4019      	ands	r1, r3
20003200:	2380      	movs	r3, #128	; 0x80
20003202:	015b      	lsls	r3, r3, #5
20003204:	4303      	orrs	r3, r0
20003206:	6019      	str	r1, [r3, #0]
20003208:	4770      	bx	lr
2000320a:	46c0      	nop			; (mov r8, r8)
2000320c:	40014004 	.word	0x40014004

20003210 <gpio_init>:
20003210:	2301      	movs	r3, #1
20003212:	22d0      	movs	r2, #208	; 0xd0
20003214:	4083      	lsls	r3, r0
20003216:	0612      	lsls	r2, r2, #24
20003218:	6293      	str	r3, [r2, #40]	; 0x28
2000321a:	6193      	str	r3, [r2, #24]
2000321c:	4a09      	ldr	r2, [pc, #36]	; (20003244 <gpio_init+0x34>)
2000321e:	2140      	movs	r1, #64	; 0x40
20003220:	4694      	mov	ip, r2
20003222:	0083      	lsls	r3, r0, #2
20003224:	4463      	add	r3, ip
20003226:	681a      	ldr	r2, [r3, #0]
20003228:	00c0      	lsls	r0, r0, #3
2000322a:	404a      	eors	r2, r1
2000322c:	3180      	adds	r1, #128	; 0x80
2000322e:	4011      	ands	r1, r2
20003230:	2280      	movs	r2, #128	; 0x80
20003232:	0152      	lsls	r2, r2, #5
20003234:	4313      	orrs	r3, r2
20003236:	6019      	str	r1, [r3, #0]
20003238:	4b03      	ldr	r3, [pc, #12]	; (20003248 <gpio_init+0x38>)
2000323a:	469c      	mov	ip, r3
2000323c:	2305      	movs	r3, #5
2000323e:	4460      	add	r0, ip
20003240:	6043      	str	r3, [r0, #4]
20003242:	4770      	bx	lr
20003244:	4001c004 	.word	0x4001c004
20003248:	40014000 	.word	0x40014000

2000324c <uart_init>:
2000324c:	b5f8      	push	{r3, r4, r5, r6, r7, lr}
2000324e:	46ce      	mov	lr, r9
20003250:	4647      	mov	r7, r8
20003252:	0004      	movs	r4, r0
20003254:	b580      	push	{r7, lr}
20003256:	2006      	movs	r0, #6
20003258:	000e      	movs	r6, r1
2000325a:	f000 fa9f 	bl	2000379c <clock_get_hz>
2000325e:	1e05      	subs	r5, r0, #0
20003260:	d051      	beq.n	20003306 <uart_init+0xba>
20003262:	4b52      	ldr	r3, [pc, #328]	; (200033ac <uart_init+0x160>)
20003264:	4952      	ldr	r1, [pc, #328]	; (200033b0 <uart_init+0x164>)
20003266:	18e2      	adds	r2, r4, r3
20003268:	4253      	negs	r3, r2
2000326a:	415a      	adcs	r2, r3
2000326c:	2380      	movs	r3, #128	; 0x80
2000326e:	03db      	lsls	r3, r3, #15
20003270:	469c      	mov	ip, r3
20003272:	0592      	lsls	r2, r2, #22
20003274:	4b4f      	ldr	r3, [pc, #316]	; (200033b4 <uart_init+0x168>)
20003276:	4462      	add	r2, ip
20003278:	601a      	str	r2, [r3, #0]
2000327a:	4b4f      	ldr	r3, [pc, #316]	; (200033b8 <uart_init+0x16c>)
2000327c:	601a      	str	r2, [r3, #0]
2000327e:	0010      	movs	r0, r2
20003280:	688b      	ldr	r3, [r1, #8]
20003282:	4398      	bics	r0, r3
20003284:	d1fb      	bne.n	2000327e <uart_init+0x32>
20003286:	4b49      	ldr	r3, [pc, #292]	; (200033ac <uart_init+0x160>)
20003288:	4a4c      	ldr	r2, [pc, #304]	; (200033bc <uart_init+0x170>)
2000328a:	18e3      	adds	r3, r4, r3
2000328c:	4259      	negs	r1, r3
2000328e:	414b      	adcs	r3, r1
20003290:	2180      	movs	r1, #128	; 0x80
20003292:	005b      	lsls	r3, r3, #1
20003294:	0049      	lsls	r1, r1, #1
20003296:	2006      	movs	r0, #6
20003298:	5299      	strh	r1, [r3, r2]
2000329a:	f000 fa7f 	bl	2000379c <clock_get_hz>
2000329e:	0031      	movs	r1, r6
200032a0:	00c0      	lsls	r0, r0, #3
200032a2:	f000 fbef 	bl	20003a84 <__wrap___aeabi_uidiv>
200032a6:	09c3      	lsrs	r3, r0, #7
200032a8:	d132      	bne.n	20003310 <uart_init+0xc4>
200032aa:	2240      	movs	r2, #64	; 0x40
200032ac:	2101      	movs	r1, #1
200032ae:	4690      	mov	r8, r2
200032b0:	6261      	str	r1, [r4, #36]	; 0x24
200032b2:	62a3      	str	r3, [r4, #40]	; 0x28
200032b4:	6b25      	ldr	r5, [r4, #48]	; 0x30
200032b6:	07eb      	lsls	r3, r5, #31
200032b8:	d436      	bmi.n	20003328 <uart_init+0xdc>
200032ba:	0027      	movs	r7, r4
200032bc:	2680      	movs	r6, #128	; 0x80
200032be:	6ae3      	ldr	r3, [r4, #44]	; 0x2c
200032c0:	2300      	movs	r3, #0
200032c2:	372c      	adds	r7, #44	; 0x2c
200032c4:	0176      	lsls	r6, r6, #5
200032c6:	433e      	orrs	r6, r7
200032c8:	6033      	str	r3, [r6, #0]
200032ca:	2006      	movs	r0, #6
200032cc:	6325      	str	r5, [r4, #48]	; 0x30
200032ce:	f000 fa65 	bl	2000379c <clock_get_hz>
200032d2:	4641      	mov	r1, r8
200032d4:	0080      	lsls	r0, r0, #2
200032d6:	f000 fbd5 	bl	20003a84 <__wrap___aeabi_uidiv>
200032da:	6b23      	ldr	r3, [r4, #48]	; 0x30
200032dc:	0005      	movs	r5, r0
200032de:	4698      	mov	r8, r3
200032e0:	07db      	lsls	r3, r3, #31
200032e2:	d43b      	bmi.n	2000335c <uart_init+0x110>
200032e4:	2360      	movs	r3, #96	; 0x60
200032e6:	6ae2      	ldr	r2, [r4, #44]	; 0x2c
200032e8:	405a      	eors	r2, r3
200032ea:	330e      	adds	r3, #14
200032ec:	4013      	ands	r3, r2
200032ee:	6033      	str	r3, [r6, #0]
200032f0:	4643      	mov	r3, r8
200032f2:	6323      	str	r3, [r4, #48]	; 0x30
200032f4:	2380      	movs	r3, #128	; 0x80
200032f6:	2210      	movs	r2, #16
200032f8:	019b      	lsls	r3, r3, #6
200032fa:	433b      	orrs	r3, r7
200032fc:	601a      	str	r2, [r3, #0]
200032fe:	4b30      	ldr	r3, [pc, #192]	; (200033c0 <uart_init+0x174>)
20003300:	6323      	str	r3, [r4, #48]	; 0x30
20003302:	2303      	movs	r3, #3
20003304:	64a3      	str	r3, [r4, #72]	; 0x48
20003306:	0028      	movs	r0, r5
20003308:	bcc0      	pop	{r6, r7}
2000330a:	46b9      	mov	r9, r7
2000330c:	46b0      	mov	r8, r6
2000330e:	bdf8      	pop	{r3, r4, r5, r6, r7, pc}
20003310:	4a2c      	ldr	r2, [pc, #176]	; (200033c4 <uart_init+0x178>)
20003312:	4293      	cmp	r3, r2
20003314:	d93f      	bls.n	20003396 <uart_init+0x14a>
20003316:	2300      	movs	r3, #0
20003318:	492b      	ldr	r1, [pc, #172]	; (200033c8 <uart_init+0x17c>)
2000331a:	4a2c      	ldr	r2, [pc, #176]	; (200033cc <uart_init+0x180>)
2000331c:	6261      	str	r1, [r4, #36]	; 0x24
2000331e:	62a3      	str	r3, [r4, #40]	; 0x28
20003320:	6b25      	ldr	r5, [r4, #48]	; 0x30
20003322:	4690      	mov	r8, r2
20003324:	07eb      	lsls	r3, r5, #31
20003326:	d5c8      	bpl.n	200032ba <uart_init+0x6e>
20003328:	0022      	movs	r2, r4
2000332a:	23c0      	movs	r3, #192	; 0xc0
2000332c:	3230      	adds	r2, #48	; 0x30
2000332e:	019b      	lsls	r3, r3, #6
20003330:	4313      	orrs	r3, r2
20003332:	4a23      	ldr	r2, [pc, #140]	; (200033c0 <uart_init+0x174>)
20003334:	2006      	movs	r0, #6
20003336:	601a      	str	r2, [r3, #0]
20003338:	6a66      	ldr	r6, [r4, #36]	; 0x24
2000333a:	6aa3      	ldr	r3, [r4, #40]	; 0x28
2000333c:	01b6      	lsls	r6, r6, #6
2000333e:	18f6      	adds	r6, r6, r3
20003340:	f000 fa2c 	bl	2000379c <clock_get_hz>
20003344:	4922      	ldr	r1, [pc, #136]	; (200033d0 <uart_init+0x184>)
20003346:	f000 fb9d 	bl	20003a84 <__wrap___aeabi_uidiv>
2000334a:	02b6      	lsls	r6, r6, #10
2000334c:	0001      	movs	r1, r0
2000334e:	0030      	movs	r0, r6
20003350:	f000 fb98 	bl	20003a84 <__wrap___aeabi_uidiv>
20003354:	2100      	movs	r1, #0
20003356:	f7ff f8c9 	bl	200024ec <busy_wait_us>
2000335a:	e7ae      	b.n	200032ba <uart_init+0x6e>
2000335c:	0022      	movs	r2, r4
2000335e:	23c0      	movs	r3, #192	; 0xc0
20003360:	3230      	adds	r2, #48	; 0x30
20003362:	019b      	lsls	r3, r3, #6
20003364:	4313      	orrs	r3, r2
20003366:	4a16      	ldr	r2, [pc, #88]	; (200033c0 <uart_init+0x174>)
20003368:	2006      	movs	r0, #6
2000336a:	601a      	str	r2, [r3, #0]
2000336c:	6a63      	ldr	r3, [r4, #36]	; 0x24
2000336e:	6aa2      	ldr	r2, [r4, #40]	; 0x28
20003370:	019b      	lsls	r3, r3, #6
20003372:	4699      	mov	r9, r3
20003374:	4491      	add	r9, r2
20003376:	f000 fa11 	bl	2000379c <clock_get_hz>
2000337a:	464b      	mov	r3, r9
2000337c:	4914      	ldr	r1, [pc, #80]	; (200033d0 <uart_init+0x184>)
2000337e:	029b      	lsls	r3, r3, #10
20003380:	4699      	mov	r9, r3
20003382:	f000 fb7f 	bl	20003a84 <__wrap___aeabi_uidiv>
20003386:	0001      	movs	r1, r0
20003388:	4648      	mov	r0, r9
2000338a:	f000 fb7b 	bl	20003a84 <__wrap___aeabi_uidiv>
2000338e:	2100      	movs	r1, #0
20003390:	f7ff f8ac 	bl	200024ec <busy_wait_us>
20003394:	e7a6      	b.n	200032e4 <uart_init+0x98>
20003396:	227f      	movs	r2, #127	; 0x7f
20003398:	0199      	lsls	r1, r3, #6
2000339a:	4688      	mov	r8, r1
2000339c:	4002      	ands	r2, r0
2000339e:	3201      	adds	r2, #1
200033a0:	0852      	lsrs	r2, r2, #1
200033a2:	0019      	movs	r1, r3
200033a4:	4490      	add	r8, r2
200033a6:	0013      	movs	r3, r2
200033a8:	e782      	b.n	200032b0 <uart_init+0x64>
200033aa:	46c0      	nop			; (mov r8, r8)
200033ac:	bffc8000 	.word	0xbffc8000
200033b0:	4000c000 	.word	0x4000c000
200033b4:	4000e000 	.word	0x4000e000
200033b8:	4000f000 	.word	0x4000f000
200033bc:	20010488 	.word	0x20010488
200033c0:	00000301 	.word	0x00000301
200033c4:	0000fffe 	.word	0x0000fffe
200033c8:	0000ffff 	.word	0x0000ffff
200033cc:	003fffc0 	.word	0x003fffc0
200033d0:	00000e4e 	.word	0x00000e4e

200033d4 <uart_deinit>:
200033d4:	4b06      	ldr	r3, [pc, #24]	; (200033f0 <uart_deinit+0x1c>)
200033d6:	18c3      	adds	r3, r0, r3
200033d8:	1e5a      	subs	r2, r3, #1
200033da:	4193      	sbcs	r3, r2
200033dc:	2280      	movs	r2, #128	; 0x80
200033de:	0412      	lsls	r2, r2, #16
200033e0:	4694      	mov	ip, r2
200033e2:	425b      	negs	r3, r3
200033e4:	0d9b      	lsrs	r3, r3, #22
200033e6:	4a03      	ldr	r2, [pc, #12]	; (200033f4 <uart_deinit+0x20>)
200033e8:	059b      	lsls	r3, r3, #22
200033ea:	4463      	add	r3, ip
200033ec:	6013      	str	r3, [r2, #0]
200033ee:	4770      	bx	lr
200033f0:	bffc8000 	.word	0xbffc8000
200033f4:	4000e000 	.word	0x4000e000

200033f8 <uart_set_format>:
200033f8:	3905      	subs	r1, #5
200033fa:	3a01      	subs	r2, #1
200033fc:	b5f8      	push	{r3, r4, r5, r6, r7, lr}
200033fe:	00d2      	lsls	r2, r2, #3
20003400:	014c      	lsls	r4, r1, #5
20003402:	0005      	movs	r5, r0
20003404:	4314      	orrs	r4, r2
20003406:	2b00      	cmp	r3, #0
20003408:	d006      	beq.n	20003418 <uart_set_format+0x20>
2000340a:	3b01      	subs	r3, #1
2000340c:	425a      	negs	r2, r3
2000340e:	4153      	adcs	r3, r2
20003410:	009b      	lsls	r3, r3, #2
20003412:	4323      	orrs	r3, r4
20003414:	2402      	movs	r4, #2
20003416:	431c      	orrs	r4, r3
20003418:	6b2e      	ldr	r6, [r5, #48]	; 0x30
2000341a:	07f3      	lsls	r3, r6, #31
2000341c:	d40b      	bmi.n	20003436 <uart_set_format+0x3e>
2000341e:	226e      	movs	r2, #110	; 0x6e
20003420:	6aeb      	ldr	r3, [r5, #44]	; 0x2c
20003422:	0029      	movs	r1, r5
20003424:	4063      	eors	r3, r4
20003426:	401a      	ands	r2, r3
20003428:	2380      	movs	r3, #128	; 0x80
2000342a:	312c      	adds	r1, #44	; 0x2c
2000342c:	015b      	lsls	r3, r3, #5
2000342e:	430b      	orrs	r3, r1
20003430:	601a      	str	r2, [r3, #0]
20003432:	632e      	str	r6, [r5, #48]	; 0x30
20003434:	bdf8      	pop	{r3, r4, r5, r6, r7, pc}
20003436:	002a      	movs	r2, r5
20003438:	23c0      	movs	r3, #192	; 0xc0
2000343a:	3230      	adds	r2, #48	; 0x30
2000343c:	019b      	lsls	r3, r3, #6
2000343e:	4313      	orrs	r3, r2
20003440:	4a0a      	ldr	r2, [pc, #40]	; (2000346c <uart_set_format+0x74>)
20003442:	2006      	movs	r0, #6
20003444:	601a      	str	r2, [r3, #0]
20003446:	6a6f      	ldr	r7, [r5, #36]	; 0x24
20003448:	6aab      	ldr	r3, [r5, #40]	; 0x28
2000344a:	01bf      	lsls	r7, r7, #6
2000344c:	18ff      	adds	r7, r7, r3
2000344e:	f000 f9a5 	bl	2000379c <clock_get_hz>
20003452:	4907      	ldr	r1, [pc, #28]	; (20003470 <uart_set_format+0x78>)
20003454:	f000 fb16 	bl	20003a84 <__wrap___aeabi_uidiv>
20003458:	02bf      	lsls	r7, r7, #10
2000345a:	0001      	movs	r1, r0
2000345c:	0038      	movs	r0, r7
2000345e:	f000 fb11 	bl	20003a84 <__wrap___aeabi_uidiv>
20003462:	2100      	movs	r1, #0
20003464:	f7ff f842 	bl	200024ec <busy_wait_us>
20003468:	e7d9      	b.n	2000341e <uart_set_format+0x26>
2000346a:	46c0      	nop			; (mov r8, r8)
2000346c:	00000301 	.word	0x00000301
20003470:	00000e4e 	.word	0x00000e4e

20003474 <uart_set_break>:
20003474:	b5f8      	push	{r3, r4, r5, r6, r7, lr}
20003476:	6b06      	ldr	r6, [r0, #48]	; 0x30
20003478:	0004      	movs	r4, r0
2000347a:	000d      	movs	r5, r1
2000347c:	07f3      	lsls	r3, r6, #31
2000347e:	d40b      	bmi.n	20003498 <uart_set_break+0x24>
20003480:	6ae3      	ldr	r3, [r4, #44]	; 0x2c
20003482:	0022      	movs	r2, r4
20003484:	405d      	eors	r5, r3
20003486:	2301      	movs	r3, #1
20003488:	401d      	ands	r5, r3
2000348a:	2380      	movs	r3, #128	; 0x80
2000348c:	322c      	adds	r2, #44	; 0x2c
2000348e:	015b      	lsls	r3, r3, #5
20003490:	4313      	orrs	r3, r2
20003492:	601d      	str	r5, [r3, #0]
20003494:	6326      	str	r6, [r4, #48]	; 0x30
20003496:	bdf8      	pop	{r3, r4, r5, r6, r7, pc}
20003498:	0002      	movs	r2, r0
2000349a:	23c0      	movs	r3, #192	; 0xc0
2000349c:	3230      	adds	r2, #48	; 0x30
2000349e:	019b      	lsls	r3, r3, #6
200034a0:	4313      	orrs	r3, r2
200034a2:	4a0a      	ldr	r2, [pc, #40]	; (200034cc <uart_set_break+0x58>)
200034a4:	601a      	str	r2, [r3, #0]
200034a6:	6a47      	ldr	r7, [r0, #36]	; 0x24
200034a8:	6a83      	ldr	r3, [r0, #40]	; 0x28
200034aa:	01bf      	lsls	r7, r7, #6
200034ac:	2006      	movs	r0, #6
200034ae:	18ff      	adds	r7, r7, r3
200034b0:	f000 f974 	bl	2000379c <clock_get_hz>
200034b4:	4906      	ldr	r1, [pc, #24]	; (200034d0 <uart_set_break+0x5c>)
200034b6:	f000 fae5 	bl	20003a84 <__wrap___aeabi_uidiv>
200034ba:	02bf      	lsls	r7, r7, #10
200034bc:	0001      	movs	r1, r0
200034be:	0038      	movs	r0, r7
200034c0:	f000 fae0 	bl	20003a84 <__wrap___aeabi_uidiv>
200034c4:	2100      	movs	r1, #0
200034c6:	f7ff f811 	bl	200024ec <busy_wait_us>
200034ca:	e7d9      	b.n	20003480 <uart_set_break+0xc>
200034cc:	00000301 	.word	0x00000301
200034d0:	00000e4e 	.word	0x00000e4e

200034d4 <clocks_init>:
200034d4:	b510      	push	{r4, lr}
200034d6:	200c      	movs	r0, #12
200034d8:	b082      	sub	sp, #8
200034da:	f000 f9b5 	bl	20003848 <watchdog_start_tick>
200034de:	f7ff f905 	bl	200026ec <running_on_fpga>
200034e2:	2800      	cmp	r0, #0
200034e4:	d010      	beq.n	20003508 <clocks_init+0x34>
200034e6:	4b8b      	ldr	r3, [pc, #556]	; (20003714 <clocks_init+0x240>)
200034e8:	488b      	ldr	r0, [pc, #556]	; (20003718 <clocks_init+0x244>)
200034ea:	498b      	ldr	r1, [pc, #556]	; (20003718 <clocks_init+0x244>)
200034ec:	4a8b      	ldr	r2, [pc, #556]	; (2000371c <clocks_init+0x248>)
200034ee:	6018      	str	r0, [r3, #0]
200034f0:	6059      	str	r1, [r3, #4]
200034f2:	6098      	str	r0, [r3, #8]
200034f4:	60d9      	str	r1, [r3, #12]
200034f6:	6118      	str	r0, [r3, #16]
200034f8:	6159      	str	r1, [r3, #20]
200034fa:	6198      	str	r0, [r3, #24]
200034fc:	61d9      	str	r1, [r3, #28]
200034fe:	6218      	str	r0, [r3, #32]
20003500:	6259      	str	r1, [r3, #36]	; 0x24
20003502:	625a      	str	r2, [r3, #36]	; 0x24
20003504:	b002      	add	sp, #8
20003506:	bd10      	pop	{r4, pc}
20003508:	4c85      	ldr	r4, [pc, #532]	; (20003720 <clocks_init+0x24c>)
2000350a:	67a0      	str	r0, [r4, #120]	; 0x78
2000350c:	f000 f9a4 	bl	20003858 <xosc_init>
20003510:	2201      	movs	r2, #1
20003512:	4b84      	ldr	r3, [pc, #528]	; (20003724 <clocks_init+0x250>)
20003514:	601a      	str	r2, [r3, #0]
20003516:	6c63      	ldr	r3, [r4, #68]	; 0x44
20003518:	2b01      	cmp	r3, #1
2000351a:	d1fc      	bne.n	20003516 <clocks_init+0x42>
2000351c:	2203      	movs	r2, #3
2000351e:	4b82      	ldr	r3, [pc, #520]	; (20003728 <clocks_init+0x254>)
20003520:	601a      	str	r2, [r3, #0]
20003522:	4a7f      	ldr	r2, [pc, #508]	; (20003720 <clocks_init+0x24c>)
20003524:	6b93      	ldr	r3, [r2, #56]	; 0x38
20003526:	2b01      	cmp	r3, #1
20003528:	d1fc      	bne.n	20003524 <clocks_init+0x50>
2000352a:	3301      	adds	r3, #1
2000352c:	2101      	movs	r1, #1
2000352e:	4a7f      	ldr	r2, [pc, #508]	; (2000372c <clocks_init+0x258>)
20003530:	487f      	ldr	r0, [pc, #508]	; (20003730 <clocks_init+0x25c>)
20003532:	9300      	str	r3, [sp, #0]
20003534:	3304      	adds	r3, #4
20003536:	f000 f937 	bl	200037a8 <pll_init>
2000353a:	2305      	movs	r3, #5
2000353c:	4a7d      	ldr	r2, [pc, #500]	; (20003734 <clocks_init+0x260>)
2000353e:	9300      	str	r3, [sp, #0]
20003540:	2101      	movs	r1, #1
20003542:	487d      	ldr	r0, [pc, #500]	; (20003738 <clocks_init+0x264>)
20003544:	f000 f930 	bl	200037a8 <pll_init>
20003548:	4b7c      	ldr	r3, [pc, #496]	; (2000373c <clocks_init+0x268>)
2000354a:	685a      	ldr	r2, [r3, #4]
2000354c:	2aff      	cmp	r2, #255	; 0xff
2000354e:	d802      	bhi.n	20003556 <clocks_init+0x82>
20003550:	2280      	movs	r2, #128	; 0x80
20003552:	0052      	lsls	r2, r2, #1
20003554:	605a      	str	r2, [r3, #4]
20003556:	2280      	movs	r2, #128	; 0x80
20003558:	4b73      	ldr	r3, [pc, #460]	; (20003728 <clocks_init+0x254>)
2000355a:	4c6e      	ldr	r4, [pc, #440]	; (20003714 <clocks_init+0x240>)
2000355c:	0112      	lsls	r2, r2, #4
2000355e:	601a      	str	r2, [r3, #0]
20003560:	6921      	ldr	r1, [r4, #16]
20003562:	2900      	cmp	r1, #0
20003564:	d007      	beq.n	20003576 <clocks_init+0xa2>
20003566:	6960      	ldr	r0, [r4, #20]
20003568:	f000 fa8c 	bl	20003a84 <__wrap___aeabi_uidiv>
2000356c:	3001      	adds	r0, #1
2000356e:	0043      	lsls	r3, r0, #1
20003570:	181b      	adds	r3, r3, r0
20003572:	3b03      	subs	r3, #3
20003574:	d2fd      	bcs.n	20003572 <clocks_init+0x9e>
20003576:	22e0      	movs	r2, #224	; 0xe0
20003578:	4b70      	ldr	r3, [pc, #448]	; (2000373c <clocks_init+0x268>)
2000357a:	4871      	ldr	r0, [pc, #452]	; (20003740 <clocks_init+0x26c>)
2000357c:	6819      	ldr	r1, [r3, #0]
2000357e:	400a      	ands	r2, r1
20003580:	6002      	str	r2, [r0, #0]
20003582:	2202      	movs	r2, #2
20003584:	6819      	ldr	r1, [r3, #0]
20003586:	4051      	eors	r1, r2
20003588:	3201      	adds	r2, #1
2000358a:	400a      	ands	r2, r1
2000358c:	2104      	movs	r1, #4
2000358e:	6002      	str	r2, [r0, #0]
20003590:	689a      	ldr	r2, [r3, #8]
20003592:	4211      	tst	r1, r2
20003594:	d0fc      	beq.n	20003590 <clocks_init+0xbc>
20003596:	2180      	movs	r1, #128	; 0x80
20003598:	4a6a      	ldr	r2, [pc, #424]	; (20003744 <clocks_init+0x270>)
2000359a:	0109      	lsls	r1, r1, #4
2000359c:	6011      	str	r1, [r2, #0]
2000359e:	2280      	movs	r2, #128	; 0x80
200035a0:	0052      	lsls	r2, r2, #1
200035a2:	605a      	str	r2, [r3, #4]
200035a4:	4b68      	ldr	r3, [pc, #416]	; (20003748 <clocks_init+0x274>)
200035a6:	6123      	str	r3, [r4, #16]
200035a8:	4b68      	ldr	r3, [pc, #416]	; (2000374c <clocks_init+0x278>)
200035aa:	6859      	ldr	r1, [r3, #4]
200035ac:	29ff      	cmp	r1, #255	; 0xff
200035ae:	d800      	bhi.n	200035b2 <clocks_init+0xde>
200035b0:	605a      	str	r2, [r3, #4]
200035b2:	2203      	movs	r2, #3
200035b4:	2101      	movs	r1, #1
200035b6:	4b5b      	ldr	r3, [pc, #364]	; (20003724 <clocks_init+0x250>)
200035b8:	601a      	str	r2, [r3, #0]
200035ba:	4a64      	ldr	r2, [pc, #400]	; (2000374c <clocks_init+0x278>)
200035bc:	6893      	ldr	r3, [r2, #8]
200035be:	4219      	tst	r1, r3
200035c0:	d0fc      	beq.n	200035bc <clocks_init+0xe8>
200035c2:	23e0      	movs	r3, #224	; 0xe0
200035c4:	6810      	ldr	r0, [r2, #0]
200035c6:	4003      	ands	r3, r0
200035c8:	4861      	ldr	r0, [pc, #388]	; (20003750 <clocks_init+0x27c>)
200035ca:	6003      	str	r3, [r0, #0]
200035cc:	6812      	ldr	r2, [r2, #0]
200035ce:	2303      	movs	r3, #3
200035d0:	404a      	eors	r2, r1
200035d2:	2102      	movs	r1, #2
200035d4:	4013      	ands	r3, r2
200035d6:	4a5d      	ldr	r2, [pc, #372]	; (2000374c <clocks_init+0x278>)
200035d8:	6003      	str	r3, [r0, #0]
200035da:	6893      	ldr	r3, [r2, #8]
200035dc:	4219      	tst	r1, r3
200035de:	d0fc      	beq.n	200035da <clocks_init+0x106>
200035e0:	2180      	movs	r1, #128	; 0x80
200035e2:	4b5c      	ldr	r3, [pc, #368]	; (20003754 <clocks_init+0x280>)
200035e4:	0109      	lsls	r1, r1, #4
200035e6:	6019      	str	r1, [r3, #0]
200035e8:	2180      	movs	r1, #128	; 0x80
200035ea:	4b5b      	ldr	r3, [pc, #364]	; (20003758 <clocks_init+0x284>)
200035ec:	0049      	lsls	r1, r1, #1
200035ee:	6051      	str	r1, [r2, #4]
200035f0:	6163      	str	r3, [r4, #20]
200035f2:	4b5a      	ldr	r3, [pc, #360]	; (2000375c <clocks_init+0x288>)
200035f4:	685a      	ldr	r2, [r3, #4]
200035f6:	2aff      	cmp	r2, #255	; 0xff
200035f8:	d800      	bhi.n	200035fc <clocks_init+0x128>
200035fa:	6059      	str	r1, [r3, #4]
200035fc:	2280      	movs	r2, #128	; 0x80
200035fe:	4b58      	ldr	r3, [pc, #352]	; (20003760 <clocks_init+0x28c>)
20003600:	0112      	lsls	r2, r2, #4
20003602:	601a      	str	r2, [r3, #0]
20003604:	69e1      	ldr	r1, [r4, #28]
20003606:	2900      	cmp	r1, #0
20003608:	d007      	beq.n	2000361a <clocks_init+0x146>
2000360a:	6960      	ldr	r0, [r4, #20]
2000360c:	f000 fa3a 	bl	20003a84 <__wrap___aeabi_uidiv>
20003610:	3001      	adds	r0, #1
20003612:	0043      	lsls	r3, r0, #1
20003614:	181b      	adds	r3, r3, r0
20003616:	3b03      	subs	r3, #3
20003618:	d2fd      	bcs.n	20003616 <clocks_init+0x142>
2000361a:	23e0      	movs	r3, #224	; 0xe0
2000361c:	4a4f      	ldr	r2, [pc, #316]	; (2000375c <clocks_init+0x288>)
2000361e:	6811      	ldr	r1, [r2, #0]
20003620:	400b      	ands	r3, r1
20003622:	4950      	ldr	r1, [pc, #320]	; (20003764 <clocks_init+0x290>)
20003624:	600b      	str	r3, [r1, #0]
20003626:	2180      	movs	r1, #128	; 0x80
20003628:	4b4f      	ldr	r3, [pc, #316]	; (20003768 <clocks_init+0x294>)
2000362a:	0109      	lsls	r1, r1, #4
2000362c:	6019      	str	r1, [r3, #0]
2000362e:	2180      	movs	r1, #128	; 0x80
20003630:	4b39      	ldr	r3, [pc, #228]	; (20003718 <clocks_init+0x244>)
20003632:	0049      	lsls	r1, r1, #1
20003634:	6051      	str	r1, [r2, #4]
20003636:	61e3      	str	r3, [r4, #28]
20003638:	4b4c      	ldr	r3, [pc, #304]	; (2000376c <clocks_init+0x298>)
2000363a:	685a      	ldr	r2, [r3, #4]
2000363c:	2aff      	cmp	r2, #255	; 0xff
2000363e:	d800      	bhi.n	20003642 <clocks_init+0x16e>
20003640:	6059      	str	r1, [r3, #4]
20003642:	2280      	movs	r2, #128	; 0x80
20003644:	4b4a      	ldr	r3, [pc, #296]	; (20003770 <clocks_init+0x29c>)
20003646:	0112      	lsls	r2, r2, #4
20003648:	601a      	str	r2, [r3, #0]
2000364a:	6a21      	ldr	r1, [r4, #32]
2000364c:	2900      	cmp	r1, #0
2000364e:	d007      	beq.n	20003660 <clocks_init+0x18c>
20003650:	6960      	ldr	r0, [r4, #20]
20003652:	f000 fa17 	bl	20003a84 <__wrap___aeabi_uidiv>
20003656:	3001      	adds	r0, #1
20003658:	0043      	lsls	r3, r0, #1
2000365a:	181b      	adds	r3, r3, r0
2000365c:	3b03      	subs	r3, #3
2000365e:	d2fd      	bcs.n	2000365c <clocks_init+0x188>
20003660:	23e0      	movs	r3, #224	; 0xe0
20003662:	4a42      	ldr	r2, [pc, #264]	; (2000376c <clocks_init+0x298>)
20003664:	6811      	ldr	r1, [r2, #0]
20003666:	400b      	ands	r3, r1
20003668:	4942      	ldr	r1, [pc, #264]	; (20003774 <clocks_init+0x2a0>)
2000366a:	600b      	str	r3, [r1, #0]
2000366c:	2180      	movs	r1, #128	; 0x80
2000366e:	4b42      	ldr	r3, [pc, #264]	; (20003778 <clocks_init+0x2a4>)
20003670:	0109      	lsls	r1, r1, #4
20003672:	6019      	str	r1, [r3, #0]
20003674:	2380      	movs	r3, #128	; 0x80
20003676:	005b      	lsls	r3, r3, #1
20003678:	6053      	str	r3, [r2, #4]
2000367a:	2280      	movs	r2, #128	; 0x80
2000367c:	4b26      	ldr	r3, [pc, #152]	; (20003718 <clocks_init+0x244>)
2000367e:	02d2      	lsls	r2, r2, #11
20003680:	6223      	str	r3, [r4, #32]
20003682:	4b3e      	ldr	r3, [pc, #248]	; (2000377c <clocks_init+0x2a8>)
20003684:	6859      	ldr	r1, [r3, #4]
20003686:	4291      	cmp	r1, r2
20003688:	d200      	bcs.n	2000368c <clocks_init+0x1b8>
2000368a:	605a      	str	r2, [r3, #4]
2000368c:	2280      	movs	r2, #128	; 0x80
2000368e:	4b3c      	ldr	r3, [pc, #240]	; (20003780 <clocks_init+0x2ac>)
20003690:	0112      	lsls	r2, r2, #4
20003692:	601a      	str	r2, [r3, #0]
20003694:	6a61      	ldr	r1, [r4, #36]	; 0x24
20003696:	2900      	cmp	r1, #0
20003698:	d007      	beq.n	200036aa <clocks_init+0x1d6>
2000369a:	6960      	ldr	r0, [r4, #20]
2000369c:	f000 f9f2 	bl	20003a84 <__wrap___aeabi_uidiv>
200036a0:	3001      	adds	r0, #1
200036a2:	0043      	lsls	r3, r0, #1
200036a4:	181b      	adds	r3, r3, r0
200036a6:	3b03      	subs	r3, #3
200036a8:	d2fd      	bcs.n	200036a6 <clocks_init+0x1d2>
200036aa:	23e0      	movs	r3, #224	; 0xe0
200036ac:	4a33      	ldr	r2, [pc, #204]	; (2000377c <clocks_init+0x2a8>)
200036ae:	6811      	ldr	r1, [r2, #0]
200036b0:	400b      	ands	r3, r1
200036b2:	4934      	ldr	r1, [pc, #208]	; (20003784 <clocks_init+0x2b0>)
200036b4:	600b      	str	r3, [r1, #0]
200036b6:	2180      	movs	r1, #128	; 0x80
200036b8:	4b33      	ldr	r3, [pc, #204]	; (20003788 <clocks_init+0x2b4>)
200036ba:	0109      	lsls	r1, r1, #4
200036bc:	6019      	str	r1, [r3, #0]
200036be:	2380      	movs	r3, #128	; 0x80
200036c0:	02db      	lsls	r3, r3, #11
200036c2:	6053      	str	r3, [r2, #4]
200036c4:	4b15      	ldr	r3, [pc, #84]	; (2000371c <clocks_init+0x248>)
200036c6:	6263      	str	r3, [r4, #36]	; 0x24
200036c8:	4b30      	ldr	r3, [pc, #192]	; (2000378c <clocks_init+0x2b8>)
200036ca:	685a      	ldr	r2, [r3, #4]
200036cc:	2aff      	cmp	r2, #255	; 0xff
200036ce:	d802      	bhi.n	200036d6 <clocks_init+0x202>
200036d0:	2280      	movs	r2, #128	; 0x80
200036d2:	0052      	lsls	r2, r2, #1
200036d4:	605a      	str	r2, [r3, #4]
200036d6:	2280      	movs	r2, #128	; 0x80
200036d8:	4b2d      	ldr	r3, [pc, #180]	; (20003790 <clocks_init+0x2bc>)
200036da:	0112      	lsls	r2, r2, #4
200036dc:	601a      	str	r2, [r3, #0]
200036de:	69a1      	ldr	r1, [r4, #24]
200036e0:	2900      	cmp	r1, #0
200036e2:	d007      	beq.n	200036f4 <clocks_init+0x220>
200036e4:	6960      	ldr	r0, [r4, #20]
200036e6:	f000 f9cd 	bl	20003a84 <__wrap___aeabi_uidiv>
200036ea:	3001      	adds	r0, #1
200036ec:	0043      	lsls	r3, r0, #1
200036ee:	181b      	adds	r3, r3, r0
200036f0:	3b03      	subs	r3, #3
200036f2:	d2fd      	bcs.n	200036f0 <clocks_init+0x21c>
200036f4:	23e0      	movs	r3, #224	; 0xe0
200036f6:	4a25      	ldr	r2, [pc, #148]	; (2000378c <clocks_init+0x2b8>)
200036f8:	6811      	ldr	r1, [r2, #0]
200036fa:	400b      	ands	r3, r1
200036fc:	4925      	ldr	r1, [pc, #148]	; (20003794 <clocks_init+0x2c0>)
200036fe:	600b      	str	r3, [r1, #0]
20003700:	2180      	movs	r1, #128	; 0x80
20003702:	4b25      	ldr	r3, [pc, #148]	; (20003798 <clocks_init+0x2c4>)
20003704:	0109      	lsls	r1, r1, #4
20003706:	6019      	str	r1, [r3, #0]
20003708:	2380      	movs	r3, #128	; 0x80
2000370a:	005b      	lsls	r3, r3, #1
2000370c:	6053      	str	r3, [r2, #4]
2000370e:	4b12      	ldr	r3, [pc, #72]	; (20003758 <clocks_init+0x284>)
20003710:	61a3      	str	r3, [r4, #24]
20003712:	e6f7      	b.n	20003504 <clocks_init+0x30>
20003714:	2000a200 	.word	0x2000a200
20003718:	02dc6c00 	.word	0x02dc6c00
2000371c:	0000b71b 	.word	0x0000b71b
20003720:	40008000 	.word	0x40008000
20003724:	4000b03c 	.word	0x4000b03c
20003728:	4000b030 	.word	0x4000b030
2000372c:	59682f00 	.word	0x59682f00
20003730:	40028000 	.word	0x40028000
20003734:	47868c00 	.word	0x47868c00
20003738:	4002c000 	.word	0x4002c000
2000373c:	40008030 	.word	0x40008030
20003740:	40009030 	.word	0x40009030
20003744:	4000a030 	.word	0x4000a030
20003748:	00b71b00 	.word	0x00b71b00
2000374c:	4000803c 	.word	0x4000803c
20003750:	4000903c 	.word	0x4000903c
20003754:	4000a03c 	.word	0x4000a03c
20003758:	07735940 	.word	0x07735940
2000375c:	40008054 	.word	0x40008054
20003760:	4000b054 	.word	0x4000b054
20003764:	40009054 	.word	0x40009054
20003768:	4000a054 	.word	0x4000a054
2000376c:	40008060 	.word	0x40008060
20003770:	4000b060 	.word	0x4000b060
20003774:	40009060 	.word	0x40009060
20003778:	4000a060 	.word	0x4000a060
2000377c:	4000806c 	.word	0x4000806c
20003780:	4000b06c 	.word	0x4000b06c
20003784:	4000906c 	.word	0x4000906c
20003788:	4000a06c 	.word	0x4000a06c
2000378c:	40008048 	.word	0x40008048
20003790:	4000b048 	.word	0x4000b048
20003794:	40009048 	.word	0x40009048
20003798:	4000a048 	.word	0x4000a048

2000379c <clock_get_hz>:
2000379c:	4b01      	ldr	r3, [pc, #4]	; (200037a4 <clock_get_hz+0x8>)
2000379e:	0080      	lsls	r0, r0, #2
200037a0:	58c0      	ldr	r0, [r0, r3]
200037a2:	4770      	bx	lr
200037a4:	2000a200 	.word	0x2000a200

200037a8 <pll_init>:
200037a8:	b5f8      	push	{r3, r4, r5, r6, r7, lr}
200037aa:	0004      	movs	r4, r0
200037ac:	4821      	ldr	r0, [pc, #132]	; (20003834 <pll_init+0x8c>)
200037ae:	001d      	movs	r5, r3
200037b0:	0017      	movs	r7, r2
200037b2:	000e      	movs	r6, r1
200037b4:	f000 f966 	bl	20003a84 <__wrap___aeabi_uidiv>
200037b8:	0001      	movs	r1, r0
200037ba:	0038      	movs	r0, r7
200037bc:	f000 f962 	bl	20003a84 <__wrap___aeabi_uidiv>
200037c0:	9b06      	ldr	r3, [sp, #24]
200037c2:	0429      	lsls	r1, r5, #16
200037c4:	031b      	lsls	r3, r3, #12
200037c6:	4319      	orrs	r1, r3
200037c8:	6823      	ldr	r3, [r4, #0]
200037ca:	2b00      	cmp	r3, #0
200037cc:	db20      	blt.n	20003810 <pll_init+0x68>
200037ce:	4b1a      	ldr	r3, [pc, #104]	; (20003838 <pll_init+0x90>)
200037d0:	4d1a      	ldr	r5, [pc, #104]	; (2000383c <pll_init+0x94>)
200037d2:	18e2      	adds	r2, r4, r3
200037d4:	4253      	negs	r3, r2
200037d6:	415a      	adcs	r2, r3
200037d8:	2380      	movs	r3, #128	; 0x80
200037da:	015b      	lsls	r3, r3, #5
200037dc:	469c      	mov	ip, r3
200037de:	0312      	lsls	r2, r2, #12
200037e0:	4b17      	ldr	r3, [pc, #92]	; (20003840 <pll_init+0x98>)
200037e2:	4462      	add	r2, ip
200037e4:	601a      	str	r2, [r3, #0]
200037e6:	4b17      	ldr	r3, [pc, #92]	; (20003844 <pll_init+0x9c>)
200037e8:	601a      	str	r2, [r3, #0]
200037ea:	0017      	movs	r7, r2
200037ec:	68ab      	ldr	r3, [r5, #8]
200037ee:	439f      	bics	r7, r3
200037f0:	d1fb      	bne.n	200037ea <pll_init+0x42>
200037f2:	22c0      	movs	r2, #192	; 0xc0
200037f4:	1d23      	adds	r3, r4, #4
200037f6:	0192      	lsls	r2, r2, #6
200037f8:	431a      	orrs	r2, r3
200037fa:	2321      	movs	r3, #33	; 0x21
200037fc:	6026      	str	r6, [r4, #0]
200037fe:	60a0      	str	r0, [r4, #8]
20003800:	6013      	str	r3, [r2, #0]
20003802:	6823      	ldr	r3, [r4, #0]
20003804:	2b00      	cmp	r3, #0
20003806:	dafc      	bge.n	20003802 <pll_init+0x5a>
20003808:	2308      	movs	r3, #8
2000380a:	60e1      	str	r1, [r4, #12]
2000380c:	6013      	str	r3, [r2, #0]
2000380e:	bdf8      	pop	{r3, r4, r5, r6, r7, pc}
20003810:	233f      	movs	r3, #63	; 0x3f
20003812:	6822      	ldr	r2, [r4, #0]
20003814:	4013      	ands	r3, r2
20003816:	42b3      	cmp	r3, r6
20003818:	d1d9      	bne.n	200037ce <pll_init+0x26>
2000381a:	68a3      	ldr	r3, [r4, #8]
2000381c:	051b      	lsls	r3, r3, #20
2000381e:	0d1b      	lsrs	r3, r3, #20
20003820:	4283      	cmp	r3, r0
20003822:	d1d4      	bne.n	200037ce <pll_init+0x26>
20003824:	22ee      	movs	r2, #238	; 0xee
20003826:	68e3      	ldr	r3, [r4, #12]
20003828:	02d2      	lsls	r2, r2, #11
2000382a:	4013      	ands	r3, r2
2000382c:	428b      	cmp	r3, r1
2000382e:	d1ce      	bne.n	200037ce <pll_init+0x26>
20003830:	e7ed      	b.n	2000380e <pll_init+0x66>
20003832:	46c0      	nop			; (mov r8, r8)
20003834:	00b71b00 	.word	0x00b71b00
20003838:	bffd4000 	.word	0xbffd4000
2000383c:	4000c000 	.word	0x4000c000
20003840:	4000e000 	.word	0x4000e000
20003844:	4000f000 	.word	0x4000f000

20003848 <watchdog_start_tick>:
20003848:	2380      	movs	r3, #128	; 0x80
2000384a:	4a02      	ldr	r2, [pc, #8]	; (20003854 <watchdog_start_tick+0xc>)
2000384c:	009b      	lsls	r3, r3, #2
2000384e:	4303      	orrs	r3, r0
20003850:	62d3      	str	r3, [r2, #44]	; 0x2c
20003852:	4770      	bx	lr
20003854:	40058000 	.word	0x40058000

20003858 <xosc_init>:
20003858:	23aa      	movs	r3, #170	; 0xaa
2000385a:	4a06      	ldr	r2, [pc, #24]	; (20003874 <xosc_init+0x1c>)
2000385c:	011b      	lsls	r3, r3, #4
2000385e:	6013      	str	r3, [r2, #0]
20003860:	232f      	movs	r3, #47	; 0x2f
20003862:	4905      	ldr	r1, [pc, #20]	; (20003878 <xosc_init+0x20>)
20003864:	60d3      	str	r3, [r2, #12]
20003866:	4b05      	ldr	r3, [pc, #20]	; (2000387c <xosc_init+0x24>)
20003868:	6019      	str	r1, [r3, #0]
2000386a:	6853      	ldr	r3, [r2, #4]
2000386c:	2b00      	cmp	r3, #0
2000386e:	dafc      	bge.n	2000386a <xosc_init+0x12>
20003870:	4770      	bx	lr
20003872:	46c0      	nop			; (mov r8, r8)
20003874:	40024000 	.word	0x40024000
20003878:	00fab000 	.word	0x00fab000
2000387c:	40026000 	.word	0x40026000

20003880 <runtime_init>:
20003880:	4b2c      	ldr	r3, [pc, #176]	; (20003934 <runtime_init+0xb4>)
20003882:	4a2d      	ldr	r2, [pc, #180]	; (20003938 <runtime_init+0xb8>)
20003884:	b570      	push	{r4, r5, r6, lr}
20003886:	601a      	str	r2, [r3, #0]
20003888:	4a2c      	ldr	r2, [pc, #176]	; (2000393c <runtime_init+0xbc>)
2000388a:	4b2d      	ldr	r3, [pc, #180]	; (20003940 <runtime_init+0xc0>)
2000388c:	492d      	ldr	r1, [pc, #180]	; (20003944 <runtime_init+0xc4>)
2000388e:	601a      	str	r2, [r3, #0]
20003890:	0014      	movs	r4, r2
20003892:	688b      	ldr	r3, [r1, #8]
20003894:	439c      	bics	r4, r3
20003896:	d1fb      	bne.n	20003890 <runtime_init+0x10>
20003898:	4d2b      	ldr	r5, [pc, #172]	; (20003948 <runtime_init+0xc8>)
2000389a:	4e2c      	ldr	r6, [pc, #176]	; (2000394c <runtime_init+0xcc>)
2000389c:	42b5      	cmp	r5, r6
2000389e:	d208      	bcs.n	200038b2 <runtime_init+0x32>
200038a0:	3e01      	subs	r6, #1
200038a2:	1b76      	subs	r6, r6, r5
200038a4:	08b6      	lsrs	r6, r6, #2
200038a6:	cd08      	ldmia	r5!, {r3}
200038a8:	4798      	blx	r3
200038aa:	0023      	movs	r3, r4
200038ac:	3401      	adds	r4, #1
200038ae:	42b3      	cmp	r3, r6
200038b0:	d1f9      	bne.n	200038a6 <runtime_init+0x26>
200038b2:	f7ff fe0f 	bl	200034d4 <clocks_init>
200038b6:	4a26      	ldr	r2, [pc, #152]	; (20003950 <runtime_init+0xd0>)
200038b8:	4b21      	ldr	r3, [pc, #132]	; (20003940 <runtime_init+0xc0>)
200038ba:	601a      	str	r2, [r3, #0]
200038bc:	4a21      	ldr	r2, [pc, #132]	; (20003944 <runtime_init+0xc4>)
200038be:	6893      	ldr	r3, [r2, #8]
200038c0:	43db      	mvns	r3, r3
200038c2:	01db      	lsls	r3, r3, #7
200038c4:	09dd      	lsrs	r5, r3, #7
200038c6:	2b00      	cmp	r3, #0
200038c8:	d1f9      	bne.n	200038be <runtime_init+0x3e>
200038ca:	2240      	movs	r2, #64	; 0x40
200038cc:	4b21      	ldr	r3, [pc, #132]	; (20003954 <runtime_init+0xd4>)
200038ce:	4c22      	ldr	r4, [pc, #136]	; (20003958 <runtime_init+0xd8>)
200038d0:	4e22      	ldr	r6, [pc, #136]	; (2000395c <runtime_init+0xdc>)
200038d2:	679a      	str	r2, [r3, #120]	; 0x78
200038d4:	675a      	str	r2, [r3, #116]	; 0x74
200038d6:	671a      	str	r2, [r3, #112]	; 0x70
200038d8:	66da      	str	r2, [r3, #108]	; 0x6c
200038da:	42b4      	cmp	r4, r6
200038dc:	d208      	bcs.n	200038f0 <runtime_init+0x70>
200038de:	6823      	ldr	r3, [r4, #0]
200038e0:	0020      	movs	r0, r4
200038e2:	2b00      	cmp	r3, #0
200038e4:	d020      	beq.n	20003928 <runtime_init+0xa8>
200038e6:	340c      	adds	r4, #12
200038e8:	f7fe fa6e 	bl	20001dc8 <recursive_mutex_init>
200038ec:	42b4      	cmp	r4, r6
200038ee:	d3f6      	bcc.n	200038de <runtime_init+0x5e>
200038f0:	4c1b      	ldr	r4, [pc, #108]	; (20003960 <runtime_init+0xe0>)
200038f2:	4e1c      	ldr	r6, [pc, #112]	; (20003964 <runtime_init+0xe4>)
200038f4:	22c0      	movs	r2, #192	; 0xc0
200038f6:	68b1      	ldr	r1, [r6, #8]
200038f8:	0020      	movs	r0, r4
200038fa:	f000 fbcd 	bl	20004098 <__wrap___aeabi_memcpy>
200038fe:	60b4      	str	r4, [r6, #8]
20003900:	f7fe ff88 	bl	20002814 <spin_locks_reset>
20003904:	f7ff fa40 	bl	20002d88 <irq_init_priorities>
20003908:	f7fe fc08 	bl	2000211c <alarm_pool_init_default>
2000390c:	4c16      	ldr	r4, [pc, #88]	; (20003968 <runtime_init+0xe8>)
2000390e:	4e17      	ldr	r6, [pc, #92]	; (2000396c <runtime_init+0xec>)
20003910:	42b4      	cmp	r4, r6
20003912:	d208      	bcs.n	20003926 <runtime_init+0xa6>
20003914:	3e01      	subs	r6, #1
20003916:	1b36      	subs	r6, r6, r4
20003918:	08b6      	lsrs	r6, r6, #2
2000391a:	cc08      	ldmia	r4!, {r3}
2000391c:	4798      	blx	r3
2000391e:	002b      	movs	r3, r5
20003920:	3501      	adds	r5, #1
20003922:	429e      	cmp	r6, r3
20003924:	d1f9      	bne.n	2000391a <runtime_init+0x9a>
20003926:	bd70      	pop	{r4, r5, r6, pc}
20003928:	3408      	adds	r4, #8
2000392a:	f7fe fa3f 	bl	20001dac <mutex_init>
2000392e:	42b4      	cmp	r4, r6
20003930:	d3d5      	bcc.n	200038de <runtime_init+0x5e>
20003932:	e7dd      	b.n	200038f0 <runtime_init+0x70>
20003934:	4000e000 	.word	0x4000e000
20003938:	fefbcdbf 	.word	0xfefbcdbf
2000393c:	003c7ffe 	.word	0x003c7ffe
20003940:	4000f000 	.word	0x4000f000
20003944:	4000c000 	.word	0x4000c000
20003948:	2000a1e4 	.word	0x2000a1e4
2000394c:	2000a1f4 	.word	0x2000a1f4
20003950:	01ffffff 	.word	0x01ffffff
20003954:	4001f000 	.word	0x4001f000
20003958:	2000a1d4 	.word	0x2000a1d4
2000395c:	2000a1e4 	.word	0x2000a1e4
20003960:	20000000 	.word	0x20000000
20003964:	e000ed00 	.word	0xe000ed00
20003968:	2000a1f4 	.word	0x2000a1f4
2000396c:	2000a200 	.word	0x2000a200

20003970 <_exit>:
20003970:	be00      	bkpt	0x0000
20003972:	e7fd      	b.n	20003970 <_exit>

20003974 <exit>:
20003974:	b510      	push	{r4, lr}
20003976:	f7ff fffb 	bl	20003970 <_exit>
2000397a:	46c0      	nop			; (mov r8, r8)

2000397c <panic>:
2000397c:	b40f      	push	{r0, r1, r2, r3}
2000397e:	b500      	push	{lr}
20003980:	4808      	ldr	r0, [pc, #32]	; (200039a4 <panic+0x28>)
20003982:	b083      	sub	sp, #12
20003984:	f000 fc38 	bl	200041f8 <__wrap_puts>
20003988:	9b04      	ldr	r3, [sp, #16]
2000398a:	2b00      	cmp	r3, #0
2000398c:	d007      	beq.n	2000399e <panic+0x22>
2000398e:	a905      	add	r1, sp, #20
20003990:	0018      	movs	r0, r3
20003992:	9101      	str	r1, [sp, #4]
20003994:	f000 f81e 	bl	200039d4 <weak_raw_vprintf>
20003998:	4803      	ldr	r0, [pc, #12]	; (200039a8 <panic+0x2c>)
2000399a:	f000 fc2d 	bl	200041f8 <__wrap_puts>
2000399e:	2001      	movs	r0, #1
200039a0:	f7ff ffe6 	bl	20003970 <_exit>
200039a4:	20009dd0 	.word	0x20009dd0
200039a8:	20009b40 	.word	0x20009b40

200039ac <panic_unsupported>:
200039ac:	b510      	push	{r4, lr}
200039ae:	4801      	ldr	r0, [pc, #4]	; (200039b4 <panic_unsupported+0x8>)
200039b0:	f7ff ffe4 	bl	2000397c <panic>
200039b4:	20009de0 	.word	0x20009de0

200039b8 <hard_assertion_failure>:
200039b8:	b510      	push	{r4, lr}
200039ba:	4801      	ldr	r0, [pc, #4]	; (200039c0 <hard_assertion_failure+0x8>)
200039bc:	f7ff ffde 	bl	2000397c <panic>
200039c0:	20009df0 	.word	0x20009df0

200039c4 <_out_char>:
200039c4:	b510      	push	{r4, lr}
200039c6:	2800      	cmp	r0, #0
200039c8:	d100      	bne.n	200039cc <_out_char+0x8>
200039ca:	bd10      	pop	{r4, pc}
200039cc:	f000 fbc8 	bl	20004160 <__wrap_putchar>
200039d0:	e7fb      	b.n	200039ca <_out_char+0x6>
200039d2:	46c0      	nop			; (mov r8, r8)

200039d4 <weak_raw_vprintf>:
200039d4:	b510      	push	{r4, lr}
200039d6:	4a09      	ldr	r2, [pc, #36]	; (200039fc <weak_raw_vprintf+0x28>)
200039d8:	0003      	movs	r3, r0
200039da:	6814      	ldr	r4, [r2, #0]
200039dc:	b084      	sub	sp, #16
200039de:	2c00      	cmp	r4, #0
200039e0:	d008      	beq.n	200039f4 <weak_raw_vprintf+0x20>
200039e2:	2201      	movs	r2, #1
200039e4:	9100      	str	r1, [sp, #0]
200039e6:	4806      	ldr	r0, [pc, #24]	; (20003a00 <weak_raw_vprintf+0x2c>)
200039e8:	4252      	negs	r2, r2
200039ea:	a903      	add	r1, sp, #12
200039ec:	47a0      	blx	r4
200039ee:	2001      	movs	r0, #1
200039f0:	b004      	add	sp, #16
200039f2:	bd10      	pop	{r4, pc}
200039f4:	f000 fc00 	bl	200041f8 <__wrap_puts>
200039f8:	2000      	movs	r0, #0
200039fa:	e7f9      	b.n	200039f0 <weak_raw_vprintf+0x1c>
200039fc:	20010150 	.word	0x20010150
20003a00:	200039c5 	.word	0x200039c5

20003a04 <__aeabi_bits_init>:
20003a04:	4801      	ldr	r0, [pc, #4]	; (20003a0c <__aeabi_bits_init+0x8>)
20003a06:	2104      	movs	r1, #4
20003a08:	4b01      	ldr	r3, [pc, #4]	; (20003a10 <__aeabi_bits_init+0xc>)
20003a0a:	4718      	bx	r3
20003a0c:	2000a170 	.word	0x2000a170
20003a10:	20003a41 	.word	0x20003a41

20003a14 <__wrap___popcountsi2>:
20003a14:	4b01      	ldr	r3, [pc, #4]	; (20003a1c <__wrap___popcountsi2+0x8>)
20003a16:	681b      	ldr	r3, [r3, #0]
20003a18:	4718      	bx	r3
20003a1a:	0000      	.short	0x0000
20003a1c:	2000a170 	.word	0x2000a170

20003a20 <rom_func_lookup>:
20003a20:	2314      	movs	r3, #20
20003a22:	b510      	push	{r4, lr}
20003a24:	0001      	movs	r1, r0
20003a26:	8818      	ldrh	r0, [r3, #0]
20003a28:	3304      	adds	r3, #4
20003a2a:	881b      	ldrh	r3, [r3, #0]
20003a2c:	4798      	blx	r3
20003a2e:	bd10      	pop	{r4, pc}

20003a30 <rom_data_lookup>:
20003a30:	2316      	movs	r3, #22
20003a32:	b510      	push	{r4, lr}
20003a34:	0001      	movs	r1, r0
20003a36:	8818      	ldrh	r0, [r3, #0]
20003a38:	3302      	adds	r3, #2
20003a3a:	881b      	ldrh	r3, [r3, #0]
20003a3c:	4798      	blx	r3
20003a3e:	bd10      	pop	{r4, pc}

20003a40 <rom_funcs_lookup>:
20003a40:	b5f8      	push	{r3, r4, r5, r6, r7, lr}
20003a42:	4647      	mov	r7, r8
20003a44:	46ce      	mov	lr, r9
20003a46:	b580      	push	{r7, lr}
20003a48:	1e0f      	subs	r7, r1, #0
20003a4a:	d019      	beq.n	20003a80 <rom_funcs_lookup+0x40>
20003a4c:	2314      	movs	r3, #20
20003a4e:	4699      	mov	r9, r3
20003a50:	3304      	adds	r3, #4
20003a52:	0004      	movs	r4, r0
20003a54:	2500      	movs	r5, #0
20003a56:	2601      	movs	r6, #1
20003a58:	4698      	mov	r8, r3
20003a5a:	464b      	mov	r3, r9
20003a5c:	8818      	ldrh	r0, [r3, #0]
20003a5e:	4643      	mov	r3, r8
20003a60:	6821      	ldr	r1, [r4, #0]
20003a62:	881b      	ldrh	r3, [r3, #0]
20003a64:	4798      	blx	r3
20003a66:	c401      	stmia	r4!, {r0}
20003a68:	1e43      	subs	r3, r0, #1
20003a6a:	4198      	sbcs	r0, r3
20003a6c:	3501      	adds	r5, #1
20003a6e:	4240      	negs	r0, r0
20003a70:	4006      	ands	r6, r0
20003a72:	42af      	cmp	r7, r5
20003a74:	d1f1      	bne.n	20003a5a <rom_funcs_lookup+0x1a>
20003a76:	0030      	movs	r0, r6
20003a78:	bcc0      	pop	{r6, r7}
20003a7a:	46b9      	mov	r9, r7
20003a7c:	46b0      	mov	r8, r6
20003a7e:	bdf8      	pop	{r3, r4, r5, r6, r7, pc}
20003a80:	2601      	movs	r6, #1
20003a82:	e7f8      	b.n	20003a76 <rom_funcs_lookup+0x36>

20003a84 <__wrap___aeabi_uidiv>:
20003a84:	4a11      	ldr	r2, [pc, #68]	; (20003acc <divmod_u32u32_savestate+0x18>)
20003a86:	6f93      	ldr	r3, [r2, #120]	; 0x78
20003a88:	089b      	lsrs	r3, r3, #2
20003a8a:	d213      	bcs.n	20003ab4 <divmod_u32u32_savestate>

20003a8c <divmod_u32u32_unsafe>:
20003a8c:	6610      	str	r0, [r2, #96]	; 0x60
20003a8e:	6651      	str	r1, [r2, #100]	; 0x64
20003a90:	2900      	cmp	r1, #0
20003a92:	d005      	beq.n	20003aa0 <divmod_u32u32_unsafe+0x14>
20003a94:	e7ff      	b.n	20003a96 <divmod_u32u32_unsafe+0xa>
20003a96:	e7ff      	b.n	20003a98 <divmod_u32u32_unsafe+0xc>
20003a98:	e7ff      	b.n	20003a9a <divmod_u32u32_unsafe+0xe>
20003a9a:	6f51      	ldr	r1, [r2, #116]	; 0x74
20003a9c:	6f10      	ldr	r0, [r2, #112]	; 0x70
20003a9e:	4770      	bx	lr
20003aa0:	b504      	push	{r2, lr}
20003aa2:	2800      	cmp	r0, #0
20003aa4:	d001      	beq.n	20003aaa <divmod_u32u32_unsafe+0x1e>
20003aa6:	2000      	movs	r0, #0
20003aa8:	43c0      	mvns	r0, r0
20003aaa:	f005 f92b 	bl	20008d04 <__aeabi_idiv0>
20003aae:	2100      	movs	r1, #0
20003ab0:	bd04      	pop	{r2, pc}
20003ab2:	46c0      	nop			; (mov r8, r8)

20003ab4 <divmod_u32u32_savestate>:
20003ab4:	b5f0      	push	{r4, r5, r6, r7, lr}
20003ab6:	6e14      	ldr	r4, [r2, #96]	; 0x60
20003ab8:	6e55      	ldr	r5, [r2, #100]	; 0x64
20003aba:	6f57      	ldr	r7, [r2, #116]	; 0x74
20003abc:	6f16      	ldr	r6, [r2, #112]	; 0x70
20003abe:	f7ff ffe5 	bl	20003a8c <divmod_u32u32_unsafe>
20003ac2:	6614      	str	r4, [r2, #96]	; 0x60
20003ac4:	6655      	str	r5, [r2, #100]	; 0x64
20003ac6:	6757      	str	r7, [r2, #116]	; 0x74
20003ac8:	6716      	str	r6, [r2, #112]	; 0x70
20003aca:	bdf0      	pop	{r4, r5, r6, r7, pc}
20003acc:	d0000000 	.word	0xd0000000

20003ad0 <__wrap___aeabi_ldivmod>:
20003ad0:	4694      	mov	ip, r2
20003ad2:	4a4a      	ldr	r2, [pc, #296]	; (20003bfc <udiv0+0x1a>)
20003ad4:	6f92      	ldr	r2, [r2, #120]	; 0x78
20003ad6:	0892      	lsrs	r2, r2, #2
20003ad8:	4662      	mov	r2, ip
20003ada:	d201      	bcs.n	20003ae0 <divmod_s64s64_savestate>
20003adc:	e028      	b.n	20003b30 <divmod_s64s64_unsafe>
20003ade:	46c0      	nop			; (mov r8, r8)

20003ae0 <divmod_s64s64_savestate>:
20003ae0:	b5f0      	push	{r4, r5, r6, r7, lr}
20003ae2:	4e46      	ldr	r6, [pc, #280]	; (20003bfc <udiv0+0x1a>)
20003ae4:	6e34      	ldr	r4, [r6, #96]	; 0x60
20003ae6:	6e75      	ldr	r5, [r6, #100]	; 0x64
20003ae8:	6f77      	ldr	r7, [r6, #116]	; 0x74
20003aea:	6f36      	ldr	r6, [r6, #112]	; 0x70
20003aec:	f000 f820 	bl	20003b30 <divmod_s64s64_unsafe>
20003af0:	4694      	mov	ip, r2
20003af2:	4a42      	ldr	r2, [pc, #264]	; (20003bfc <udiv0+0x1a>)
20003af4:	6614      	str	r4, [r2, #96]	; 0x60
20003af6:	6655      	str	r5, [r2, #100]	; 0x64
20003af8:	6757      	str	r7, [r2, #116]	; 0x74
20003afa:	6716      	str	r6, [r2, #112]	; 0x70
20003afc:	4662      	mov	r2, ip
20003afe:	bdf0      	pop	{r4, r5, r6, r7, pc}

20003b00 <__wrap___aeabi_uldivmod>:
20003b00:	4694      	mov	ip, r2
20003b02:	4a3e      	ldr	r2, [pc, #248]	; (20003bfc <udiv0+0x1a>)
20003b04:	6f92      	ldr	r2, [r2, #120]	; 0x78
20003b06:	0892      	lsrs	r2, r2, #2
20003b08:	4662      	mov	r2, ip
20003b0a:	d201      	bcs.n	20003b10 <divmod_u64u64_savestate>
20003b0c:	e054      	b.n	20003bb8 <divmod_u64u64_unsafe>
20003b0e:	46c0      	nop			; (mov r8, r8)

20003b10 <divmod_u64u64_savestate>:
20003b10:	b5f0      	push	{r4, r5, r6, r7, lr}
20003b12:	4e3a      	ldr	r6, [pc, #232]	; (20003bfc <udiv0+0x1a>)
20003b14:	6e34      	ldr	r4, [r6, #96]	; 0x60
20003b16:	6e75      	ldr	r5, [r6, #100]	; 0x64
20003b18:	6f77      	ldr	r7, [r6, #116]	; 0x74
20003b1a:	6f36      	ldr	r6, [r6, #112]	; 0x70
20003b1c:	f000 f84c 	bl	20003bb8 <divmod_u64u64_unsafe>
20003b20:	4694      	mov	ip, r2
20003b22:	4a36      	ldr	r2, [pc, #216]	; (20003bfc <udiv0+0x1a>)
20003b24:	6614      	str	r4, [r2, #96]	; 0x60
20003b26:	6655      	str	r5, [r2, #100]	; 0x64
20003b28:	6757      	str	r7, [r2, #116]	; 0x74
20003b2a:	6716      	str	r6, [r2, #112]	; 0x70
20003b2c:	4662      	mov	r2, ip
20003b2e:	bdf0      	pop	{r4, r5, r6, r7, pc}

20003b30 <divmod_s64s64_unsafe>:
20003b30:	2b00      	cmp	r3, #0
20003b32:	db24      	blt.n	20003b7e <l42_1+0x26>
20003b34:	d011      	beq.n	20003b5a <l42_1+0x2>
20003b36:	2900      	cmp	r1, #0
20003b38:	da3e      	bge.n	20003bb8 <divmod_u64u64_unsafe>
20003b3a:	b500      	push	{lr}
20003b3c:	43c9      	mvns	r1, r1
20003b3e:	4240      	negs	r0, r0
20003b40:	d100      	bne.n	20003b44 <l40_1>
20003b42:	3101      	adds	r1, #1

20003b44 <l40_1>:
20003b44:	f000 f838 	bl	20003bb8 <divmod_u64u64_unsafe>
20003b48:	43c9      	mvns	r1, r1
20003b4a:	4240      	negs	r0, r0
20003b4c:	d100      	bne.n	20003b50 <l41_1>
20003b4e:	3101      	adds	r1, #1

20003b50 <l41_1>:
20003b50:	43db      	mvns	r3, r3
20003b52:	4252      	negs	r2, r2
20003b54:	d100      	bne.n	20003b58 <l42_1>
20003b56:	3301      	adds	r3, #1

20003b58 <l42_1>:
20003b58:	bd00      	pop	{pc}
20003b5a:	2a00      	cmp	r2, #0
20003b5c:	d1eb      	bne.n	20003b36 <divmod_s64s64_unsafe+0x6>
20003b5e:	2800      	cmp	r0, #0
20003b60:	d101      	bne.n	20003b66 <l42_1+0xe>
20003b62:	2900      	cmp	r1, #0
20003b64:	d005      	beq.n	20003b72 <l42_1+0x1a>
20003b66:	2000      	movs	r0, #0
20003b68:	0fc9      	lsrs	r1, r1, #31
20003b6a:	07c9      	lsls	r1, r1, #31
20003b6c:	d101      	bne.n	20003b72 <l42_1+0x1a>
20003b6e:	43c0      	mvns	r0, r0
20003b70:	0841      	lsrs	r1, r0, #1
20003b72:	b500      	push	{lr}
20003b74:	f005 f8c6 	bl	20008d04 <__aeabi_idiv0>
20003b78:	2200      	movs	r2, #0
20003b7a:	2300      	movs	r3, #0
20003b7c:	bd00      	pop	{pc}
20003b7e:	b500      	push	{lr}
20003b80:	2900      	cmp	r1, #0
20003b82:	db0a      	blt.n	20003b9a <l44_1+0x2>
20003b84:	43db      	mvns	r3, r3
20003b86:	4252      	negs	r2, r2
20003b88:	d100      	bne.n	20003b8c <l43_1>
20003b8a:	3301      	adds	r3, #1

20003b8c <l43_1>:
20003b8c:	f000 f814 	bl	20003bb8 <divmod_u64u64_unsafe>
20003b90:	43c9      	mvns	r1, r1
20003b92:	4240      	negs	r0, r0
20003b94:	d100      	bne.n	20003b98 <l44_1>
20003b96:	3101      	adds	r1, #1

20003b98 <l44_1>:
20003b98:	bd00      	pop	{pc}
20003b9a:	43c9      	mvns	r1, r1
20003b9c:	4240      	negs	r0, r0
20003b9e:	d100      	bne.n	20003ba2 <l45_1>
20003ba0:	3101      	adds	r1, #1

20003ba2 <l45_1>:
20003ba2:	43db      	mvns	r3, r3
20003ba4:	4252      	negs	r2, r2
20003ba6:	d100      	bne.n	20003baa <l46_1>
20003ba8:	3301      	adds	r3, #1

20003baa <l46_1>:
20003baa:	f000 f805 	bl	20003bb8 <divmod_u64u64_unsafe>
20003bae:	43db      	mvns	r3, r3
20003bb0:	4252      	negs	r2, r2
20003bb2:	d100      	bne.n	20003bb6 <l47_1>
20003bb4:	3301      	adds	r3, #1

20003bb6 <l47_1>:
20003bb6:	bd00      	pop	{pc}

20003bb8 <divmod_u64u64_unsafe>:
20003bb8:	2900      	cmp	r1, #0
20003bba:	d123      	bne.n	20003c04 <y64>
20003bbc:	2b00      	cmp	r3, #0
20003bbe:	d118      	bne.n	20003bf2 <udiv0+0x10>
20003bc0:	2a00      	cmp	r2, #0
20003bc2:	d00c      	beq.n	20003bde <divmod_u64u64_unsafe+0x26>
20003bc4:	46bc      	mov	ip, r7
20003bc6:	4f0d      	ldr	r7, [pc, #52]	; (20003bfc <udiv0+0x1a>)
20003bc8:	6638      	str	r0, [r7, #96]	; 0x60
20003bca:	667a      	str	r2, [r7, #100]	; 0x64
20003bcc:	2100      	movs	r1, #0
20003bce:	2300      	movs	r3, #0
20003bd0:	e7ff      	b.n	20003bd2 <divmod_u64u64_unsafe+0x1a>
20003bd2:	e7ff      	b.n	20003bd4 <divmod_u64u64_unsafe+0x1c>
20003bd4:	e7ff      	b.n	20003bd6 <divmod_u64u64_unsafe+0x1e>
20003bd6:	6f7a      	ldr	r2, [r7, #116]	; 0x74
20003bd8:	6f38      	ldr	r0, [r7, #112]	; 0x70
20003bda:	4667      	mov	r7, ip
20003bdc:	4770      	bx	lr
20003bde:	2800      	cmp	r0, #0
20003be0:	d001      	beq.n	20003be6 <udiv0+0x4>

20003be2 <udiv0>:
20003be2:	4807      	ldr	r0, [pc, #28]	; (20003c00 <udiv0+0x1e>)
20003be4:	0001      	movs	r1, r0
20003be6:	b500      	push	{lr}
20003be8:	f005 f88c 	bl	20008d04 <__aeabi_idiv0>
20003bec:	2200      	movs	r2, #0
20003bee:	2300      	movs	r3, #0
20003bf0:	bd00      	pop	{pc}
20003bf2:	0002      	movs	r2, r0
20003bf4:	000b      	movs	r3, r1
20003bf6:	2000      	movs	r0, #0
20003bf8:	2100      	movs	r1, #0
20003bfa:	4770      	bx	lr
20003bfc:	d0000000 	.word	0xd0000000
20003c00:	ffffffff 	.word	0xffffffff

20003c04 <y64>:
20003c04:	2b00      	cmp	r3, #0
20003c06:	d000      	beq.n	20003c0a <y64+0x6>
20003c08:	e0bf      	b.n	20003d8a <y64_x48>
20003c0a:	0c13      	lsrs	r3, r2, #16
20003c0c:	d128      	bne.n	20003c60 <y64_x32>
20003c0e:	2a00      	cmp	r2, #0
20003c10:	d0e7      	beq.n	20003be2 <udiv0>
20003c12:	b480      	push	{r7}
20003c14:	4f11      	ldr	r7, [pc, #68]	; (20003c5c <y64+0x58>)
20003c16:	6639      	str	r1, [r7, #96]	; 0x60
20003c18:	667a      	str	r2, [r7, #100]	; 0x64
20003c1a:	e7ff      	b.n	20003c1c <y64+0x18>
20003c1c:	e7ff      	b.n	20003c1e <y64+0x1a>
20003c1e:	b430      	push	{r4, r5}
20003c20:	0c04      	lsrs	r4, r0, #16
20003c22:	6f7b      	ldr	r3, [r7, #116]	; 0x74
20003c24:	6f39      	ldr	r1, [r7, #112]	; 0x70
20003c26:	041b      	lsls	r3, r3, #16
20003c28:	4323      	orrs	r3, r4
20003c2a:	663b      	str	r3, [r7, #96]	; 0x60
20003c2c:	667a      	str	r2, [r7, #100]	; 0x64
20003c2e:	e7ff      	b.n	20003c30 <y64+0x2c>
20003c30:	e7ff      	b.n	20003c32 <y64+0x2e>
20003c32:	e7ff      	b.n	20003c34 <y64+0x30>
20003c34:	46c0      	nop			; (mov r8, r8)
20003c36:	b284      	uxth	r4, r0
20003c38:	6f7b      	ldr	r3, [r7, #116]	; 0x74
20003c3a:	6f3d      	ldr	r5, [r7, #112]	; 0x70
20003c3c:	041b      	lsls	r3, r3, #16
20003c3e:	4323      	orrs	r3, r4
20003c40:	663b      	str	r3, [r7, #96]	; 0x60
20003c42:	667a      	str	r2, [r7, #100]	; 0x64
20003c44:	e7ff      	b.n	20003c46 <y64+0x42>
20003c46:	e7ff      	b.n	20003c48 <y64+0x44>
20003c48:	46c0      	nop			; (mov r8, r8)
20003c4a:	2300      	movs	r3, #0
20003c4c:	042c      	lsls	r4, r5, #16
20003c4e:	0c2d      	lsrs	r5, r5, #16
20003c50:	6f7a      	ldr	r2, [r7, #116]	; 0x74
20003c52:	6f38      	ldr	r0, [r7, #112]	; 0x70
20003c54:	1900      	adds	r0, r0, r4
20003c56:	4169      	adcs	r1, r5
20003c58:	bcb0      	pop	{r4, r5, r7}
20003c5a:	4770      	bx	lr
20003c5c:	d0000000 	.word	0xd0000000

20003c60 <y64_x32>:
20003c60:	b5f0      	push	{r4, r5, r6, r7, lr}
20003c62:	4694      	mov	ip, r2
20003c64:	2500      	movs	r5, #0
20003c66:	0e14      	lsrs	r4, r2, #24
20003c68:	d101      	bne.n	20003c6e <y64_x32+0xe>
20003c6a:	0212      	lsls	r2, r2, #8
20003c6c:	3508      	adds	r5, #8
20003c6e:	0f14      	lsrs	r4, r2, #28
20003c70:	d101      	bne.n	20003c76 <y64_x32+0x16>
20003c72:	0112      	lsls	r2, r2, #4
20003c74:	3504      	adds	r5, #4
20003c76:	0f94      	lsrs	r4, r2, #30
20003c78:	d101      	bne.n	20003c7e <y64_x32+0x1e>
20003c7a:	0092      	lsls	r2, r2, #2
20003c7c:	3502      	adds	r5, #2
20003c7e:	0fd4      	lsrs	r4, r2, #31
20003c80:	d101      	bne.n	20003c86 <y64_x32+0x26>
20003c82:	0052      	lsls	r2, r2, #1
20003c84:	3501      	adds	r5, #1
20003c86:	0bd4      	lsrs	r4, r2, #15
20003c88:	3401      	adds	r4, #1
20003c8a:	4f25      	ldr	r7, [pc, #148]	; (20003d20 <y64_x32+0xc0>)
20003c8c:	667c      	str	r4, [r7, #100]	; 0x64
20003c8e:	4c25      	ldr	r4, [pc, #148]	; (20003d24 <y64_x32+0xc4>)
20003c90:	663c      	str	r4, [r7, #96]	; 0x60
20003c92:	0c0e      	lsrs	r6, r1, #16
20003c94:	b293      	uxth	r3, r2
20003c96:	e7ff      	b.n	20003c98 <y64_x32+0x38>
20003c98:	e7ff      	b.n	20003c9a <y64_x32+0x3a>
20003c9a:	e7ff      	b.n	20003c9c <y64_x32+0x3c>
20003c9c:	6f3c      	ldr	r4, [r7, #112]	; 0x70
20003c9e:	4366      	muls	r6, r4
20003ca0:	0c36      	lsrs	r6, r6, #16
20003ca2:	0377      	lsls	r7, r6, #13
20003ca4:	46be      	mov	lr, r7
20003ca6:	4373      	muls	r3, r6
20003ca8:	0bdf      	lsrs	r7, r3, #15
20003caa:	045b      	lsls	r3, r3, #17
20003cac:	1ac0      	subs	r0, r0, r3
20003cae:	41b9      	sbcs	r1, r7
20003cb0:	0c13      	lsrs	r3, r2, #16
20003cb2:	4373      	muls	r3, r6
20003cb4:	18db      	adds	r3, r3, r3
20003cb6:	1ac9      	subs	r1, r1, r3
20003cb8:	08ce      	lsrs	r6, r1, #3
20003cba:	4366      	muls	r6, r4
20003cbc:	0c36      	lsrs	r6, r6, #16
20003cbe:	44b6      	add	lr, r6
20003cc0:	b293      	uxth	r3, r2
20003cc2:	4373      	muls	r3, r6
20003cc4:	0f1f      	lsrs	r7, r3, #28
20003cc6:	011b      	lsls	r3, r3, #4
20003cc8:	1ac0      	subs	r0, r0, r3
20003cca:	41b9      	sbcs	r1, r7
20003ccc:	0c13      	lsrs	r3, r2, #16
20003cce:	4373      	muls	r3, r6
20003cd0:	0b1f      	lsrs	r7, r3, #12
20003cd2:	051b      	lsls	r3, r3, #20
20003cd4:	1ac0      	subs	r0, r0, r3
20003cd6:	41b9      	sbcs	r1, r7
20003cd8:	0d86      	lsrs	r6, r0, #22
20003cda:	028f      	lsls	r7, r1, #10
20003cdc:	433e      	orrs	r6, r7
20003cde:	4366      	muls	r6, r4
20003ce0:	0c36      	lsrs	r6, r6, #16
20003ce2:	2d09      	cmp	r5, #9
20003ce4:	db24      	blt.n	20003d30 <last0>
20003ce6:	0a52      	lsrs	r2, r2, #9
20003ce8:	4372      	muls	r2, r6
20003cea:	1a80      	subs	r0, r0, r2
20003cec:	0377      	lsls	r7, r6, #13
20003cee:	0a46      	lsrs	r6, r0, #9
20003cf0:	4366      	muls	r6, r4
20003cf2:	0c36      	lsrs	r6, r6, #16
20003cf4:	2316      	movs	r3, #22
20003cf6:	1b5b      	subs	r3, r3, r5
20003cf8:	40de      	lsrs	r6, r3
20003cfa:	40df      	lsrs	r7, r3
20003cfc:	19bf      	adds	r7, r7, r6
20003cfe:	4664      	mov	r4, ip
20003d00:	4366      	muls	r6, r4
20003d02:	1b82      	subs	r2, r0, r6
20003d04:	4670      	mov	r0, lr
20003d06:	3504      	adds	r5, #4
20003d08:	3306      	adds	r3, #6
20003d0a:	0001      	movs	r1, r0
20003d0c:	40d9      	lsrs	r1, r3
20003d0e:	40a8      	lsls	r0, r5
20003d10:	19c0      	adds	r0, r0, r7
20003d12:	d300      	bcc.n	20003d16 <y64_x32+0xb6>
20003d14:	3101      	adds	r1, #1
20003d16:	42a2      	cmp	r2, r4
20003d18:	d206      	bcs.n	20003d28 <y64_x32+0xc8>
20003d1a:	2300      	movs	r3, #0
20003d1c:	bdf0      	pop	{r4, r5, r6, r7, pc}
20003d1e:	0000      	.short	0x0000
20003d20:	d0000000 	.word	0xd0000000
20003d24:	ffffffff 	.word	0xffffffff
20003d28:	1b12      	subs	r2, r2, r4
20003d2a:	3001      	adds	r0, #1
20003d2c:	d3f3      	bcc.n	20003d16 <y64_x32+0xb6>
20003d2e:	e7f1      	b.n	20003d14 <y64_x32+0xb4>

20003d30 <last0>:
20003d30:	2709      	movs	r7, #9
20003d32:	1b7f      	subs	r7, r7, r5
20003d34:	40fe      	lsrs	r6, r7
20003d36:	4664      	mov	r4, ip
20003d38:	b2a2      	uxth	r2, r4
20003d3a:	4372      	muls	r2, r6
20003d3c:	1a80      	subs	r0, r0, r2
20003d3e:	d200      	bcs.n	20003d42 <last0+0x12>
20003d40:	3901      	subs	r1, #1
20003d42:	0c22      	lsrs	r2, r4, #16
20003d44:	4372      	muls	r2, r6
20003d46:	0c13      	lsrs	r3, r2, #16
20003d48:	0412      	lsls	r2, r2, #16
20003d4a:	1a82      	subs	r2, r0, r2
20003d4c:	4199      	sbcs	r1, r3
20003d4e:	000b      	movs	r3, r1
20003d50:	4670      	mov	r0, lr
20003d52:	3504      	adds	r5, #4
20003d54:	3713      	adds	r7, #19
20003d56:	0001      	movs	r1, r0
20003d58:	40f9      	lsrs	r1, r7
20003d5a:	40a8      	lsls	r0, r5
20003d5c:	1980      	adds	r0, r0, r6
20003d5e:	d300      	bcc.n	20003d62 <last0+0x32>
20003d60:	3101      	adds	r1, #1
20003d62:	2b00      	cmp	r3, #0
20003d64:	d102      	bne.n	20003d6c <last0+0x3c>
20003d66:	42a2      	cmp	r2, r4
20003d68:	d20a      	bcs.n	20003d80 <last0+0x50>
20003d6a:	bdf0      	pop	{r4, r5, r6, r7, pc}
20003d6c:	3001      	adds	r0, #1
20003d6e:	d300      	bcc.n	20003d72 <last0+0x42>
20003d70:	3101      	adds	r1, #1
20003d72:	1b12      	subs	r2, r2, r4
20003d74:	d2fa      	bcs.n	20003d6c <last0+0x3c>
20003d76:	3b01      	subs	r3, #1
20003d78:	d1f8      	bne.n	20003d6c <last0+0x3c>
20003d7a:	42a2      	cmp	r2, r4
20003d7c:	d200      	bcs.n	20003d80 <last0+0x50>
20003d7e:	bdf0      	pop	{r4, r5, r6, r7, pc}
20003d80:	3001      	adds	r0, #1
20003d82:	d300      	bcc.n	20003d86 <last0+0x56>
20003d84:	3101      	adds	r1, #1
20003d86:	1b12      	subs	r2, r2, r4
20003d88:	e7f7      	b.n	20003d7a <last0+0x4a>

20003d8a <y64_x48>:
20003d8a:	b5f0      	push	{r4, r5, r6, r7, lr}
20003d8c:	0c1c      	lsrs	r4, r3, #16
20003d8e:	d000      	beq.n	20003d92 <y64_x48+0x8>
20003d90:	e080      	b.n	20003e94 <y64_x64>
20003d92:	b40c      	push	{r2, r3}
20003d94:	2500      	movs	r5, #0
20003d96:	0a1c      	lsrs	r4, r3, #8
20003d98:	d104      	bne.n	20003da4 <y64_x48+0x1a>
20003d9a:	021b      	lsls	r3, r3, #8
20003d9c:	0e16      	lsrs	r6, r2, #24
20003d9e:	4333      	orrs	r3, r6
20003da0:	0212      	lsls	r2, r2, #8
20003da2:	3508      	adds	r5, #8
20003da4:	0b1c      	lsrs	r4, r3, #12
20003da6:	d104      	bne.n	20003db2 <y64_x48+0x28>
20003da8:	011b      	lsls	r3, r3, #4
20003daa:	0f16      	lsrs	r6, r2, #28
20003dac:	4333      	orrs	r3, r6
20003dae:	0112      	lsls	r2, r2, #4
20003db0:	3504      	adds	r5, #4
20003db2:	0b9c      	lsrs	r4, r3, #14
20003db4:	d104      	bne.n	20003dc0 <y64_x48+0x36>
20003db6:	009b      	lsls	r3, r3, #2
20003db8:	0f96      	lsrs	r6, r2, #30
20003dba:	4333      	orrs	r3, r6
20003dbc:	0092      	lsls	r2, r2, #2
20003dbe:	3502      	adds	r5, #2
20003dc0:	0bdc      	lsrs	r4, r3, #15
20003dc2:	d102      	bne.n	20003dca <y64_x48+0x40>
20003dc4:	1892      	adds	r2, r2, r2
20003dc6:	415b      	adcs	r3, r3
20003dc8:	3501      	adds	r5, #1
20003dca:	001c      	movs	r4, r3
20003dcc:	1897      	adds	r7, r2, r2
20003dce:	4164      	adcs	r4, r4
20003dd0:	3401      	adds	r4, #1
20003dd2:	4f46      	ldr	r7, [pc, #280]	; (20003eec <y64_x64+0x58>)
20003dd4:	667c      	str	r4, [r7, #100]	; 0x64
20003dd6:	4c46      	ldr	r4, [pc, #280]	; (20003ef0 <y64_x64+0x5c>)
20003dd8:	663c      	str	r4, [r7, #96]	; 0x60
20003dda:	0c0e      	lsrs	r6, r1, #16
20003ddc:	e7ff      	b.n	20003dde <y64_x48+0x54>
20003dde:	e7ff      	b.n	20003de0 <y64_x48+0x56>
20003de0:	e7ff      	b.n	20003de2 <y64_x48+0x58>
20003de2:	46c0      	nop			; (mov r8, r8)
20003de4:	6f3c      	ldr	r4, [r7, #112]	; 0x70
20003de6:	4366      	muls	r6, r4
20003de8:	0c36      	lsrs	r6, r6, #16
20003dea:	0377      	lsls	r7, r6, #13
20003dec:	46be      	mov	lr, r7
20003dee:	b297      	uxth	r7, r2
20003df0:	4377      	muls	r7, r6
20003df2:	1bc0      	subs	r0, r0, r7
20003df4:	d200      	bcs.n	20003df8 <y64_x48+0x6e>
20003df6:	3901      	subs	r1, #1
20003df8:	1bc0      	subs	r0, r0, r7
20003dfa:	d200      	bcs.n	20003dfe <y64_x48+0x74>
20003dfc:	3901      	subs	r1, #1
20003dfe:	b29f      	uxth	r7, r3
20003e00:	4377      	muls	r7, r6
20003e02:	1bc9      	subs	r1, r1, r7
20003e04:	1bc9      	subs	r1, r1, r7
20003e06:	0c17      	lsrs	r7, r2, #16
20003e08:	4377      	muls	r7, r6
20003e0a:	047e      	lsls	r6, r7, #17
20003e0c:	0bff      	lsrs	r7, r7, #15
20003e0e:	1b80      	subs	r0, r0, r6
20003e10:	41b9      	sbcs	r1, r7
20003e12:	08ce      	lsrs	r6, r1, #3
20003e14:	4366      	muls	r6, r4
20003e16:	0c36      	lsrs	r6, r6, #16
20003e18:	2d0c      	cmp	r5, #12
20003e1a:	db33      	blt.n	20003e84 <last1>
20003e1c:	44b6      	add	lr, r6
20003e1e:	0b12      	lsrs	r2, r2, #12
20003e20:	051f      	lsls	r7, r3, #20
20003e22:	433a      	orrs	r2, r7
20003e24:	0b1b      	lsrs	r3, r3, #12
20003e26:	b297      	uxth	r7, r2
20003e28:	4377      	muls	r7, r6
20003e2a:	1bc0      	subs	r0, r0, r7
20003e2c:	d200      	bcs.n	20003e30 <y64_x48+0xa6>
20003e2e:	3901      	subs	r1, #1
20003e30:	b29f      	uxth	r7, r3
20003e32:	4377      	muls	r7, r6
20003e34:	1bc9      	subs	r1, r1, r7
20003e36:	0c17      	lsrs	r7, r2, #16
20003e38:	4377      	muls	r7, r6
20003e3a:	043e      	lsls	r6, r7, #16
20003e3c:	0c3f      	lsrs	r7, r7, #16
20003e3e:	1b80      	subs	r0, r0, r6
20003e40:	41b9      	sbcs	r1, r7
20003e42:	0d86      	lsrs	r6, r0, #22
20003e44:	028f      	lsls	r7, r1, #10
20003e46:	433e      	orrs	r6, r7
20003e48:	4366      	muls	r6, r4
20003e4a:	2729      	movs	r7, #41	; 0x29
20003e4c:	1b7f      	subs	r7, r7, r5
20003e4e:	40fe      	lsrs	r6, r7
20003e50:	3d0c      	subs	r5, #12
20003e52:	4677      	mov	r7, lr
20003e54:	40af      	lsls	r7, r5
20003e56:	19bf      	adds	r7, r7, r6
20003e58:	bc30      	pop	{r4, r5}
20003e5a:	b2a2      	uxth	r2, r4
20003e5c:	b2ab      	uxth	r3, r5
20003e5e:	4372      	muls	r2, r6
20003e60:	4373      	muls	r3, r6
20003e62:	1a80      	subs	r0, r0, r2
20003e64:	4199      	sbcs	r1, r3
20003e66:	0c22      	lsrs	r2, r4, #16
20003e68:	4372      	muls	r2, r6
20003e6a:	0c13      	lsrs	r3, r2, #16
20003e6c:	0412      	lsls	r2, r2, #16
20003e6e:	1a80      	subs	r0, r0, r2
20003e70:	4199      	sbcs	r1, r3
20003e72:	0002      	movs	r2, r0
20003e74:	000b      	movs	r3, r1
20003e76:	3701      	adds	r7, #1
20003e78:	1b00      	subs	r0, r0, r4
20003e7a:	41a9      	sbcs	r1, r5
20003e7c:	d2f9      	bcs.n	20003e72 <y64_x48+0xe8>
20003e7e:	1e78      	subs	r0, r7, #1
20003e80:	2100      	movs	r1, #0
20003e82:	bdf0      	pop	{r4, r5, r6, r7, pc}

20003e84 <last1>:
20003e84:	270c      	movs	r7, #12
20003e86:	1b7f      	subs	r7, r7, r5
20003e88:	40fe      	lsrs	r6, r7
20003e8a:	4677      	mov	r7, lr
20003e8c:	0b7f      	lsrs	r7, r7, #13
20003e8e:	40af      	lsls	r7, r5
20003e90:	19ff      	adds	r7, r7, r7
20003e92:	e7e0      	b.n	20003e56 <y64_x48+0xcc>

20003e94 <y64_x64>:
20003e94:	2400      	movs	r4, #0
20003e96:	1c5d      	adds	r5, r3, #1
20003e98:	d007      	beq.n	20003eaa <y64_x64+0x16>
20003e9a:	4f14      	ldr	r7, [pc, #80]	; (20003eec <y64_x64+0x58>)
20003e9c:	667d      	str	r5, [r7, #100]	; 0x64
20003e9e:	6639      	str	r1, [r7, #96]	; 0x60
20003ea0:	e7ff      	b.n	20003ea2 <y64_x64+0xe>
20003ea2:	e7ff      	b.n	20003ea4 <y64_x64+0x10>
20003ea4:	e7ff      	b.n	20003ea6 <y64_x64+0x12>
20003ea6:	e7ff      	b.n	20003ea8 <y64_x64+0x14>
20003ea8:	6f3c      	ldr	r4, [r7, #112]	; 0x70
20003eaa:	b295      	uxth	r5, r2
20003eac:	b29e      	uxth	r6, r3
20003eae:	4365      	muls	r5, r4
20003eb0:	4366      	muls	r6, r4
20003eb2:	1b40      	subs	r0, r0, r5
20003eb4:	41b1      	sbcs	r1, r6
20003eb6:	0c15      	lsrs	r5, r2, #16
20003eb8:	0c1e      	lsrs	r6, r3, #16
20003eba:	4365      	muls	r5, r4
20003ebc:	4366      	muls	r6, r4
20003ebe:	0436      	lsls	r6, r6, #16
20003ec0:	0c2f      	lsrs	r7, r5, #16
20003ec2:	433e      	orrs	r6, r7
20003ec4:	042d      	lsls	r5, r5, #16
20003ec6:	1b40      	subs	r0, r0, r5
20003ec8:	41b1      	sbcs	r1, r6
20003eca:	4299      	cmp	r1, r3
20003ecc:	d204      	bcs.n	20003ed8 <y64_x64+0x44>
20003ece:	0002      	movs	r2, r0
20003ed0:	000b      	movs	r3, r1
20003ed2:	0020      	movs	r0, r4
20003ed4:	2100      	movs	r1, #0
20003ed6:	bdf0      	pop	{r4, r5, r6, r7, pc}
20003ed8:	d101      	bne.n	20003ede <y64_x64+0x4a>
20003eda:	4290      	cmp	r0, r2
20003edc:	d3f7      	bcc.n	20003ece <y64_x64+0x3a>
20003ede:	1a80      	subs	r0, r0, r2
20003ee0:	4199      	sbcs	r1, r3
20003ee2:	3401      	adds	r4, #1
20003ee4:	4299      	cmp	r1, r3
20003ee6:	d3f2      	bcc.n	20003ece <y64_x64+0x3a>
20003ee8:	e7f6      	b.n	20003ed8 <y64_x64+0x44>
20003eea:	0000      	.short	0x0000
20003eec:	d0000000 	.word	0xd0000000
20003ef0:	ffffffff 	.word	0xffffffff

20003ef4 <__aeabi_double_init>:
20003ef4:	2313      	movs	r3, #19
20003ef6:	b570      	push	{r4, r5, r6, lr}
20003ef8:	781d      	ldrb	r5, [r3, #0]
20003efa:	2d01      	cmp	r5, #1
20003efc:	d015      	beq.n	20003f2a <__aeabi_double_init+0x36>
20003efe:	dd10      	ble.n	20003f22 <__aeabi_double_init+0x2e>
20003f00:	481d      	ldr	r0, [pc, #116]	; (20003f78 <__aeabi_double_init+0x84>)
20003f02:	f7ff fd95 	bl	20003a30 <rom_data_lookup>
20003f06:	4c1d      	ldr	r4, [pc, #116]	; (20003f7c <__aeabi_double_init+0x88>)
20003f08:	0001      	movs	r1, r0
20003f0a:	2280      	movs	r2, #128	; 0x80
20003f0c:	0020      	movs	r0, r4
20003f0e:	f000 f8c3 	bl	20004098 <__wrap___aeabi_memcpy>
20003f12:	2d02      	cmp	r5, #2
20003f14:	d02d      	beq.n	20003f72 <__aeabi_double_init+0x7e>
20003f16:	481a      	ldr	r0, [pc, #104]	; (20003f80 <__aeabi_double_init+0x8c>)
20003f18:	f7ff fd82 	bl	20003a20 <rom_func_lookup>
20003f1c:	4b19      	ldr	r3, [pc, #100]	; (20003f84 <__aeabi_double_init+0x90>)
20003f1e:	6018      	str	r0, [r3, #0]
20003f20:	bd70      	pop	{r4, r5, r6, pc}
20003f22:	4b19      	ldr	r3, [pc, #100]	; (20003f88 <__aeabi_double_init+0x94>)
20003f24:	4c15      	ldr	r4, [pc, #84]	; (20003f7c <__aeabi_double_init+0x88>)
20003f26:	64a3      	str	r3, [r4, #72]	; 0x48
20003f28:	e7f5      	b.n	20003f16 <__aeabi_double_init+0x22>
20003f2a:	4b17      	ldr	r3, [pc, #92]	; (20003f88 <__aeabi_double_init+0x94>)
20003f2c:	4c13      	ldr	r4, [pc, #76]	; (20003f7c <__aeabi_double_init+0x88>)
20003f2e:	6023      	str	r3, [r4, #0]
20003f30:	6063      	str	r3, [r4, #4]
20003f32:	60a3      	str	r3, [r4, #8]
20003f34:	60e3      	str	r3, [r4, #12]
20003f36:	6123      	str	r3, [r4, #16]
20003f38:	6163      	str	r3, [r4, #20]
20003f3a:	61a3      	str	r3, [r4, #24]
20003f3c:	61e3      	str	r3, [r4, #28]
20003f3e:	6223      	str	r3, [r4, #32]
20003f40:	6263      	str	r3, [r4, #36]	; 0x24
20003f42:	62a3      	str	r3, [r4, #40]	; 0x28
20003f44:	62e3      	str	r3, [r4, #44]	; 0x2c
20003f46:	6323      	str	r3, [r4, #48]	; 0x30
20003f48:	6363      	str	r3, [r4, #52]	; 0x34
20003f4a:	63a3      	str	r3, [r4, #56]	; 0x38
20003f4c:	63e3      	str	r3, [r4, #60]	; 0x3c
20003f4e:	6423      	str	r3, [r4, #64]	; 0x40
20003f50:	6463      	str	r3, [r4, #68]	; 0x44
20003f52:	64a3      	str	r3, [r4, #72]	; 0x48
20003f54:	64e3      	str	r3, [r4, #76]	; 0x4c
20003f56:	6523      	str	r3, [r4, #80]	; 0x50
20003f58:	6563      	str	r3, [r4, #84]	; 0x54
20003f5a:	65a3      	str	r3, [r4, #88]	; 0x58
20003f5c:	65e3      	str	r3, [r4, #92]	; 0x5c
20003f5e:	6623      	str	r3, [r4, #96]	; 0x60
20003f60:	6663      	str	r3, [r4, #100]	; 0x64
20003f62:	66a3      	str	r3, [r4, #104]	; 0x68
20003f64:	66e3      	str	r3, [r4, #108]	; 0x6c
20003f66:	6723      	str	r3, [r4, #112]	; 0x70
20003f68:	6763      	str	r3, [r4, #116]	; 0x74
20003f6a:	67a3      	str	r3, [r4, #120]	; 0x78
20003f6c:	67e3      	str	r3, [r4, #124]	; 0x7c
20003f6e:	64a3      	str	r3, [r4, #72]	; 0x48
20003f70:	e7d1      	b.n	20003f16 <__aeabi_double_init+0x22>
20003f72:	4b05      	ldr	r3, [pc, #20]	; (20003f88 <__aeabi_double_init+0x94>)
20003f74:	64a3      	str	r3, [r4, #72]	; 0x48
20003f76:	e7ce      	b.n	20003f16 <__aeabi_double_init+0x22>
20003f78:	00004453 	.word	0x00004453
20003f7c:	2000a328 	.word	0x2000a328
20003f80:	0000334c 	.word	0x0000334c
20003f84:	20010440 	.word	0x20010440
20003f88:	20003f8d 	.word	0x20003f8d

20003f8c <double_table_shim_on_use_helper>:
20003f8c:	b507      	push	{r0, r1, r2, lr}
20003f8e:	4660      	mov	r0, ip
20003f90:	8801      	ldrh	r1, [r0, #0]
20003f92:	0a0a      	lsrs	r2, r1, #8
20003f94:	3002      	adds	r0, #2
20003f96:	2adf      	cmp	r2, #223	; 0xdf
20003f98:	d1fa      	bne.n	20003f90 <double_table_shim_on_use_helper+0x4>
20003f9a:	b2c9      	uxtb	r1, r1
20003f9c:	0882      	lsrs	r2, r0, #2
20003f9e:	d304      	bcc.n	20003faa <double_table_shim_on_use_helper+0x1e>
20003fa0:	8802      	ldrh	r2, [r0, #0]
20003fa2:	8840      	ldrh	r0, [r0, #2]
20003fa4:	0400      	lsls	r0, r0, #16
20003fa6:	4310      	orrs	r0, r2
20003fa8:	e000      	b.n	20003fac <double_table_shim_on_use_helper+0x20>
20003faa:	6800      	ldr	r0, [r0, #0]
20003fac:	4a01      	ldr	r2, [pc, #4]	; (20003fb4 <double_table_shim_on_use_helper+0x28>)
20003fae:	5050      	str	r0, [r2, r1]
20003fb0:	9003      	str	r0, [sp, #12]
20003fb2:	bd07      	pop	{r0, r1, r2, pc}
20003fb4:	2000a328 	.word	0x2000a328

20003fb8 <__wrap___aeabi_lmul>:
20003fb8:	4351      	muls	r1, r2
20003fba:	4343      	muls	r3, r0
20003fbc:	18c9      	adds	r1, r1, r3
20003fbe:	468c      	mov	ip, r1
20003fc0:	0c11      	lsrs	r1, r2, #16
20003fc2:	b283      	uxth	r3, r0
20003fc4:	434b      	muls	r3, r1
20003fc6:	b410      	push	{r4}
20003fc8:	0c04      	lsrs	r4, r0, #16
20003fca:	4361      	muls	r1, r4
20003fcc:	b292      	uxth	r2, r2
20003fce:	b280      	uxth	r0, r0
20003fd0:	4350      	muls	r0, r2
20003fd2:	4362      	muls	r2, r4
20003fd4:	041c      	lsls	r4, r3, #16
20003fd6:	0c1b      	lsrs	r3, r3, #16
20003fd8:	1900      	adds	r0, r0, r4
20003fda:	bc10      	pop	{r4}
20003fdc:	4159      	adcs	r1, r3
20003fde:	0413      	lsls	r3, r2, #16
20003fe0:	0c12      	lsrs	r2, r2, #16
20003fe2:	18c0      	adds	r0, r0, r3
20003fe4:	4151      	adcs	r1, r2
20003fe6:	4461      	add	r1, ip
20003fe8:	4770      	bx	lr
	...

20003fec <__aeabi_float_init>:
20003fec:	2313      	movs	r3, #19
20003fee:	b510      	push	{r4, lr}
20003ff0:	4812      	ldr	r0, [pc, #72]	; (2000403c <__aeabi_float_init+0x50>)
20003ff2:	781c      	ldrb	r4, [r3, #0]
20003ff4:	f7ff fd1c 	bl	20003a30 <rom_data_lookup>
20003ff8:	0001      	movs	r1, r0
20003ffa:	2c01      	cmp	r4, #1
20003ffc:	d00a      	beq.n	20004014 <__aeabi_float_init+0x28>
20003ffe:	dd03      	ble.n	20004008 <__aeabi_float_init+0x1c>
20004000:	2280      	movs	r2, #128	; 0x80
20004002:	480f      	ldr	r0, [pc, #60]	; (20004040 <__aeabi_float_init+0x54>)
20004004:	f000 f848 	bl	20004098 <__wrap___aeabi_memcpy>
20004008:	480e      	ldr	r0, [pc, #56]	; (20004044 <__aeabi_float_init+0x58>)
2000400a:	f7ff fd09 	bl	20003a20 <rom_func_lookup>
2000400e:	4b0e      	ldr	r3, [pc, #56]	; (20004048 <__aeabi_float_init+0x5c>)
20004010:	6018      	str	r0, [r3, #0]
20004012:	bd10      	pop	{r4, pc}
20004014:	4c0a      	ldr	r4, [pc, #40]	; (20004040 <__aeabi_float_init+0x54>)
20004016:	2254      	movs	r2, #84	; 0x54
20004018:	0020      	movs	r0, r4
2000401a:	f000 f83d 	bl	20004098 <__wrap___aeabi_memcpy>
2000401e:	4b0b      	ldr	r3, [pc, #44]	; (2000404c <__aeabi_float_init+0x60>)
20004020:	6563      	str	r3, [r4, #84]	; 0x54
20004022:	65a3      	str	r3, [r4, #88]	; 0x58
20004024:	65e3      	str	r3, [r4, #92]	; 0x5c
20004026:	6623      	str	r3, [r4, #96]	; 0x60
20004028:	6663      	str	r3, [r4, #100]	; 0x64
2000402a:	66a3      	str	r3, [r4, #104]	; 0x68
2000402c:	66e3      	str	r3, [r4, #108]	; 0x6c
2000402e:	6723      	str	r3, [r4, #112]	; 0x70
20004030:	6763      	str	r3, [r4, #116]	; 0x74
20004032:	67a3      	str	r3, [r4, #120]	; 0x78
20004034:	67e3      	str	r3, [r4, #124]	; 0x7c
20004036:	6223      	str	r3, [r4, #32]
20004038:	61e3      	str	r3, [r4, #28]
2000403a:	e7e5      	b.n	20004008 <__aeabi_float_init+0x1c>
2000403c:	00004653 	.word	0x00004653
20004040:	2000a428 	.word	0x2000a428
20004044:	0000334c 	.word	0x0000334c
20004048:	20010440 	.word	0x20010440
2000404c:	20004051 	.word	0x20004051

20004050 <float_table_shim_on_use_helper>:
20004050:	b507      	push	{r0, r1, r2, lr}
20004052:	4660      	mov	r0, ip
20004054:	8801      	ldrh	r1, [r0, #0]
20004056:	0a0a      	lsrs	r2, r1, #8
20004058:	3002      	adds	r0, #2
2000405a:	2adf      	cmp	r2, #223	; 0xdf
2000405c:	d1fa      	bne.n	20004054 <float_table_shim_on_use_helper+0x4>
2000405e:	b2c9      	uxtb	r1, r1
20004060:	0882      	lsrs	r2, r0, #2
20004062:	d304      	bcc.n	2000406e <float_table_shim_on_use_helper+0x1e>
20004064:	8802      	ldrh	r2, [r0, #0]
20004066:	8840      	ldrh	r0, [r0, #2]
20004068:	0400      	lsls	r0, r0, #16
2000406a:	4310      	orrs	r0, r2
2000406c:	e000      	b.n	20004070 <float_table_shim_on_use_helper+0x20>
2000406e:	6800      	ldr	r0, [r0, #0]
20004070:	4a01      	ldr	r2, [pc, #4]	; (20004078 <float_table_shim_on_use_helper+0x28>)
20004072:	5050      	str	r0, [r2, r1]
20004074:	9003      	str	r0, [sp, #12]
20004076:	bd07      	pop	{r0, r1, r2, pc}
20004078:	2000a428 	.word	0x2000a428

2000407c <__aeabi_mem_init>:
2000407c:	4801      	ldr	r0, [pc, #4]	; (20004084 <__aeabi_mem_init+0x8>)
2000407e:	2104      	movs	r1, #4
20004080:	4b01      	ldr	r3, [pc, #4]	; (20004088 <__aeabi_mem_init+0xc>)
20004082:	4718      	bx	r3
20004084:	2000a180 	.word	0x2000a180
20004088:	20003a41 	.word	0x20003a41

2000408c <__wrap_memset>:
2000408c:	4b01      	ldr	r3, [pc, #4]	; (20004094 <__wrap_memset+0x8>)
2000408e:	681b      	ldr	r3, [r3, #0]
20004090:	4718      	bx	r3
20004092:	0000      	.short	0x0000
20004094:	2000a180 	.word	0x2000a180

20004098 <__wrap___aeabi_memcpy>:
20004098:	4b01      	ldr	r3, [pc, #4]	; (200040a0 <__wrap___aeabi_memcpy+0x8>)
2000409a:	685b      	ldr	r3, [r3, #4]
2000409c:	4718      	bx	r3
2000409e:	0000      	.short	0x0000
200040a0:	2000a180 	.word	0x2000a180

200040a4 <stdio_out_chars_crlf>:
200040a4:	b5f0      	push	{r4, r5, r6, r7, lr}
200040a6:	4646      	mov	r6, r8
200040a8:	464f      	mov	r7, r9
200040aa:	46d6      	mov	lr, sl
200040ac:	b5c0      	push	{r6, r7, lr}
200040ae:	7d43      	ldrb	r3, [r0, #21]
200040b0:	4680      	mov	r8, r0
200040b2:	000e      	movs	r6, r1
200040b4:	0017      	movs	r7, r2
200040b6:	2b00      	cmp	r3, #0
200040b8:	d04b      	beq.n	20004152 <stdio_out_chars_crlf+0xae>
200040ba:	2a00      	cmp	r2, #0
200040bc:	dd32      	ble.n	20004124 <stdio_out_chars_crlf+0x80>
200040be:	4b27      	ldr	r3, [pc, #156]	; (2000415c <stdio_out_chars_crlf+0xb8>)
200040c0:	2501      	movs	r5, #1
200040c2:	469a      	mov	sl, r3
200040c4:	1e4b      	subs	r3, r1, #1
200040c6:	2400      	movs	r4, #0
200040c8:	2000      	movs	r0, #0
200040ca:	4699      	mov	r9, r3
200040cc:	e007      	b.n	200040de <stdio_out_chars_crlf+0x3a>
200040ce:	5d33      	ldrb	r3, [r6, r4]
200040d0:	2b0a      	cmp	r3, #10
200040d2:	d02c      	beq.n	2000412e <stdio_out_chars_crlf+0x8a>
200040d4:	002b      	movs	r3, r5
200040d6:	3401      	adds	r4, #1
200040d8:	3501      	adds	r5, #1
200040da:	42bb      	cmp	r3, r7
200040dc:	da13      	bge.n	20004106 <stdio_out_chars_crlf+0x62>
200040de:	2c00      	cmp	r4, #0
200040e0:	d1f5      	bne.n	200040ce <stdio_out_chars_crlf+0x2a>
200040e2:	7833      	ldrb	r3, [r6, #0]
200040e4:	2b0a      	cmp	r3, #10
200040e6:	d1f5      	bne.n	200040d4 <stdio_out_chars_crlf+0x30>
200040e8:	4643      	mov	r3, r8
200040ea:	7d1b      	ldrb	r3, [r3, #20]
200040ec:	2b00      	cmp	r3, #0
200040ee:	d1f1      	bne.n	200040d4 <stdio_out_chars_crlf+0x30>
200040f0:	4643      	mov	r3, r8
200040f2:	4650      	mov	r0, sl
200040f4:	2102      	movs	r1, #2
200040f6:	681b      	ldr	r3, [r3, #0]
200040f8:	4798      	blx	r3
200040fa:	0028      	movs	r0, r5
200040fc:	002b      	movs	r3, r5
200040fe:	3401      	adds	r4, #1
20004100:	3501      	adds	r5, #1
20004102:	42bb      	cmp	r3, r7
20004104:	dbeb      	blt.n	200040de <stdio_out_chars_crlf+0x3a>
20004106:	4287      	cmp	r7, r0
20004108:	dd04      	ble.n	20004114 <stdio_out_chars_crlf+0x70>
2000410a:	4643      	mov	r3, r8
2000410c:	1a39      	subs	r1, r7, r0
2000410e:	681b      	ldr	r3, [r3, #0]
20004110:	1830      	adds	r0, r6, r0
20004112:	4798      	blx	r3
20004114:	19f6      	adds	r6, r6, r7
20004116:	3e01      	subs	r6, #1
20004118:	7833      	ldrb	r3, [r6, #0]
2000411a:	3b0d      	subs	r3, #13
2000411c:	425a      	negs	r2, r3
2000411e:	4153      	adcs	r3, r2
20004120:	4642      	mov	r2, r8
20004122:	7513      	strb	r3, [r2, #20]
20004124:	bce0      	pop	{r5, r6, r7}
20004126:	46ba      	mov	sl, r7
20004128:	46b1      	mov	r9, r6
2000412a:	46a8      	mov	r8, r5
2000412c:	bdf0      	pop	{r4, r5, r6, r7, pc}
2000412e:	464b      	mov	r3, r9
20004130:	5d1b      	ldrb	r3, [r3, r4]
20004132:	2b0d      	cmp	r3, #13
20004134:	d0ce      	beq.n	200040d4 <stdio_out_chars_crlf+0x30>
20004136:	42a0      	cmp	r0, r4
20004138:	dada      	bge.n	200040f0 <stdio_out_chars_crlf+0x4c>
2000413a:	4643      	mov	r3, r8
2000413c:	1a21      	subs	r1, r4, r0
2000413e:	681b      	ldr	r3, [r3, #0]
20004140:	1830      	adds	r0, r6, r0
20004142:	4798      	blx	r3
20004144:	4643      	mov	r3, r8
20004146:	4650      	mov	r0, sl
20004148:	2102      	movs	r1, #2
2000414a:	681b      	ldr	r3, [r3, #0]
2000414c:	4798      	blx	r3
2000414e:	0028      	movs	r0, r5
20004150:	e7d4      	b.n	200040fc <stdio_out_chars_crlf+0x58>
20004152:	6803      	ldr	r3, [r0, #0]
20004154:	0011      	movs	r1, r2
20004156:	0030      	movs	r0, r6
20004158:	4798      	blx	r3
2000415a:	e7e3      	b.n	20004124 <stdio_out_chars_crlf+0x80>
2000415c:	20009e60 	.word	0x20009e60

20004160 <__wrap_putchar>:
20004160:	b5f0      	push	{r4, r5, r6, r7, lr}
20004162:	46ce      	mov	lr, r9
20004164:	4647      	mov	r7, r8
20004166:	b580      	push	{r7, lr}
20004168:	b083      	sub	sp, #12
2000416a:	466b      	mov	r3, sp
2000416c:	0006      	movs	r6, r0
2000416e:	1ddd      	adds	r5, r3, #7
20004170:	7028      	strb	r0, [r5, #0]
20004172:	f7fe f9b1 	bl	200024d8 <time_us_64>
20004176:	2300      	movs	r3, #0
20004178:	4a1a      	ldr	r2, [pc, #104]	; (200041e4 <__wrap_putchar+0x84>)
2000417a:	1812      	adds	r2, r2, r0
2000417c:	414b      	adcs	r3, r1
2000417e:	2180      	movs	r1, #128	; 0x80
20004180:	0609      	lsls	r1, r1, #24
20004182:	428b      	cmp	r3, r1
20004184:	d302      	bcc.n	2000418c <__wrap_putchar+0x2c>
20004186:	2201      	movs	r2, #1
20004188:	4b17      	ldr	r3, [pc, #92]	; (200041e8 <__wrap_putchar+0x88>)
2000418a:	4252      	negs	r2, r2
2000418c:	4917      	ldr	r1, [pc, #92]	; (200041ec <__wrap_putchar+0x8c>)
2000418e:	0008      	movs	r0, r1
20004190:	4688      	mov	r8, r1
20004192:	f004 fdfd 	bl	20008d90 <mutex_try_enter_block_until>
20004196:	4b16      	ldr	r3, [pc, #88]	; (200041f0 <__wrap_putchar+0x90>)
20004198:	4681      	mov	r9, r0
2000419a:	681c      	ldr	r4, [r3, #0]
2000419c:	2c00      	cmp	r4, #0
2000419e:	d014      	beq.n	200041ca <__wrap_putchar+0x6a>
200041a0:	4f14      	ldr	r7, [pc, #80]	; (200041f4 <__wrap_putchar+0x94>)
200041a2:	e002      	b.n	200041aa <__wrap_putchar+0x4a>
200041a4:	6924      	ldr	r4, [r4, #16]
200041a6:	2c00      	cmp	r4, #0
200041a8:	d00f      	beq.n	200041ca <__wrap_putchar+0x6a>
200041aa:	6823      	ldr	r3, [r4, #0]
200041ac:	2b00      	cmp	r3, #0
200041ae:	d0f9      	beq.n	200041a4 <__wrap_putchar+0x44>
200041b0:	683b      	ldr	r3, [r7, #0]
200041b2:	2b00      	cmp	r3, #0
200041b4:	d001      	beq.n	200041ba <__wrap_putchar+0x5a>
200041b6:	42a3      	cmp	r3, r4
200041b8:	d1f4      	bne.n	200041a4 <__wrap_putchar+0x44>
200041ba:	0020      	movs	r0, r4
200041bc:	2201      	movs	r2, #1
200041be:	0029      	movs	r1, r5
200041c0:	f7ff ff70 	bl	200040a4 <stdio_out_chars_crlf>
200041c4:	6924      	ldr	r4, [r4, #16]
200041c6:	2c00      	cmp	r4, #0
200041c8:	d1ef      	bne.n	200041aa <__wrap_putchar+0x4a>
200041ca:	464b      	mov	r3, r9
200041cc:	2b00      	cmp	r3, #0
200041ce:	d105      	bne.n	200041dc <__wrap_putchar+0x7c>
200041d0:	0030      	movs	r0, r6
200041d2:	b003      	add	sp, #12
200041d4:	bcc0      	pop	{r6, r7}
200041d6:	46b9      	mov	r9, r7
200041d8:	46b0      	mov	r8, r6
200041da:	bdf0      	pop	{r4, r5, r6, r7, pc}
200041dc:	4640      	mov	r0, r8
200041de:	f004 fe63 	bl	20008ea8 <mutex_exit>
200041e2:	e7f5      	b.n	200041d0 <__wrap_putchar+0x70>
200041e4:	000f4240 	.word	0x000f4240
200041e8:	7fffffff 	.word	0x7fffffff
200041ec:	2000a1dc 	.word	0x2000a1dc
200041f0:	2000fd3c 	.word	0x2000fd3c
200041f4:	2000fd44 	.word	0x2000fd44

200041f8 <__wrap_puts>:
200041f8:	b5f0      	push	{r4, r5, r6, r7, lr}
200041fa:	46de      	mov	lr, fp
200041fc:	4657      	mov	r7, sl
200041fe:	464e      	mov	r6, r9
20004200:	4645      	mov	r5, r8
20004202:	b5e0      	push	{r5, r6, r7, lr}
20004204:	b085      	sub	sp, #20
20004206:	0007      	movs	r7, r0
20004208:	f004 fd8e 	bl	20008d28 <strlen>
2000420c:	0006      	movs	r6, r0
2000420e:	f7fe f963 	bl	200024d8 <time_us_64>
20004212:	2300      	movs	r3, #0
20004214:	4a2b      	ldr	r2, [pc, #172]	; (200042c4 <__wrap_puts+0xcc>)
20004216:	1812      	adds	r2, r2, r0
20004218:	414b      	adcs	r3, r1
2000421a:	2180      	movs	r1, #128	; 0x80
2000421c:	0609      	lsls	r1, r1, #24
2000421e:	428b      	cmp	r3, r1
20004220:	d302      	bcc.n	20004228 <__wrap_puts+0x30>
20004222:	2201      	movs	r2, #1
20004224:	4b28      	ldr	r3, [pc, #160]	; (200042c8 <__wrap_puts+0xd0>)
20004226:	4252      	negs	r2, r2
20004228:	4928      	ldr	r1, [pc, #160]	; (200042cc <__wrap_puts+0xd4>)
2000422a:	0008      	movs	r0, r1
2000422c:	468b      	mov	fp, r1
2000422e:	f004 fdaf 	bl	20008d90 <mutex_try_enter_block_until>
20004232:	4b27      	ldr	r3, [pc, #156]	; (200042d0 <__wrap_puts+0xd8>)
20004234:	9001      	str	r0, [sp, #4]
20004236:	681c      	ldr	r4, [r3, #0]
20004238:	469a      	mov	sl, r3
2000423a:	2c00      	cmp	r4, #0
2000423c:	d03b      	beq.n	200042b6 <__wrap_puts+0xbe>
2000423e:	4b25      	ldr	r3, [pc, #148]	; (200042d4 <__wrap_puts+0xdc>)
20004240:	4698      	mov	r8, r3
20004242:	ab02      	add	r3, sp, #8
20004244:	1ddd      	adds	r5, r3, #7
20004246:	230a      	movs	r3, #10
20004248:	4699      	mov	r9, r3
2000424a:	e002      	b.n	20004252 <__wrap_puts+0x5a>
2000424c:	6924      	ldr	r4, [r4, #16]
2000424e:	2c00      	cmp	r4, #0
20004250:	d017      	beq.n	20004282 <__wrap_puts+0x8a>
20004252:	6823      	ldr	r3, [r4, #0]
20004254:	2b00      	cmp	r3, #0
20004256:	d0f9      	beq.n	2000424c <__wrap_puts+0x54>
20004258:	4643      	mov	r3, r8
2000425a:	681b      	ldr	r3, [r3, #0]
2000425c:	2b00      	cmp	r3, #0
2000425e:	d001      	beq.n	20004264 <__wrap_puts+0x6c>
20004260:	42a3      	cmp	r3, r4
20004262:	d1f3      	bne.n	2000424c <__wrap_puts+0x54>
20004264:	0020      	movs	r0, r4
20004266:	0032      	movs	r2, r6
20004268:	0039      	movs	r1, r7
2000426a:	f7ff ff1b 	bl	200040a4 <stdio_out_chars_crlf>
2000426e:	464b      	mov	r3, r9
20004270:	0020      	movs	r0, r4
20004272:	2201      	movs	r2, #1
20004274:	0029      	movs	r1, r5
20004276:	702b      	strb	r3, [r5, #0]
20004278:	f7ff ff14 	bl	200040a4 <stdio_out_chars_crlf>
2000427c:	6924      	ldr	r4, [r4, #16]
2000427e:	2c00      	cmp	r4, #0
20004280:	d1e7      	bne.n	20004252 <__wrap_puts+0x5a>
20004282:	9b01      	ldr	r3, [sp, #4]
20004284:	2b00      	cmp	r3, #0
20004286:	d118      	bne.n	200042ba <__wrap_puts+0xc2>
20004288:	4653      	mov	r3, sl
2000428a:	681c      	ldr	r4, [r3, #0]
2000428c:	2c00      	cmp	r4, #0
2000428e:	d006      	beq.n	2000429e <__wrap_puts+0xa6>
20004290:	6863      	ldr	r3, [r4, #4]
20004292:	2b00      	cmp	r3, #0
20004294:	d00b      	beq.n	200042ae <__wrap_puts+0xb6>
20004296:	4798      	blx	r3
20004298:	6924      	ldr	r4, [r4, #16]
2000429a:	2c00      	cmp	r4, #0
2000429c:	d1f8      	bne.n	20004290 <__wrap_puts+0x98>
2000429e:	0030      	movs	r0, r6
200042a0:	b005      	add	sp, #20
200042a2:	bcf0      	pop	{r4, r5, r6, r7}
200042a4:	46bb      	mov	fp, r7
200042a6:	46b2      	mov	sl, r6
200042a8:	46a9      	mov	r9, r5
200042aa:	46a0      	mov	r8, r4
200042ac:	bdf0      	pop	{r4, r5, r6, r7, pc}
200042ae:	6924      	ldr	r4, [r4, #16]
200042b0:	2c00      	cmp	r4, #0
200042b2:	d1ed      	bne.n	20004290 <__wrap_puts+0x98>
200042b4:	e7f3      	b.n	2000429e <__wrap_puts+0xa6>
200042b6:	2800      	cmp	r0, #0
200042b8:	d0f1      	beq.n	2000429e <__wrap_puts+0xa6>
200042ba:	4658      	mov	r0, fp
200042bc:	f004 fdf4 	bl	20008ea8 <mutex_exit>
200042c0:	e7e2      	b.n	20004288 <__wrap_puts+0x90>
200042c2:	46c0      	nop			; (mov r8, r8)
200042c4:	000f4240 	.word	0x000f4240
200042c8:	7fffffff 	.word	0x7fffffff
200042cc:	2000a1dc 	.word	0x2000a1dc
200042d0:	2000fd3c 	.word	0x2000fd3c
200042d4:	2000fd44 	.word	0x2000fd44

200042d8 <stdio_set_driver_enabled>:
200042d8:	4a0a      	ldr	r2, [pc, #40]	; (20004304 <stdio_set_driver_enabled+0x2c>)
200042da:	6813      	ldr	r3, [r2, #0]
200042dc:	2b00      	cmp	r3, #0
200042de:	d105      	bne.n	200042ec <stdio_set_driver_enabled+0x14>
200042e0:	e00c      	b.n	200042fc <stdio_set_driver_enabled+0x24>
200042e2:	001a      	movs	r2, r3
200042e4:	691b      	ldr	r3, [r3, #16]
200042e6:	3210      	adds	r2, #16
200042e8:	2b00      	cmp	r3, #0
200042ea:	d007      	beq.n	200042fc <stdio_set_driver_enabled+0x24>
200042ec:	4298      	cmp	r0, r3
200042ee:	d1f8      	bne.n	200042e2 <stdio_set_driver_enabled+0xa>
200042f0:	2900      	cmp	r1, #0
200042f2:	d102      	bne.n	200042fa <stdio_set_driver_enabled+0x22>
200042f4:	6903      	ldr	r3, [r0, #16]
200042f6:	6013      	str	r3, [r2, #0]
200042f8:	6101      	str	r1, [r0, #16]
200042fa:	4770      	bx	lr
200042fc:	2900      	cmp	r1, #0
200042fe:	d0fc      	beq.n	200042fa <stdio_set_driver_enabled+0x22>
20004300:	6010      	str	r0, [r2, #0]
20004302:	e7fa      	b.n	200042fa <stdio_set_driver_enabled+0x22>
20004304:	2000fd3c 	.word	0x2000fd3c

20004308 <stdio_uart_out_chars>:
20004308:	b5f0      	push	{r4, r5, r6, r7, lr}
2000430a:	2900      	cmp	r1, #0
2000430c:	dd15      	ble.n	2000433a <stdio_uart_out_chars+0x32>
2000430e:	4b0e      	ldr	r3, [pc, #56]	; (20004348 <stdio_uart_out_chars+0x40>)
20004310:	270d      	movs	r7, #13
20004312:	681a      	ldr	r2, [r3, #0]
20004314:	4b0d      	ldr	r3, [pc, #52]	; (2000434c <stdio_uart_out_chars+0x44>)
20004316:	4c0e      	ldr	r4, [pc, #56]	; (20004350 <stdio_uart_out_chars+0x48>)
20004318:	18d3      	adds	r3, r2, r3
2000431a:	425d      	negs	r5, r3
2000431c:	416b      	adcs	r3, r5
2000431e:	1845      	adds	r5, r0, r1
20004320:	2120      	movs	r1, #32
20004322:	005b      	lsls	r3, r3, #1
20004324:	5f1e      	ldrsh	r6, [r3, r4]
20004326:	7804      	ldrb	r4, [r0, #0]
20004328:	42a6      	cmp	r6, r4
2000432a:	d007      	beq.n	2000433c <stdio_uart_out_chars+0x34>
2000432c:	6993      	ldr	r3, [r2, #24]
2000432e:	4219      	tst	r1, r3
20004330:	d1fc      	bne.n	2000432c <stdio_uart_out_chars+0x24>
20004332:	3001      	adds	r0, #1
20004334:	6014      	str	r4, [r2, #0]
20004336:	42a8      	cmp	r0, r5
20004338:	d1f5      	bne.n	20004326 <stdio_uart_out_chars+0x1e>
2000433a:	bdf0      	pop	{r4, r5, r6, r7, pc}
2000433c:	6993      	ldr	r3, [r2, #24]
2000433e:	4219      	tst	r1, r3
20004340:	d1fc      	bne.n	2000433c <stdio_uart_out_chars+0x34>
20004342:	6017      	str	r7, [r2, #0]
20004344:	e7f2      	b.n	2000432c <stdio_uart_out_chars+0x24>
20004346:	46c0      	nop			; (mov r8, r8)
20004348:	20010490 	.word	0x20010490
2000434c:	bffc8000 	.word	0xbffc8000
20004350:	20010488 	.word	0x20010488

20004354 <stdio_uart_in_chars>:
20004354:	b530      	push	{r4, r5, lr}
20004356:	0004      	movs	r4, r0
20004358:	1e0d      	subs	r5, r1, #0
2000435a:	dd30      	ble.n	200043be <stdio_uart_in_chars+0x6a>
2000435c:	2000      	movs	r0, #0
2000435e:	2110      	movs	r1, #16
20004360:	4b20      	ldr	r3, [pc, #128]	; (200043e4 <stdio_uart_in_chars+0x90>)
20004362:	3c01      	subs	r4, #1
20004364:	681a      	ldr	r2, [r3, #0]
20004366:	6993      	ldr	r3, [r2, #24]
20004368:	4219      	tst	r1, r3
2000436a:	d117      	bne.n	2000439c <stdio_uart_in_chars+0x48>
2000436c:	3001      	adds	r0, #1
2000436e:	6993      	ldr	r3, [r2, #24]
20004370:	4219      	tst	r1, r3
20004372:	d1fc      	bne.n	2000436e <stdio_uart_in_chars+0x1a>
20004374:	6813      	ldr	r3, [r2, #0]
20004376:	5423      	strb	r3, [r4, r0]
20004378:	4285      	cmp	r5, r0
2000437a:	d1f4      	bne.n	20004366 <stdio_uart_in_chars+0x12>
2000437c:	4b1a      	ldr	r3, [pc, #104]	; (200043e8 <stdio_uart_in_chars+0x94>)
2000437e:	681b      	ldr	r3, [r3, #0]
20004380:	2b00      	cmp	r3, #0
20004382:	d009      	beq.n	20004398 <stdio_uart_in_chars+0x44>
20004384:	2350      	movs	r3, #80	; 0x50
20004386:	2138      	movs	r1, #56	; 0x38
20004388:	6393      	str	r3, [r2, #56]	; 0x38
2000438a:	6b53      	ldr	r3, [r2, #52]	; 0x34
2000438c:	3234      	adds	r2, #52	; 0x34
2000438e:	4019      	ands	r1, r3
20004390:	2380      	movs	r3, #128	; 0x80
20004392:	015b      	lsls	r3, r3, #5
20004394:	4313      	orrs	r3, r2
20004396:	6019      	str	r1, [r3, #0]
20004398:	0028      	movs	r0, r5
2000439a:	e00f      	b.n	200043bc <stdio_uart_in_chars+0x68>
2000439c:	4b12      	ldr	r3, [pc, #72]	; (200043e8 <stdio_uart_in_chars+0x94>)
2000439e:	681b      	ldr	r3, [r3, #0]
200043a0:	2b00      	cmp	r3, #0
200043a2:	d009      	beq.n	200043b8 <stdio_uart_in_chars+0x64>
200043a4:	2350      	movs	r3, #80	; 0x50
200043a6:	2138      	movs	r1, #56	; 0x38
200043a8:	6393      	str	r3, [r2, #56]	; 0x38
200043aa:	6b53      	ldr	r3, [r2, #52]	; 0x34
200043ac:	3234      	adds	r2, #52	; 0x34
200043ae:	4019      	ands	r1, r3
200043b0:	2380      	movs	r3, #128	; 0x80
200043b2:	015b      	lsls	r3, r3, #5
200043b4:	431a      	orrs	r2, r3
200043b6:	6011      	str	r1, [r2, #0]
200043b8:	2800      	cmp	r0, #0
200043ba:	d010      	beq.n	200043de <stdio_uart_in_chars+0x8a>
200043bc:	bd30      	pop	{r4, r5, pc}
200043be:	4b0a      	ldr	r3, [pc, #40]	; (200043e8 <stdio_uart_in_chars+0x94>)
200043c0:	681b      	ldr	r3, [r3, #0]
200043c2:	2b00      	cmp	r3, #0
200043c4:	d00b      	beq.n	200043de <stdio_uart_in_chars+0x8a>
200043c6:	2250      	movs	r2, #80	; 0x50
200043c8:	2138      	movs	r1, #56	; 0x38
200043ca:	4b06      	ldr	r3, [pc, #24]	; (200043e4 <stdio_uart_in_chars+0x90>)
200043cc:	681b      	ldr	r3, [r3, #0]
200043ce:	639a      	str	r2, [r3, #56]	; 0x38
200043d0:	6b5a      	ldr	r2, [r3, #52]	; 0x34
200043d2:	3334      	adds	r3, #52	; 0x34
200043d4:	4011      	ands	r1, r2
200043d6:	2280      	movs	r2, #128	; 0x80
200043d8:	0152      	lsls	r2, r2, #5
200043da:	4313      	orrs	r3, r2
200043dc:	6019      	str	r1, [r3, #0]
200043de:	2003      	movs	r0, #3
200043e0:	4240      	negs	r0, r0
200043e2:	e7eb      	b.n	200043bc <stdio_uart_in_chars+0x68>
200043e4:	20010490 	.word	0x20010490
200043e8:	2000fcec 	.word	0x2000fcec

200043ec <on_uart_rx>:
200043ec:	4b06      	ldr	r3, [pc, #24]	; (20004408 <on_uart_rx+0x1c>)
200043ee:	b510      	push	{r4, lr}
200043f0:	681b      	ldr	r3, [r3, #0]
200043f2:	2b00      	cmp	r3, #0
200043f4:	d006      	beq.n	20004404 <on_uart_rx+0x18>
200043f6:	2100      	movs	r1, #0
200043f8:	4a04      	ldr	r2, [pc, #16]	; (2000440c <on_uart_rx+0x20>)
200043fa:	6812      	ldr	r2, [r2, #0]
200043fc:	6391      	str	r1, [r2, #56]	; 0x38
200043fe:	4a04      	ldr	r2, [pc, #16]	; (20004410 <on_uart_rx+0x24>)
20004400:	6810      	ldr	r0, [r2, #0]
20004402:	4798      	blx	r3
20004404:	bd10      	pop	{r4, pc}
20004406:	46c0      	nop			; (mov r8, r8)
20004408:	2000fcec 	.word	0x2000fcec
2000440c:	20010490 	.word	0x20010490
20004410:	2000fcf0 	.word	0x2000fcf0

20004414 <stdio_uart_set_chars_available_callback>:
20004414:	4b1d      	ldr	r3, [pc, #116]	; (2000448c <stdio_uart_set_chars_available_callback+0x78>)
20004416:	b5f0      	push	{r4, r5, r6, r7, lr}
20004418:	681a      	ldr	r2, [r3, #0]
2000441a:	46c6      	mov	lr, r8
2000441c:	4698      	mov	r8, r3
2000441e:	4b1c      	ldr	r3, [pc, #112]	; (20004490 <stdio_uart_set_chars_available_callback+0x7c>)
20004420:	000e      	movs	r6, r1
20004422:	18d3      	adds	r3, r2, r3
20004424:	4259      	negs	r1, r3
20004426:	414b      	adcs	r3, r1
20004428:	4f1a      	ldr	r7, [pc, #104]	; (20004494 <stdio_uart_set_chars_available_callback+0x80>)
2000442a:	3314      	adds	r3, #20
2000442c:	001c      	movs	r4, r3
2000442e:	0005      	movs	r5, r0
20004430:	b500      	push	{lr}
20004432:	683b      	ldr	r3, [r7, #0]
20004434:	2800      	cmp	r0, #0
20004436:	d007      	beq.n	20004448 <stdio_uart_set_chars_available_callback+0x34>
20004438:	2b00      	cmp	r3, #0
2000443a:	d011      	beq.n	20004460 <stdio_uart_set_chars_available_callback+0x4c>
2000443c:	4b16      	ldr	r3, [pc, #88]	; (20004498 <stdio_uart_set_chars_available_callback+0x84>)
2000443e:	603d      	str	r5, [r7, #0]
20004440:	601e      	str	r6, [r3, #0]
20004442:	bc80      	pop	{r7}
20004444:	46b8      	mov	r8, r7
20004446:	bdf0      	pop	{r4, r5, r6, r7, pc}
20004448:	2b00      	cmp	r3, #0
2000444a:	d0f7      	beq.n	2000443c <stdio_uart_set_chars_available_callback+0x28>
2000444c:	6390      	str	r0, [r2, #56]	; 0x38
2000444e:	2100      	movs	r1, #0
20004450:	0020      	movs	r0, r4
20004452:	f7fe fa0b 	bl	2000286c <irq_set_enabled>
20004456:	0020      	movs	r0, r4
20004458:	4910      	ldr	r1, [pc, #64]	; (2000449c <stdio_uart_set_chars_available_callback+0x88>)
2000445a:	f7fe fb45 	bl	20002ae8 <irq_remove_handler>
2000445e:	e7ed      	b.n	2000443c <stdio_uart_set_chars_available_callback+0x28>
20004460:	0020      	movs	r0, r4
20004462:	490e      	ldr	r1, [pc, #56]	; (2000449c <stdio_uart_set_chars_available_callback+0x88>)
20004464:	f7fe fa1c 	bl	200028a0 <irq_set_exclusive_handler>
20004468:	2101      	movs	r1, #1
2000446a:	0020      	movs	r0, r4
2000446c:	f7fe f9fe 	bl	2000286c <irq_set_enabled>
20004470:	4643      	mov	r3, r8
20004472:	2250      	movs	r2, #80	; 0x50
20004474:	2138      	movs	r1, #56	; 0x38
20004476:	681b      	ldr	r3, [r3, #0]
20004478:	639a      	str	r2, [r3, #56]	; 0x38
2000447a:	6b5a      	ldr	r2, [r3, #52]	; 0x34
2000447c:	3334      	adds	r3, #52	; 0x34
2000447e:	4011      	ands	r1, r2
20004480:	2280      	movs	r2, #128	; 0x80
20004482:	0152      	lsls	r2, r2, #5
20004484:	4313      	orrs	r3, r2
20004486:	6019      	str	r1, [r3, #0]
20004488:	e7d8      	b.n	2000443c <stdio_uart_set_chars_available_callback+0x28>
2000448a:	46c0      	nop			; (mov r8, r8)
2000448c:	20010490 	.word	0x20010490
20004490:	bffc8000 	.word	0xbffc8000
20004494:	2000fcec 	.word	0x2000fcec
20004498:	2000fcf0 	.word	0x2000fcf0
2000449c:	200043ed 	.word	0x200043ed

200044a0 <stdio_uart_init>:
200044a0:	4b0c      	ldr	r3, [pc, #48]	; (200044d4 <stdio_uart_init+0x34>)
200044a2:	b510      	push	{r4, lr}
200044a4:	781b      	ldrb	r3, [r3, #0]
200044a6:	4b0c      	ldr	r3, [pc, #48]	; (200044d8 <stdio_uart_init+0x38>)
200044a8:	4c0c      	ldr	r4, [pc, #48]	; (200044dc <stdio_uart_init+0x3c>)
200044aa:	781b      	ldrb	r3, [r3, #0]
200044ac:	4b0c      	ldr	r3, [pc, #48]	; (200044e0 <stdio_uart_init+0x40>)
200044ae:	2102      	movs	r1, #2
200044b0:	2000      	movs	r0, #0
200044b2:	6023      	str	r3, [r4, #0]
200044b4:	f7fe fe54 	bl	20003160 <gpio_set_function>
200044b8:	2102      	movs	r1, #2
200044ba:	2001      	movs	r0, #1
200044bc:	f7fe fe50 	bl	20003160 <gpio_set_function>
200044c0:	21e1      	movs	r1, #225	; 0xe1
200044c2:	6820      	ldr	r0, [r4, #0]
200044c4:	0249      	lsls	r1, r1, #9
200044c6:	f7fe fec1 	bl	2000324c <uart_init>
200044ca:	2101      	movs	r1, #1
200044cc:	4805      	ldr	r0, [pc, #20]	; (200044e4 <stdio_uart_init+0x44>)
200044ce:	f7ff ff03 	bl	200042d8 <stdio_set_driver_enabled>
200044d2:	bd10      	pop	{r4, pc}
200044d4:	1000031c 	.word	0x1000031c
200044d8:	10000318 	.word	0x10000318
200044dc:	20010490 	.word	0x20010490
200044e0:	40034000 	.word	0x40034000
200044e4:	2000a190 	.word	0x2000a190

200044e8 <stdio_uart_init_full>:
200044e8:	b570      	push	{r4, r5, r6, lr}
200044ea:	4e0c      	ldr	r6, [pc, #48]	; (2000451c <stdio_uart_init_full+0x34>)
200044ec:	000d      	movs	r5, r1
200044ee:	001c      	movs	r4, r3
200044f0:	6030      	str	r0, [r6, #0]
200044f2:	2a00      	cmp	r2, #0
200044f4:	db03      	blt.n	200044fe <stdio_uart_init_full+0x16>
200044f6:	2102      	movs	r1, #2
200044f8:	0010      	movs	r0, r2
200044fa:	f7fe fe31 	bl	20003160 <gpio_set_function>
200044fe:	2c00      	cmp	r4, #0
20004500:	db03      	blt.n	2000450a <stdio_uart_init_full+0x22>
20004502:	2102      	movs	r1, #2
20004504:	0020      	movs	r0, r4
20004506:	f7fe fe2b 	bl	20003160 <gpio_set_function>
2000450a:	0029      	movs	r1, r5
2000450c:	6830      	ldr	r0, [r6, #0]
2000450e:	f7fe fe9d 	bl	2000324c <uart_init>
20004512:	2101      	movs	r1, #1
20004514:	4802      	ldr	r0, [pc, #8]	; (20004520 <stdio_uart_init_full+0x38>)
20004516:	f7ff fedf 	bl	200042d8 <stdio_set_driver_enabled>
2000451a:	bd70      	pop	{r4, r5, r6, pc}
2000451c:	20010490 	.word	0x20010490
20004520:	2000a190 	.word	0x2000a190

20004524 <_retrieve_unique_id_on_boot>:
20004524:	b510      	push	{r4, lr}
20004526:	4802      	ldr	r0, [pc, #8]	; (20004530 <_retrieve_unique_id_on_boot+0xc>)
20004528:	f000 f80c 	bl	20004544 <flash_get_unique_id>
2000452c:	bd10      	pop	{r4, pc}
2000452e:	46c0      	nop			; (mov r8, r8)
20004530:	20010414 	.word	0x20010414

20004534 <pico_get_unique_board_id>:
20004534:	b510      	push	{r4, lr}
20004536:	2208      	movs	r2, #8
20004538:	4901      	ldr	r1, [pc, #4]	; (20004540 <pico_get_unique_board_id+0xc>)
2000453a:	f7ff fdad 	bl	20004098 <__wrap___aeabi_memcpy>
2000453e:	bd10      	pop	{r4, pc}
20004540:	20010414 	.word	0x20010414

20004544 <flash_get_unique_id>:
20004544:	b530      	push	{r4, r5, lr}
20004546:	2500      	movs	r5, #0
20004548:	b089      	sub	sp, #36	; 0x24
2000454a:	0004      	movs	r4, r0
2000454c:	2209      	movs	r2, #9
2000454e:	2100      	movs	r1, #0
20004550:	a801      	add	r0, sp, #4
20004552:	9500      	str	r5, [sp, #0]
20004554:	f7ff fd9a 	bl	2000408c <__wrap_memset>
20004558:	2209      	movs	r2, #9
2000455a:	2100      	movs	r1, #0
2000455c:	a805      	add	r0, sp, #20
2000455e:	9504      	str	r5, [sp, #16]
20004560:	f7ff fd94 	bl	2000408c <__wrap_memset>
20004564:	234b      	movs	r3, #75	; 0x4b
20004566:	466a      	mov	r2, sp
20004568:	4668      	mov	r0, sp
2000456a:	7013      	strb	r3, [r2, #0]
2000456c:	a904      	add	r1, sp, #16
2000456e:	220d      	movs	r2, #13
20004570:	f004 fce4 	bl	20008f3c <flash_do_cmd>
20004574:	2115      	movs	r1, #21
20004576:	2208      	movs	r2, #8
20004578:	0020      	movs	r0, r4
2000457a:	4469      	add	r1, sp
2000457c:	f7ff fd8c 	bl	20004098 <__wrap___aeabi_memcpy>
20004580:	b009      	add	sp, #36	; 0x24
20004582:	bd30      	pop	{r4, r5, pc}

20004584 <dcd_int_enable>:
20004584:	b510      	push	{r4, lr}
20004586:	2101      	movs	r1, #1
20004588:	2005      	movs	r0, #5
2000458a:	f7fe f96f 	bl	2000286c <irq_set_enabled>
2000458e:	bd10      	pop	{r4, pc}

20004590 <dcd_set_address>:
20004590:	b510      	push	{r4, lr}
20004592:	2200      	movs	r2, #0
20004594:	2100      	movs	r1, #0
20004596:	4802      	ldr	r0, [pc, #8]	; (200045a0 <dcd_set_address+0x10>)
20004598:	f000 f95a 	bl	20004850 <hw_endpoint_xfer_start>
2000459c:	bd10      	pop	{r4, pc}
2000459e:	46c0      	nop			; (mov r8, r8)
200045a0:	2000fd6c 	.word	0x2000fd6c

200045a4 <dcd_connect>:
200045a4:	2280      	movs	r2, #128	; 0x80
200045a6:	4b02      	ldr	r3, [pc, #8]	; (200045b0 <dcd_connect+0xc>)
200045a8:	0252      	lsls	r2, r2, #9
200045aa:	64da      	str	r2, [r3, #76]	; 0x4c
200045ac:	4770      	bx	lr
200045ae:	46c0      	nop			; (mov r8, r8)
200045b0:	50112000 	.word	0x50112000

200045b4 <dcd_init>:
200045b4:	b5f0      	push	{r4, r5, r6, r7, lr}
200045b6:	46c6      	mov	lr, r8
200045b8:	b500      	push	{lr}
200045ba:	0006      	movs	r6, r0
200045bc:	f000 f922 	bl	20004804 <rp2040_usb_init>
200045c0:	230c      	movs	r3, #12
200045c2:	4d1b      	ldr	r5, [pc, #108]	; (20004630 <dcd_init+0x7c>)
200045c4:	22ff      	movs	r2, #255	; 0xff
200045c6:	67ab      	str	r3, [r5, #120]	; 0x78
200045c8:	2005      	movs	r0, #5
200045ca:	491a      	ldr	r1, [pc, #104]	; (20004634 <dcd_init+0x80>)
200045cc:	f7fe f992 	bl	200028f4 <irq_add_shared_handler>
200045d0:	2340      	movs	r3, #64	; 0x40
200045d2:	4698      	mov	r8, r3
200045d4:	4c18      	ldr	r4, [pc, #96]	; (20004638 <dcd_init+0x84>)
200045d6:	2240      	movs	r2, #64	; 0x40
200045d8:	2100      	movs	r1, #0
200045da:	0020      	movs	r0, r4
200045dc:	f7ff fd56 	bl	2000408c <__wrap_memset>
200045e0:	4643      	mov	r3, r8
200045e2:	2701      	movs	r7, #1
200045e4:	8323      	strh	r3, [r4, #24]
200045e6:	2121      	movs	r1, #33	; 0x21
200045e8:	2300      	movs	r3, #0
200045ea:	4a14      	ldr	r2, [pc, #80]	; (2000463c <dcd_init+0x88>)
200045ec:	7067      	strb	r7, [r4, #1]
200045ee:	60a2      	str	r2, [r4, #8]
200045f0:	6013      	str	r3, [r2, #0]
200045f2:	5463      	strb	r3, [r4, r1]
200045f4:	315f      	adds	r1, #95	; 0x5f
200045f6:	8461      	strh	r1, [r4, #34]	; 0x22
200045f8:	4641      	mov	r1, r8
200045fa:	8721      	strh	r1, [r4, #56]	; 0x38
200045fc:	3905      	subs	r1, #5
200045fe:	5463      	strb	r3, [r4, r1]
20004600:	4a0f      	ldr	r2, [pc, #60]	; (20004640 <dcd_init+0x8c>)
20004602:	4910      	ldr	r1, [pc, #64]	; (20004644 <dcd_init+0x90>)
20004604:	6063      	str	r3, [r4, #4]
20004606:	60e2      	str	r2, [r4, #12]
20004608:	62a1      	str	r1, [r4, #40]	; 0x28
2000460a:	600b      	str	r3, [r1, #0]
2000460c:	6263      	str	r3, [r4, #36]	; 0x24
2000460e:	62e2      	str	r2, [r4, #44]	; 0x2c
20004610:	f004 fcf4 	bl	20008ffc <reset_non_control_endpoints>
20004614:	2380      	movs	r3, #128	; 0x80
20004616:	059b      	lsls	r3, r3, #22
20004618:	642f      	str	r7, [r5, #64]	; 0x40
2000461a:	64eb      	str	r3, [r5, #76]	; 0x4c
2000461c:	2390      	movs	r3, #144	; 0x90
2000461e:	4a0a      	ldr	r2, [pc, #40]	; (20004648 <dcd_init+0x94>)
20004620:	0030      	movs	r0, r6
20004622:	50ea      	str	r2, [r5, r3]
20004624:	f7ff ffbe 	bl	200045a4 <dcd_connect>
20004628:	bc80      	pop	{r7}
2000462a:	46b8      	mov	r8, r7
2000462c:	bdf0      	pop	{r4, r5, r6, r7, pc}
2000462e:	46c0      	nop			; (mov r8, r8)
20004630:	50110000 	.word	0x50110000
20004634:	20009111 	.word	0x20009111
20004638:	2000fd4c 	.word	0x2000fd4c
2000463c:	50100084 	.word	0x50100084
20004640:	50100100 	.word	0x50100100
20004644:	50100080 	.word	0x50100080
20004648:	0001d010 	.word	0x0001d010

2000464c <dcd_edpt0_status_complete>:
2000464c:	780b      	ldrb	r3, [r1, #0]
2000464e:	065b      	lsls	r3, r3, #25
20004650:	d102      	bne.n	20004658 <dcd_edpt0_status_complete+0xc>
20004652:	784b      	ldrb	r3, [r1, #1]
20004654:	2b05      	cmp	r3, #5
20004656:	d000      	beq.n	2000465a <dcd_edpt0_status_complete+0xe>
20004658:	4770      	bx	lr
2000465a:	788a      	ldrb	r2, [r1, #2]
2000465c:	4b01      	ldr	r3, [pc, #4]	; (20004664 <dcd_edpt0_status_complete+0x18>)
2000465e:	601a      	str	r2, [r3, #0]
20004660:	e7fa      	b.n	20004658 <dcd_edpt0_status_complete+0xc>
20004662:	46c0      	nop			; (mov r8, r8)
20004664:	50110000 	.word	0x50110000

20004668 <dcd_edpt_open>:
20004668:	b5f0      	push	{r4, r5, r6, r7, lr}
2000466a:	46c6      	mov	lr, r8
2000466c:	b500      	push	{lr}
2000466e:	78cc      	ldrb	r4, [r1, #3]
20004670:	7888      	ldrb	r0, [r1, #2]
20004672:	790a      	ldrb	r2, [r1, #4]
20004674:	794b      	ldrb	r3, [r1, #5]
20004676:	217f      	movs	r1, #127	; 0x7f
20004678:	07a4      	lsls	r4, r4, #30
2000467a:	4001      	ands	r1, r0
2000467c:	021b      	lsls	r3, r3, #8
2000467e:	09c5      	lsrs	r5, r0, #7
20004680:	4313      	orrs	r3, r2
20004682:	004f      	lsls	r7, r1, #1
20004684:	0fa2      	lsrs	r2, r4, #30
20004686:	0014      	movs	r4, r2
20004688:	4e32      	ldr	r6, [pc, #200]	; (20004754 <dcd_edpt_open+0xec>)
2000468a:	197a      	adds	r2, r7, r5
2000468c:	0152      	lsls	r2, r2, #5
2000468e:	18b2      	adds	r2, r6, r2
20004690:	7090      	strb	r0, [r2, #2]
20004692:	2001      	movs	r0, #1
20004694:	4068      	eors	r0, r5
20004696:	7050      	strb	r0, [r2, #1]
20004698:	2000      	movs	r0, #0
2000469a:	055b      	lsls	r3, r3, #21
2000469c:	0d5b      	lsrs	r3, r3, #21
2000469e:	70d0      	strb	r0, [r2, #3]
200046a0:	8313      	strh	r3, [r2, #24]
200046a2:	76d4      	strb	r4, [r2, #27]
200046a4:	4680      	mov	r8, r0
200046a6:	00ca      	lsls	r2, r1, #3
200046a8:	2d01      	cmp	r5, #1
200046aa:	d033      	beq.n	20004714 <dcd_edpt_open+0xac>
200046ac:	482a      	ldr	r0, [pc, #168]	; (20004758 <dcd_edpt_open+0xf0>)
200046ae:	4684      	mov	ip, r0
200046b0:	0188      	lsls	r0, r1, #6
200046b2:	4462      	add	r2, ip
200046b4:	4684      	mov	ip, r0
200046b6:	44b4      	add	ip, r6
200046b8:	4660      	mov	r0, ip
200046ba:	6082      	str	r2, [r0, #8]
200046bc:	4640      	mov	r0, r8
200046be:	6010      	str	r0, [r2, #0]
200046c0:	2900      	cmp	r1, #0
200046c2:	d033      	beq.n	2000472c <dcd_edpt_open+0xc4>
200046c4:	4a25      	ldr	r2, [pc, #148]	; (2000475c <dcd_edpt_open+0xf4>)
200046c6:	00c9      	lsls	r1, r1, #3
200046c8:	4690      	mov	r8, r2
200046ca:	4662      	mov	r2, ip
200046cc:	4441      	add	r1, r8
200046ce:	6051      	str	r1, [r2, #4]
200046d0:	223f      	movs	r2, #63	; 0x3f
200046d2:	333f      	adds	r3, #63	; 0x3f
200046d4:	4393      	bics	r3, r2
200046d6:	2c02      	cmp	r4, #2
200046d8:	d100      	bne.n	200046dc <dcd_edpt_open+0x74>
200046da:	005b      	lsls	r3, r3, #1
200046dc:	4820      	ldr	r0, [pc, #128]	; (20004760 <dcd_edpt_open+0xf8>)
200046de:	197a      	adds	r2, r7, r5
200046e0:	6801      	ldr	r1, [r0, #0]
200046e2:	0152      	lsls	r2, r2, #5
200046e4:	18b2      	adds	r2, r6, r2
200046e6:	60d1      	str	r1, [r2, #12]
200046e8:	4a1e      	ldr	r2, [pc, #120]	; (20004764 <dcd_edpt_open+0xfc>)
200046ea:	18cb      	adds	r3, r1, r3
200046ec:	6003      	str	r3, [r0, #0]
200046ee:	4051      	eors	r1, r2
200046f0:	405a      	eors	r2, r3
200046f2:	2380      	movs	r3, #128	; 0x80
200046f4:	4688      	mov	r8, r1
200046f6:	015b      	lsls	r3, r3, #5
200046f8:	429a      	cmp	r2, r3
200046fa:	d828      	bhi.n	2000474e <dcd_edpt_open+0xe6>
200046fc:	4643      	mov	r3, r8
200046fe:	06a4      	lsls	r4, r4, #26
20004700:	431c      	orrs	r4, r3
20004702:	2380      	movs	r3, #128	; 0x80
20004704:	197f      	adds	r7, r7, r5
20004706:	017f      	lsls	r7, r7, #5
20004708:	19f6      	adds	r6, r6, r7
2000470a:	6872      	ldr	r2, [r6, #4]
2000470c:	061b      	lsls	r3, r3, #24
2000470e:	4323      	orrs	r3, r4
20004710:	6013      	str	r3, [r2, #0]
20004712:	e011      	b.n	20004738 <dcd_edpt_open+0xd0>
20004714:	4814      	ldr	r0, [pc, #80]	; (20004768 <dcd_edpt_open+0x100>)
20004716:	4684      	mov	ip, r0
20004718:	0188      	lsls	r0, r1, #6
2000471a:	4462      	add	r2, ip
2000471c:	4684      	mov	ip, r0
2000471e:	44b4      	add	ip, r6
20004720:	4660      	mov	r0, ip
20004722:	6282      	str	r2, [r0, #40]	; 0x28
20004724:	4640      	mov	r0, r8
20004726:	6010      	str	r0, [r2, #0]
20004728:	2900      	cmp	r1, #0
2000472a:	d109      	bne.n	20004740 <dcd_edpt_open+0xd8>
2000472c:	2300      	movs	r3, #0
2000472e:	016d      	lsls	r5, r5, #5
20004730:	1975      	adds	r5, r6, r5
20004732:	606b      	str	r3, [r5, #4]
20004734:	4b0d      	ldr	r3, [pc, #52]	; (2000476c <dcd_edpt_open+0x104>)
20004736:	60eb      	str	r3, [r5, #12]
20004738:	2001      	movs	r0, #1
2000473a:	bc80      	pop	{r7}
2000473c:	46b8      	mov	r8, r7
2000473e:	bdf0      	pop	{r4, r5, r6, r7, pc}
20004740:	4a08      	ldr	r2, [pc, #32]	; (20004764 <dcd_edpt_open+0xfc>)
20004742:	00c9      	lsls	r1, r1, #3
20004744:	4690      	mov	r8, r2
20004746:	4662      	mov	r2, ip
20004748:	4441      	add	r1, r8
2000474a:	6251      	str	r1, [r2, #36]	; 0x24
2000474c:	e7c0      	b.n	200046d0 <dcd_edpt_open+0x68>
2000474e:	f7ff f933 	bl	200039b8 <hard_assertion_failure>
20004752:	e7d3      	b.n	200046fc <dcd_edpt_open+0x94>
20004754:	2000fd4c 	.word	0x2000fd4c
20004758:	50100084 	.word	0x50100084
2000475c:	50100004 	.word	0x50100004
20004760:	20010154 	.word	0x20010154
20004764:	50100000 	.word	0x50100000
20004768:	50100080 	.word	0x50100080
2000476c:	50100100 	.word	0x50100100

20004770 <dcd_edpt_close_all>:
20004770:	b510      	push	{r4, lr}
20004772:	f004 fc43 	bl	20008ffc <reset_non_control_endpoints>
20004776:	bd10      	pop	{r4, pc}

20004778 <dcd_edpt_xfer>:
20004778:	b510      	push	{r4, lr}
2000477a:	207f      	movs	r0, #127	; 0x7f
2000477c:	000c      	movs	r4, r1
2000477e:	4020      	ands	r0, r4
20004780:	0040      	lsls	r0, r0, #1
20004782:	09e4      	lsrs	r4, r4, #7
20004784:	0011      	movs	r1, r2
20004786:	1900      	adds	r0, r0, r4
20004788:	001a      	movs	r2, r3
2000478a:	4b03      	ldr	r3, [pc, #12]	; (20004798 <dcd_edpt_xfer+0x20>)
2000478c:	0140      	lsls	r0, r0, #5
2000478e:	18c0      	adds	r0, r0, r3
20004790:	f000 f85e 	bl	20004850 <hw_endpoint_xfer_start>
20004794:	2001      	movs	r0, #1
20004796:	bd10      	pop	{r4, pc}
20004798:	2000fd4c 	.word	0x2000fd4c

2000479c <dcd_edpt_stall>:
2000479c:	237f      	movs	r3, #127	; 0x7f
2000479e:	0018      	movs	r0, r3
200047a0:	b510      	push	{r4, lr}
200047a2:	4008      	ands	r0, r1
200047a4:	420b      	tst	r3, r1
200047a6:	d00b      	beq.n	200047c0 <dcd_edpt_stall+0x24>
200047a8:	09c9      	lsrs	r1, r1, #7
200047aa:	2280      	movs	r2, #128	; 0x80
200047ac:	0040      	lsls	r0, r0, #1
200047ae:	4b07      	ldr	r3, [pc, #28]	; (200047cc <dcd_edpt_stall+0x30>)
200047b0:	1840      	adds	r0, r0, r1
200047b2:	0140      	lsls	r0, r0, #5
200047b4:	2100      	movs	r1, #0
200047b6:	18c0      	adds	r0, r0, r3
200047b8:	0112      	lsls	r2, r2, #4
200047ba:	f004 ffdb 	bl	20009774 <_hw_endpoint_buffer_control_update32>
200047be:	bd10      	pop	{r4, pc}
200047c0:	2302      	movs	r3, #2
200047c2:	4a03      	ldr	r2, [pc, #12]	; (200047d0 <dcd_edpt_stall+0x34>)
200047c4:	09c9      	lsrs	r1, r1, #7
200047c6:	1a5b      	subs	r3, r3, r1
200047c8:	6693      	str	r3, [r2, #104]	; 0x68
200047ca:	e7ee      	b.n	200047aa <dcd_edpt_stall+0xe>
200047cc:	2000fd4c 	.word	0x2000fd4c
200047d0:	50112000 	.word	0x50112000

200047d4 <dcd_edpt_clear_stall>:
200047d4:	227f      	movs	r2, #127	; 0x7f
200047d6:	0013      	movs	r3, r2
200047d8:	b510      	push	{r4, lr}
200047da:	400b      	ands	r3, r1
200047dc:	420a      	tst	r2, r1
200047de:	d100      	bne.n	200047e2 <dcd_edpt_clear_stall+0xe>
200047e0:	bd10      	pop	{r4, pc}
200047e2:	09c9      	lsrs	r1, r1, #7
200047e4:	005b      	lsls	r3, r3, #1
200047e6:	185b      	adds	r3, r3, r1
200047e8:	4804      	ldr	r0, [pc, #16]	; (200047fc <dcd_edpt_clear_stall+0x28>)
200047ea:	015b      	lsls	r3, r3, #5
200047ec:	18c0      	adds	r0, r0, r3
200047ee:	2300      	movs	r3, #0
200047f0:	2200      	movs	r2, #0
200047f2:	4903      	ldr	r1, [pc, #12]	; (20004800 <dcd_edpt_clear_stall+0x2c>)
200047f4:	70c3      	strb	r3, [r0, #3]
200047f6:	f004 ffbd 	bl	20009774 <_hw_endpoint_buffer_control_update32>
200047fa:	e7f1      	b.n	200047e0 <dcd_edpt_clear_stall+0xc>
200047fc:	2000fd4c 	.word	0x2000fd4c
20004800:	fffff7ff 	.word	0xfffff7ff

20004804 <rp2040_usb_init>:
20004804:	2280      	movs	r2, #128	; 0x80
20004806:	4b0d      	ldr	r3, [pc, #52]	; (2000483c <rp2040_usb_init+0x38>)
20004808:	0452      	lsls	r2, r2, #17
2000480a:	b510      	push	{r4, lr}
2000480c:	601a      	str	r2, [r3, #0]
2000480e:	4b0c      	ldr	r3, [pc, #48]	; (20004840 <rp2040_usb_init+0x3c>)
20004810:	490c      	ldr	r1, [pc, #48]	; (20004844 <rp2040_usb_init+0x40>)
20004812:	601a      	str	r2, [r3, #0]
20004814:	0010      	movs	r0, r2
20004816:	688b      	ldr	r3, [r1, #8]
20004818:	4398      	bics	r0, r3
2000481a:	d1fb      	bne.n	20004814 <rp2040_usb_init+0x10>
2000481c:	4c0a      	ldr	r4, [pc, #40]	; (20004848 <rp2040_usb_init+0x44>)
2000481e:	229c      	movs	r2, #156	; 0x9c
20004820:	2100      	movs	r1, #0
20004822:	0020      	movs	r0, r4
20004824:	f7ff fc32 	bl	2000408c <__wrap_memset>
20004828:	2280      	movs	r2, #128	; 0x80
2000482a:	2100      	movs	r1, #0
2000482c:	0152      	lsls	r2, r2, #5
2000482e:	4807      	ldr	r0, [pc, #28]	; (2000484c <rp2040_usb_init+0x48>)
20004830:	f7ff fc2c 	bl	2000408c <__wrap_memset>
20004834:	2309      	movs	r3, #9
20004836:	6763      	str	r3, [r4, #116]	; 0x74
20004838:	bd10      	pop	{r4, pc}
2000483a:	46c0      	nop			; (mov r8, r8)
2000483c:	4000e000 	.word	0x4000e000
20004840:	4000f000 	.word	0x4000f000
20004844:	4000c000 	.word	0x4000c000
20004848:	50110000 	.word	0x50110000
2000484c:	50100000 	.word	0x50100000

20004850 <hw_endpoint_xfer_start>:
20004850:	2300      	movs	r3, #0
20004852:	b510      	push	{r4, lr}
20004854:	82c3      	strh	r3, [r0, #22]
20004856:	3301      	adds	r3, #1
20004858:	8282      	strh	r2, [r0, #20]
2000485a:	7683      	strb	r3, [r0, #26]
2000485c:	6101      	str	r1, [r0, #16]
2000485e:	0004      	movs	r4, r0
20004860:	f004 fee6 	bl	20009630 <e15_is_bulkin_ep>
20004864:	2800      	cmp	r0, #0
20004866:	d004      	beq.n	20004872 <hw_endpoint_xfer_start+0x22>
20004868:	2180      	movs	r1, #128	; 0x80
2000486a:	2390      	movs	r3, #144	; 0x90
2000486c:	4a07      	ldr	r2, [pc, #28]	; (2000488c <hw_endpoint_xfer_start+0x3c>)
2000486e:	0289      	lsls	r1, r1, #10
20004870:	50d1      	str	r1, [r2, r3]
20004872:	0020      	movs	r0, r4
20004874:	f004 fef0 	bl	20009658 <e15_is_critical_frame_period>
20004878:	2800      	cmp	r0, #0
2000487a:	d002      	beq.n	20004882 <hw_endpoint_xfer_start+0x32>
2000487c:	2301      	movs	r3, #1
2000487e:	7723      	strb	r3, [r4, #28]
20004880:	bd10      	pop	{r4, pc}
20004882:	0020      	movs	r0, r4
20004884:	f004 ffa2 	bl	200097cc <hw_endpoint_start_next_buffer>
20004888:	e7fa      	b.n	20004880 <hw_endpoint_xfer_start+0x30>
2000488a:	46c0      	nop			; (mov r8, r8)
2000488c:	50112000 	.word	0x50112000

20004890 <configuration_reset>:
20004890:	b5f8      	push	{r3, r4, r5, r6, r7, lr}
20004892:	4a21      	ldr	r2, [pc, #132]	; (20004918 <configuration_reset+0x88>)
20004894:	4e21      	ldr	r6, [pc, #132]	; (2000491c <configuration_reset+0x8c>)
20004896:	0005      	movs	r5, r0
20004898:	2400      	movs	r4, #0
2000489a:	7833      	ldrb	r3, [r6, #0]
2000489c:	4f20      	ldr	r7, [pc, #128]	; (20004920 <configuration_reset+0x90>)
2000489e:	2a00      	cmp	r2, #0
200048a0:	d02d      	beq.n	200048fe <configuration_reset+0x6e>
200048a2:	42a3      	cmp	r3, r4
200048a4:	d822      	bhi.n	200048ec <configuration_reset+0x5c>
200048a6:	1ae3      	subs	r3, r4, r3
200048a8:	b2db      	uxtb	r3, r3
200048aa:	2b02      	cmp	r3, #2
200048ac:	d81d      	bhi.n	200048ea <configuration_reset+0x5a>
200048ae:	005a      	lsls	r2, r3, #1
200048b0:	18d3      	adds	r3, r2, r3
200048b2:	00db      	lsls	r3, r3, #3
200048b4:	19db      	adds	r3, r3, r7
200048b6:	685b      	ldr	r3, [r3, #4]
200048b8:	0028      	movs	r0, r5
200048ba:	4798      	blx	r3
200048bc:	7833      	ldrb	r3, [r6, #0]
200048be:	3401      	adds	r4, #1
200048c0:	b2e4      	uxtb	r4, r4
200048c2:	1c9a      	adds	r2, r3, #2
200048c4:	42a2      	cmp	r2, r4
200048c6:	daec      	bge.n	200048a2 <configuration_reset+0x12>
200048c8:	4c16      	ldr	r4, [pc, #88]	; (20004924 <configuration_reset+0x94>)
200048ca:	2253      	movs	r2, #83	; 0x53
200048cc:	2100      	movs	r1, #0
200048ce:	0020      	movs	r0, r4
200048d0:	f7ff fbdc 	bl	2000408c <__wrap_memset>
200048d4:	2210      	movs	r2, #16
200048d6:	21ff      	movs	r1, #255	; 0xff
200048d8:	1ce0      	adds	r0, r4, #3
200048da:	f7ff fbd7 	bl	2000408c <__wrap_memset>
200048de:	0020      	movs	r0, r4
200048e0:	2220      	movs	r2, #32
200048e2:	21ff      	movs	r1, #255	; 0xff
200048e4:	3013      	adds	r0, #19
200048e6:	f7ff fbd1 	bl	2000408c <__wrap_memset>
200048ea:	bdf8      	pop	{r3, r4, r5, r6, r7, pc}
200048ec:	4b0e      	ldr	r3, [pc, #56]	; (20004928 <configuration_reset+0x98>)
200048ee:	0062      	lsls	r2, r4, #1
200048f0:	681b      	ldr	r3, [r3, #0]
200048f2:	1912      	adds	r2, r2, r4
200048f4:	00d2      	lsls	r2, r2, #3
200048f6:	189b      	adds	r3, r3, r2
200048f8:	2b00      	cmp	r3, #0
200048fa:	d1dc      	bne.n	200048b6 <configuration_reset+0x26>
200048fc:	e7f5      	b.n	200048ea <configuration_reset+0x5a>
200048fe:	2400      	movs	r4, #0
20004900:	687b      	ldr	r3, [r7, #4]
20004902:	0028      	movs	r0, r5
20004904:	4798      	blx	r3
20004906:	7833      	ldrb	r3, [r6, #0]
20004908:	3401      	adds	r4, #1
2000490a:	3302      	adds	r3, #2
2000490c:	3718      	adds	r7, #24
2000490e:	429c      	cmp	r4, r3
20004910:	dcda      	bgt.n	200048c8 <configuration_reset+0x38>
20004912:	2c03      	cmp	r4, #3
20004914:	d0e9      	beq.n	200048ea <configuration_reset+0x5a>
20004916:	e7f3      	b.n	20004900 <configuration_reset+0x70>
20004918:	2000112d 	.word	0x2000112d
2000491c:	2002058d 	.word	0x2002058d
20004920:	20009f90 	.word	0x20009f90
20004924:	2000b9f0 	.word	0x2000b9f0
20004928:	2000a778 	.word	0x2000a778

2000492c <tud_mounted>:
2000492c:	4b02      	ldr	r3, [pc, #8]	; (20004938 <tud_mounted+0xc>)
2000492e:	7858      	ldrb	r0, [r3, #1]
20004930:	1e43      	subs	r3, r0, #1
20004932:	4198      	sbcs	r0, r3
20004934:	b2c0      	uxtb	r0, r0
20004936:	4770      	bx	lr
20004938:	2000b9f0 	.word	0x2000b9f0

2000493c <tud_suspended>:
2000493c:	4b02      	ldr	r3, [pc, #8]	; (20004948 <tud_suspended+0xc>)
2000493e:	7818      	ldrb	r0, [r3, #0]
20004940:	0740      	lsls	r0, r0, #29
20004942:	0fc0      	lsrs	r0, r0, #31
20004944:	4770      	bx	lr
20004946:	46c0      	nop			; (mov r8, r8)
20004948:	2000b9f0 	.word	0x2000b9f0

2000494c <tud_inited>:
2000494c:	4b03      	ldr	r3, [pc, #12]	; (2000495c <tud_inited+0x10>)
2000494e:	7818      	ldrb	r0, [r3, #0]
20004950:	38ff      	subs	r0, #255	; 0xff
20004952:	1e43      	subs	r3, r0, #1
20004954:	4198      	sbcs	r0, r3
20004956:	b2c0      	uxtb	r0, r0
20004958:	4770      	bx	lr
2000495a:	46c0      	nop			; (mov r8, r8)
2000495c:	2000a1cc 	.word	0x2000a1cc

20004960 <tud_init>:
20004960:	b5f0      	push	{r4, r5, r6, r7, lr}
20004962:	46c6      	mov	lr, r8
20004964:	b500      	push	{lr}
20004966:	4e33      	ldr	r6, [pc, #204]	; (20004a34 <tud_init+0xd4>)
20004968:	0005      	movs	r5, r0
2000496a:	7833      	ldrb	r3, [r6, #0]
2000496c:	2bff      	cmp	r3, #255	; 0xff
2000496e:	d001      	beq.n	20004974 <tud_init+0x14>
20004970:	2001      	movs	r0, #1
20004972:	e053      	b.n	20004a1c <tud_init+0xbc>
20004974:	2253      	movs	r2, #83	; 0x53
20004976:	2100      	movs	r1, #0
20004978:	482f      	ldr	r0, [pc, #188]	; (20004a38 <tud_init+0xd8>)
2000497a:	f7ff fb87 	bl	2000408c <__wrap_memset>
2000497e:	4c2f      	ldr	r4, [pc, #188]	; (20004a3c <tud_init+0xdc>)
20004980:	0020      	movs	r0, r4
20004982:	f7fd fa13 	bl	20001dac <mutex_init>
20004986:	4b2e      	ldr	r3, [pc, #184]	; (20004a40 <tud_init+0xe0>)
20004988:	601c      	str	r4, [r3, #0]
2000498a:	4c2e      	ldr	r4, [pc, #184]	; (20004a44 <tud_init+0xe4>)
2000498c:	0020      	movs	r0, r4
2000498e:	3c14      	subs	r4, #20
20004990:	f7fd fa2a 	bl	20001de8 <critical_section_init>
20004994:	0020      	movs	r0, r4
20004996:	f001 fe61 	bl	2000665c <tu_fifo_clear>
2000499a:	4b2b      	ldr	r3, [pc, #172]	; (20004a48 <tud_init+0xe8>)
2000499c:	4f2b      	ldr	r7, [pc, #172]	; (20004a4c <tud_init+0xec>)
2000499e:	601c      	str	r4, [r3, #0]
200049a0:	4b2b      	ldr	r3, [pc, #172]	; (20004a50 <tud_init+0xf0>)
200049a2:	4698      	mov	r8, r3
200049a4:	2b00      	cmp	r3, #0
200049a6:	d026      	beq.n	200049f6 <tud_init+0x96>
200049a8:	0038      	movs	r0, r7
200049aa:	f7fc fbbf 	bl	2000112c <usbd_app_driver_get_cb>
200049ae:	4b29      	ldr	r3, [pc, #164]	; (20004a54 <tud_init+0xf4>)
200049b0:	6018      	str	r0, [r3, #0]
200049b2:	783b      	ldrb	r3, [r7, #0]
200049b4:	4642      	mov	r2, r8
200049b6:	2400      	movs	r4, #0
200049b8:	2a00      	cmp	r2, #0
200049ba:	d01e      	beq.n	200049fa <tud_init+0x9a>
200049bc:	4a26      	ldr	r2, [pc, #152]	; (20004a58 <tud_init+0xf8>)
200049be:	4690      	mov	r8, r2
200049c0:	42a3      	cmp	r3, r4
200049c2:	d82e      	bhi.n	20004a22 <tud_init+0xc2>
200049c4:	1ae3      	subs	r3, r4, r3
200049c6:	b2db      	uxtb	r3, r3
200049c8:	2b02      	cmp	r3, #2
200049ca:	d826      	bhi.n	20004a1a <tud_init+0xba>
200049cc:	005a      	lsls	r2, r3, #1
200049ce:	18d3      	adds	r3, r2, r3
200049d0:	00db      	lsls	r3, r3, #3
200049d2:	4443      	add	r3, r8
200049d4:	681b      	ldr	r3, [r3, #0]
200049d6:	4798      	blx	r3
200049d8:	783b      	ldrb	r3, [r7, #0]
200049da:	3401      	adds	r4, #1
200049dc:	b2e4      	uxtb	r4, r4
200049de:	1c9a      	adds	r2, r3, #2
200049e0:	42a2      	cmp	r2, r4
200049e2:	daed      	bge.n	200049c0 <tud_init+0x60>
200049e4:	0028      	movs	r0, r5
200049e6:	7035      	strb	r5, [r6, #0]
200049e8:	f7ff fde4 	bl	200045b4 <dcd_init>
200049ec:	0028      	movs	r0, r5
200049ee:	f7ff fdc9 	bl	20004584 <dcd_int_enable>
200049f2:	2001      	movs	r0, #1
200049f4:	e012      	b.n	20004a1c <tud_init+0xbc>
200049f6:	783b      	ldrb	r3, [r7, #0]
200049f8:	e7dc      	b.n	200049b4 <tud_init+0x54>
200049fa:	4b17      	ldr	r3, [pc, #92]	; (20004a58 <tud_init+0xf8>)
200049fc:	2400      	movs	r4, #0
200049fe:	4698      	mov	r8, r3
20004a00:	4643      	mov	r3, r8
20004a02:	681b      	ldr	r3, [r3, #0]
20004a04:	4798      	blx	r3
20004a06:	2318      	movs	r3, #24
20004a08:	469c      	mov	ip, r3
20004a0a:	783b      	ldrb	r3, [r7, #0]
20004a0c:	3401      	adds	r4, #1
20004a0e:	3302      	adds	r3, #2
20004a10:	44e0      	add	r8, ip
20004a12:	429c      	cmp	r4, r3
20004a14:	dce6      	bgt.n	200049e4 <tud_init+0x84>
20004a16:	2c03      	cmp	r4, #3
20004a18:	d1f2      	bne.n	20004a00 <tud_init+0xa0>
20004a1a:	2000      	movs	r0, #0
20004a1c:	bc80      	pop	{r7}
20004a1e:	46b8      	mov	r8, r7
20004a20:	bdf0      	pop	{r4, r5, r6, r7, pc}
20004a22:	4b0c      	ldr	r3, [pc, #48]	; (20004a54 <tud_init+0xf4>)
20004a24:	0062      	lsls	r2, r4, #1
20004a26:	681b      	ldr	r3, [r3, #0]
20004a28:	1912      	adds	r2, r2, r4
20004a2a:	00d2      	lsls	r2, r2, #3
20004a2c:	189b      	adds	r3, r3, r2
20004a2e:	2b00      	cmp	r3, #0
20004a30:	d1d0      	bne.n	200049d4 <tud_init+0x74>
20004a32:	e7f2      	b.n	20004a1a <tud_init+0xba>
20004a34:	2000a1cc 	.word	0x2000a1cc
20004a38:	2000b9f0 	.word	0x2000b9f0
20004a3c:	2000b9a8 	.word	0x2000b9a8
20004a40:	2000ba44 	.word	0x2000ba44
20004a44:	2000a1c4 	.word	0x2000a1c4
20004a48:	2000ba48 	.word	0x2000ba48
20004a4c:	2002058d 	.word	0x2002058d
20004a50:	2000112d 	.word	0x2000112d
20004a54:	2000a778 	.word	0x2000a778
20004a58:	20009f90 	.word	0x20009f90

20004a5c <tud_task_event_ready>:
20004a5c:	b510      	push	{r4, lr}
20004a5e:	f001 fb35 	bl	200060cc <tusb_inited>
20004a62:	2800      	cmp	r0, #0
20004a64:	d006      	beq.n	20004a74 <tud_task_event_ready+0x18>
20004a66:	4b04      	ldr	r3, [pc, #16]	; (20004a78 <tud_task_event_ready+0x1c>)
20004a68:	6818      	ldr	r0, [r3, #0]
20004a6a:	f001 fc1b 	bl	200062a4 <tu_fifo_empty>
20004a6e:	2301      	movs	r3, #1
20004a70:	4058      	eors	r0, r3
20004a72:	b2c0      	uxtb	r0, r0
20004a74:	bd10      	pop	{r4, pc}
20004a76:	46c0      	nop			; (mov r8, r8)
20004a78:	2000ba48 	.word	0x2000ba48

20004a7c <tud_task_ext>:
20004a7c:	b5f0      	push	{r4, r5, r6, r7, lr}
20004a7e:	46de      	mov	lr, fp
20004a80:	4657      	mov	r7, sl
20004a82:	464e      	mov	r6, r9
20004a84:	4645      	mov	r5, r8
20004a86:	b5e0      	push	{r5, r6, r7, lr}
20004a88:	b08f      	sub	sp, #60	; 0x3c
20004a8a:	f001 fb1f 	bl	200060cc <tusb_inited>
20004a8e:	2800      	cmp	r0, #0
20004a90:	d100      	bne.n	20004a94 <tud_task_ext+0x18>
20004a92:	e0c2      	b.n	20004c1a <tud_task_ext+0x19e>
20004a94:	4bba      	ldr	r3, [pc, #744]	; (20004d80 <tud_task_ext+0x304>)
20004a96:	4ebb      	ldr	r6, [pc, #748]	; (20004d84 <tud_task_ext+0x308>)
20004a98:	9300      	str	r3, [sp, #0]
20004a9a:	4bbb      	ldr	r3, [pc, #748]	; (20004d88 <tud_task_ext+0x30c>)
20004a9c:	ac0b      	add	r4, sp, #44	; 0x2c
20004a9e:	9301      	str	r3, [sp, #4]
20004aa0:	6835      	ldr	r5, [r6, #0]
20004aa2:	696a      	ldr	r2, [r5, #20]
20004aa4:	f3ef 8110 	mrs	r1, PRIMASK
20004aa8:	b672      	cpsid	i
20004aaa:	6813      	ldr	r3, [r2, #0]
20004aac:	2b00      	cmp	r3, #0
20004aae:	d0fc      	beq.n	20004aaa <tud_task_ext+0x2e>
20004ab0:	f3bf 8f5f 	dmb	sy
20004ab4:	61a9      	str	r1, [r5, #24]
20004ab6:	0028      	movs	r0, r5
20004ab8:	0021      	movs	r1, r4
20004aba:	f001 fc11 	bl	200062e0 <tu_fifo_read>
20004abe:	696a      	ldr	r2, [r5, #20]
20004ac0:	69ab      	ldr	r3, [r5, #24]
20004ac2:	f3bf 8f5f 	dmb	sy
20004ac6:	2100      	movs	r1, #0
20004ac8:	6011      	str	r1, [r2, #0]
20004aca:	f383 8810 	msr	PRIMASK, r3
20004ace:	2800      	cmp	r0, #0
20004ad0:	d100      	bne.n	20004ad4 <tud_task_ext+0x58>
20004ad2:	e0a2      	b.n	20004c1a <tud_task_ext+0x19e>
20004ad4:	7863      	ldrb	r3, [r4, #1]
20004ad6:	2b08      	cmp	r3, #8
20004ad8:	d8e2      	bhi.n	20004aa0 <tud_task_ext+0x24>
20004ada:	9a00      	ldr	r2, [sp, #0]
20004adc:	009b      	lsls	r3, r3, #2
20004ade:	58d3      	ldr	r3, [r2, r3]
20004ae0:	469f      	mov	pc, r3
20004ae2:	6863      	ldr	r3, [r4, #4]
20004ae4:	2b00      	cmp	r3, #0
20004ae6:	d0db      	beq.n	20004aa0 <tud_task_ext+0x24>
20004ae8:	68a0      	ldr	r0, [r4, #8]
20004aea:	4798      	blx	r3
20004aec:	e7d8      	b.n	20004aa0 <tud_task_ext+0x24>
20004aee:	227f      	movs	r2, #127	; 0x7f
20004af0:	7921      	ldrb	r1, [r4, #4]
20004af2:	4ba5      	ldr	r3, [pc, #660]	; (20004d88 <tud_task_ext+0x30c>)
20004af4:	400a      	ands	r2, r1
20004af6:	0055      	lsls	r5, r2, #1
20004af8:	09c8      	lsrs	r0, r1, #7
20004afa:	195b      	adds	r3, r3, r5
20004afc:	181b      	adds	r3, r3, r0
20004afe:	0018      	movs	r0, r3
20004b00:	2701      	movs	r7, #1
20004b02:	3030      	adds	r0, #48	; 0x30
20004b04:	78c5      	ldrb	r5, [r0, #3]
20004b06:	43bd      	bics	r5, r7
20004b08:	70c5      	strb	r5, [r0, #3]
20004b0a:	78c5      	ldrb	r5, [r0, #3]
20004b0c:	3703      	adds	r7, #3
20004b0e:	43bd      	bics	r5, r7
20004b10:	70c5      	strb	r5, [r0, #3]
20004b12:	2a00      	cmp	r2, #0
20004b14:	d100      	bne.n	20004b18 <tud_task_ext+0x9c>
20004b16:	e087      	b.n	20004c28 <tud_task_ext+0x1ac>
20004b18:	4a9c      	ldr	r2, [pc, #624]	; (20004d8c <tud_task_ext+0x310>)
20004b1a:	7cdb      	ldrb	r3, [r3, #19]
20004b1c:	2a00      	cmp	r2, #0
20004b1e:	d005      	beq.n	20004b2c <tud_task_ext+0xb0>
20004b20:	4a9b      	ldr	r2, [pc, #620]	; (20004d90 <tud_task_ext+0x314>)
20004b22:	7812      	ldrb	r2, [r2, #0]
20004b24:	4293      	cmp	r3, r2
20004b26:	d370      	bcc.n	20004c0a <tud_task_ext+0x18e>
20004b28:	1a9b      	subs	r3, r3, r2
20004b2a:	b2db      	uxtb	r3, r3
20004b2c:	2b02      	cmp	r3, #2
20004b2e:	d874      	bhi.n	20004c1a <tud_task_ext+0x19e>
20004b30:	005d      	lsls	r5, r3, #1
20004b32:	18ed      	adds	r5, r5, r3
20004b34:	4b97      	ldr	r3, [pc, #604]	; (20004d94 <tud_task_ext+0x318>)
20004b36:	00ed      	lsls	r5, r5, #3
20004b38:	18ed      	adds	r5, r5, r3
20004b3a:	68a3      	ldr	r3, [r4, #8]
20004b3c:	7962      	ldrb	r2, [r4, #5]
20004b3e:	7820      	ldrb	r0, [r4, #0]
20004b40:	692d      	ldr	r5, [r5, #16]
20004b42:	47a8      	blx	r5
20004b44:	e7ac      	b.n	20004aa0 <tud_task_ext+0x24>
20004b46:	2201      	movs	r2, #1
20004b48:	4d8f      	ldr	r5, [pc, #572]	; (20004d88 <tud_task_ext+0x30c>)
20004b4a:	2101      	movs	r1, #1
20004b4c:	782b      	ldrb	r3, [r5, #0]
20004b4e:	2004      	movs	r0, #4
20004b50:	4313      	orrs	r3, r2
20004b52:	702b      	strb	r3, [r5, #0]
20004b54:	2333      	movs	r3, #51	; 0x33
20004b56:	5cea      	ldrb	r2, [r5, r3]
20004b58:	7827      	ldrb	r7, [r4, #0]
20004b5a:	438a      	bics	r2, r1
20004b5c:	54ea      	strb	r2, [r5, r3]
20004b5e:	5cea      	ldrb	r2, [r5, r3]
20004b60:	4382      	bics	r2, r0
20004b62:	54ea      	strb	r2, [r5, r3]
20004b64:	3301      	adds	r3, #1
20004b66:	5cea      	ldrb	r2, [r5, r3]
20004b68:	438a      	bics	r2, r1
20004b6a:	54ea      	strb	r2, [r5, r3]
20004b6c:	5cea      	ldrb	r2, [r5, r3]
20004b6e:	4382      	bics	r2, r0
20004b70:	2000      	movs	r0, #0
20004b72:	54ea      	strb	r2, [r5, r3]
20004b74:	f000 fc7e 	bl	20005474 <usbd_control_set_complete_callback>
20004b78:	2260      	movs	r2, #96	; 0x60
20004b7a:	7923      	ldrb	r3, [r4, #4]
20004b7c:	401a      	ands	r2, r3
20004b7e:	2a60      	cmp	r2, #96	; 0x60
20004b80:	d00a      	beq.n	20004b98 <tud_task_ext+0x11c>
20004b82:	2a40      	cmp	r2, #64	; 0x40
20004b84:	d056      	beq.n	20004c34 <tud_task_ext+0x1b8>
20004b86:	06db      	lsls	r3, r3, #27
20004b88:	0edb      	lsrs	r3, r3, #27
20004b8a:	2b01      	cmp	r3, #1
20004b8c:	d100      	bne.n	20004b90 <tud_task_ext+0x114>
20004b8e:	e09c      	b.n	20004cca <tud_task_ext+0x24e>
20004b90:	2b02      	cmp	r3, #2
20004b92:	d068      	beq.n	20004c66 <tud_task_ext+0x1ea>
20004b94:	2b00      	cmp	r3, #0
20004b96:	d05b      	beq.n	20004c50 <tud_task_ext+0x1d4>
20004b98:	7820      	ldrb	r0, [r4, #0]
20004b9a:	2100      	movs	r1, #0
20004b9c:	f7ff fdfe 	bl	2000479c <dcd_edpt_stall>
20004ba0:	2180      	movs	r1, #128	; 0x80
20004ba2:	7820      	ldrb	r0, [r4, #0]
20004ba4:	f7ff fdfa 	bl	2000479c <dcd_edpt_stall>
20004ba8:	e77a      	b.n	20004aa0 <tud_task_ext+0x24>
20004baa:	9b01      	ldr	r3, [sp, #4]
20004bac:	781b      	ldrb	r3, [r3, #0]
20004bae:	07db      	lsls	r3, r3, #31
20004bb0:	d400      	bmi.n	20004bb4 <tud_task_ext+0x138>
20004bb2:	e775      	b.n	20004aa0 <tud_task_ext+0x24>
20004bb4:	4b78      	ldr	r3, [pc, #480]	; (20004d98 <tud_task_ext+0x31c>)
20004bb6:	2b00      	cmp	r3, #0
20004bb8:	d100      	bne.n	20004bbc <tud_task_ext+0x140>
20004bba:	e771      	b.n	20004aa0 <tud_task_ext+0x24>
20004bbc:	e000      	b.n	20004bc0 <tud_task_ext+0x144>
20004bbe:	bf00      	nop
20004bc0:	e76e      	b.n	20004aa0 <tud_task_ext+0x24>
20004bc2:	9a01      	ldr	r2, [sp, #4]
20004bc4:	7813      	ldrb	r3, [r2, #0]
20004bc6:	07db      	lsls	r3, r3, #31
20004bc8:	d400      	bmi.n	20004bcc <tud_task_ext+0x150>
20004bca:	e769      	b.n	20004aa0 <tud_task_ext+0x24>
20004bcc:	4b73      	ldr	r3, [pc, #460]	; (20004d9c <tud_task_ext+0x320>)
20004bce:	2b00      	cmp	r3, #0
20004bd0:	d100      	bne.n	20004bd4 <tud_task_ext+0x158>
20004bd2:	e765      	b.n	20004aa0 <tud_task_ext+0x24>
20004bd4:	7810      	ldrb	r0, [r2, #0]
20004bd6:	0700      	lsls	r0, r0, #28
20004bd8:	0fc0      	lsrs	r0, r0, #31
20004bda:	e000      	b.n	20004bde <tud_task_ext+0x162>
20004bdc:	bf00      	nop
20004bde:	e75f      	b.n	20004aa0 <tud_task_ext+0x24>
20004be0:	7820      	ldrb	r0, [r4, #0]
20004be2:	f7ff fe55 	bl	20004890 <configuration_reset>
20004be6:	f000 fc3b 	bl	20005460 <usbd_control_reset>
20004bea:	4b6d      	ldr	r3, [pc, #436]	; (20004da0 <tud_task_ext+0x324>)
20004bec:	2b00      	cmp	r3, #0
20004bee:	d100      	bne.n	20004bf2 <tud_task_ext+0x176>
20004bf0:	e756      	b.n	20004aa0 <tud_task_ext+0x24>
20004bf2:	e000      	b.n	20004bf6 <tud_task_ext+0x17a>
20004bf4:	bf00      	nop
20004bf6:	e753      	b.n	20004aa0 <tud_task_ext+0x24>
20004bf8:	7820      	ldrb	r0, [r4, #0]
20004bfa:	f7ff fe49 	bl	20004890 <configuration_reset>
20004bfe:	f000 fc2f 	bl	20005460 <usbd_control_reset>
20004c02:	4b61      	ldr	r3, [pc, #388]	; (20004d88 <tud_task_ext+0x30c>)
20004c04:	7922      	ldrb	r2, [r4, #4]
20004c06:	709a      	strb	r2, [r3, #2]
20004c08:	e74a      	b.n	20004aa0 <tud_task_ext+0x24>
20004c0a:	4a66      	ldr	r2, [pc, #408]	; (20004da4 <tud_task_ext+0x328>)
20004c0c:	0058      	lsls	r0, r3, #1
20004c0e:	6815      	ldr	r5, [r2, #0]
20004c10:	18c3      	adds	r3, r0, r3
20004c12:	00db      	lsls	r3, r3, #3
20004c14:	18ed      	adds	r5, r5, r3
20004c16:	2d00      	cmp	r5, #0
20004c18:	d18f      	bne.n	20004b3a <tud_task_ext+0xbe>
20004c1a:	b00f      	add	sp, #60	; 0x3c
20004c1c:	bcf0      	pop	{r4, r5, r6, r7}
20004c1e:	46bb      	mov	fp, r7
20004c20:	46b2      	mov	sl, r6
20004c22:	46a9      	mov	r9, r5
20004c24:	46a0      	mov	r8, r4
20004c26:	bdf0      	pop	{r4, r5, r6, r7, pc}
20004c28:	68a3      	ldr	r3, [r4, #8]
20004c2a:	7962      	ldrb	r2, [r4, #5]
20004c2c:	7820      	ldrb	r0, [r4, #0]
20004c2e:	f000 fc35 	bl	2000549c <usbd_control_xfer_cb>
20004c32:	e735      	b.n	20004aa0 <tud_task_ext+0x24>
20004c34:	485c      	ldr	r0, [pc, #368]	; (20004da8 <tud_task_ext+0x32c>)
20004c36:	2800      	cmp	r0, #0
20004c38:	d0ae      	beq.n	20004b98 <tud_task_ext+0x11c>
20004c3a:	f000 fc1b 	bl	20005474 <usbd_control_set_complete_callback>
20004c3e:	2101      	movs	r1, #1
20004c40:	0038      	movs	r0, r7
20004c42:	aa0c      	add	r2, sp, #48	; 0x30
20004c44:	f7fb fb36 	bl	200002b4 <tud_vendor_control_xfer_cb>
20004c48:	2800      	cmp	r0, #0
20004c4a:	d000      	beq.n	20004c4e <tud_task_ext+0x1d2>
20004c4c:	e728      	b.n	20004aa0 <tud_task_ext+0x24>
20004c4e:	e7a3      	b.n	20004b98 <tud_task_ext+0x11c>
20004c50:	2a20      	cmp	r2, #32
20004c52:	d074      	beq.n	20004d3e <tud_task_ext+0x2c2>
20004c54:	2a00      	cmp	r2, #0
20004c56:	d19f      	bne.n	20004b98 <tud_task_ext+0x11c>
20004c58:	7963      	ldrb	r3, [r4, #5]
20004c5a:	2b09      	cmp	r3, #9
20004c5c:	d89c      	bhi.n	20004b98 <tud_task_ext+0x11c>
20004c5e:	4a53      	ldr	r2, [pc, #332]	; (20004dac <tud_task_ext+0x330>)
20004c60:	009b      	lsls	r3, r3, #2
20004c62:	58d3      	ldr	r3, [r2, r3]
20004c64:	469f      	mov	pc, r3
20004c66:	2370      	movs	r3, #112	; 0x70
20004c68:	7a21      	ldrb	r1, [r4, #8]
20004c6a:	420b      	tst	r3, r1
20004c6c:	d194      	bne.n	20004b98 <tud_task_ext+0x11c>
20004c6e:	09c8      	lsrs	r0, r1, #7
20004c70:	4682      	mov	sl, r0
20004c72:	330f      	adds	r3, #15
20004c74:	400b      	ands	r3, r1
20004c76:	005b      	lsls	r3, r3, #1
20004c78:	18e8      	adds	r0, r5, r3
20004c7a:	4450      	add	r0, sl
20004c7c:	7cc0      	ldrb	r0, [r0, #19]
20004c7e:	9302      	str	r3, [sp, #8]
20004c80:	4684      	mov	ip, r0
20004c82:	4842      	ldr	r0, [pc, #264]	; (20004d8c <tud_task_ext+0x310>)
20004c84:	2800      	cmp	r0, #0
20004c86:	d008      	beq.n	20004c9a <tud_task_ext+0x21e>
20004c88:	4841      	ldr	r0, [pc, #260]	; (20004d90 <tud_task_ext+0x314>)
20004c8a:	7800      	ldrb	r0, [r0, #0]
20004c8c:	4584      	cmp	ip, r0
20004c8e:	d200      	bcs.n	20004c92 <tud_task_ext+0x216>
20004c90:	e0ba      	b.n	20004e08 <tud_task_ext+0x38c>
20004c92:	4663      	mov	r3, ip
20004c94:	1a18      	subs	r0, r3, r0
20004c96:	b2c3      	uxtb	r3, r0
20004c98:	469c      	mov	ip, r3
20004c9a:	4660      	mov	r0, ip
20004c9c:	2802      	cmp	r0, #2
20004c9e:	d900      	bls.n	20004ca2 <tud_task_ext+0x226>
20004ca0:	e086      	b.n	20004db0 <tud_task_ext+0x334>
20004ca2:	4b3c      	ldr	r3, [pc, #240]	; (20004d94 <tud_task_ext+0x318>)
20004ca4:	0040      	lsls	r0, r0, #1
20004ca6:	4698      	mov	r8, r3
20004ca8:	4460      	add	r0, ip
20004caa:	00c0      	lsls	r0, r0, #3
20004cac:	4480      	add	r8, r0
20004cae:	2a00      	cmp	r2, #0
20004cb0:	d100      	bne.n	20004cb4 <tud_task_ext+0x238>
20004cb2:	e082      	b.n	20004dba <tud_task_ext+0x33e>
20004cb4:	4643      	mov	r3, r8
20004cb6:	68d8      	ldr	r0, [r3, #12]
20004cb8:	f000 fbdc 	bl	20005474 <usbd_control_set_complete_callback>
20004cbc:	4643      	mov	r3, r8
20004cbe:	2101      	movs	r1, #1
20004cc0:	0038      	movs	r0, r7
20004cc2:	68db      	ldr	r3, [r3, #12]
20004cc4:	aa0c      	add	r2, sp, #48	; 0x30
20004cc6:	4798      	blx	r3
20004cc8:	e7be      	b.n	20004c48 <tud_task_ext+0x1cc>
20004cca:	7a23      	ldrb	r3, [r4, #8]
20004ccc:	2b0f      	cmp	r3, #15
20004cce:	d900      	bls.n	20004cd2 <tud_task_ext+0x256>
20004cd0:	e762      	b.n	20004b98 <tud_task_ext+0x11c>
20004cd2:	4a2e      	ldr	r2, [pc, #184]	; (20004d8c <tud_task_ext+0x310>)
20004cd4:	18eb      	adds	r3, r5, r3
20004cd6:	78db      	ldrb	r3, [r3, #3]
20004cd8:	2a00      	cmp	r2, #0
20004cda:	d006      	beq.n	20004cea <tud_task_ext+0x26e>
20004cdc:	4a2c      	ldr	r2, [pc, #176]	; (20004d90 <tud_task_ext+0x314>)
20004cde:	7812      	ldrb	r2, [r2, #0]
20004ce0:	4293      	cmp	r3, r2
20004ce2:	d200      	bcs.n	20004ce6 <tud_task_ext+0x26a>
20004ce4:	e086      	b.n	20004df4 <tud_task_ext+0x378>
20004ce6:	1a9b      	subs	r3, r3, r2
20004ce8:	b2db      	uxtb	r3, r3
20004cea:	2b02      	cmp	r3, #2
20004cec:	d900      	bls.n	20004cf0 <tud_task_ext+0x274>
20004cee:	e753      	b.n	20004b98 <tud_task_ext+0x11c>
20004cf0:	005d      	lsls	r5, r3, #1
20004cf2:	18ed      	adds	r5, r5, r3
20004cf4:	4b27      	ldr	r3, [pc, #156]	; (20004d94 <tud_task_ext+0x318>)
20004cf6:	00ed      	lsls	r5, r5, #3
20004cf8:	18ed      	adds	r5, r5, r3
20004cfa:	68e8      	ldr	r0, [r5, #12]
20004cfc:	f000 fbba 	bl	20005474 <usbd_control_set_complete_callback>
20004d00:	2101      	movs	r1, #1
20004d02:	0038      	movs	r0, r7
20004d04:	68eb      	ldr	r3, [r5, #12]
20004d06:	aa0c      	add	r2, sp, #48	; 0x30
20004d08:	4798      	blx	r3
20004d0a:	2800      	cmp	r0, #0
20004d0c:	d000      	beq.n	20004d10 <tud_task_ext+0x294>
20004d0e:	e6c7      	b.n	20004aa0 <tud_task_ext+0x24>
20004d10:	2260      	movs	r2, #96	; 0x60
20004d12:	0015      	movs	r5, r2
20004d14:	7923      	ldrb	r3, [r4, #4]
20004d16:	401d      	ands	r5, r3
20004d18:	421a      	tst	r2, r3
20004d1a:	d000      	beq.n	20004d1e <tud_task_ext+0x2a2>
20004d1c:	e73c      	b.n	20004b98 <tud_task_ext+0x11c>
20004d1e:	7963      	ldrb	r3, [r4, #5]
20004d20:	3b0a      	subs	r3, #10
20004d22:	2b01      	cmp	r3, #1
20004d24:	d900      	bls.n	20004d28 <tud_task_ext+0x2ac>
20004d26:	e737      	b.n	20004b98 <tud_task_ext+0x11c>
20004d28:	f000 fba4 	bl	20005474 <usbd_control_set_complete_callback>
20004d2c:	7963      	ldrb	r3, [r4, #5]
20004d2e:	2b0a      	cmp	r3, #10
20004d30:	d100      	bne.n	20004d34 <tud_task_ext+0x2b8>
20004d32:	e15a      	b.n	20004fea <tud_task_ext+0x56e>
20004d34:	0038      	movs	r0, r7
20004d36:	a90c      	add	r1, sp, #48	; 0x30
20004d38:	f000 fb26 	bl	20005388 <tud_control_status>
20004d3c:	e6b0      	b.n	20004aa0 <tud_task_ext+0x24>
20004d3e:	7a23      	ldrb	r3, [r4, #8]
20004d40:	2b0f      	cmp	r3, #15
20004d42:	d900      	bls.n	20004d46 <tud_task_ext+0x2ca>
20004d44:	e728      	b.n	20004b98 <tud_task_ext+0x11c>
20004d46:	4a11      	ldr	r2, [pc, #68]	; (20004d8c <tud_task_ext+0x310>)
20004d48:	18eb      	adds	r3, r5, r3
20004d4a:	78db      	ldrb	r3, [r3, #3]
20004d4c:	2a00      	cmp	r2, #0
20004d4e:	d006      	beq.n	20004d5e <tud_task_ext+0x2e2>
20004d50:	4a0f      	ldr	r2, [pc, #60]	; (20004d90 <tud_task_ext+0x314>)
20004d52:	7812      	ldrb	r2, [r2, #0]
20004d54:	4293      	cmp	r3, r2
20004d56:	d200      	bcs.n	20004d5a <tud_task_ext+0x2de>
20004d58:	e123      	b.n	20004fa2 <tud_task_ext+0x526>
20004d5a:	1a9b      	subs	r3, r3, r2
20004d5c:	b2db      	uxtb	r3, r3
20004d5e:	2b02      	cmp	r3, #2
20004d60:	d900      	bls.n	20004d64 <tud_task_ext+0x2e8>
20004d62:	e719      	b.n	20004b98 <tud_task_ext+0x11c>
20004d64:	005d      	lsls	r5, r3, #1
20004d66:	18ed      	adds	r5, r5, r3
20004d68:	4b0a      	ldr	r3, [pc, #40]	; (20004d94 <tud_task_ext+0x318>)
20004d6a:	00ed      	lsls	r5, r5, #3
20004d6c:	18ed      	adds	r5, r5, r3
20004d6e:	68e8      	ldr	r0, [r5, #12]
20004d70:	f000 fb80 	bl	20005474 <usbd_control_set_complete_callback>
20004d74:	2101      	movs	r1, #1
20004d76:	0038      	movs	r0, r7
20004d78:	68eb      	ldr	r3, [r5, #12]
20004d7a:	aa0c      	add	r2, sp, #48	; 0x30
20004d7c:	4798      	blx	r3
20004d7e:	e763      	b.n	20004c48 <tud_task_ext+0x1cc>
20004d80:	20009f04 	.word	0x20009f04
20004d84:	2000ba48 	.word	0x2000ba48
20004d88:	2000b9f0 	.word	0x2000b9f0
20004d8c:	2000112d 	.word	0x2000112d
20004d90:	2002058d 	.word	0x2002058d
20004d94:	20009f90 	.word	0x20009f90
	...
20004da4:	2000a778 	.word	0x2000a778
20004da8:	200002b5 	.word	0x200002b5
20004dac:	20009f28 	.word	0x20009f28
20004db0:	2a00      	cmp	r2, #0
20004db2:	d000      	beq.n	20004db6 <tud_task_ext+0x33a>
20004db4:	e6f0      	b.n	20004b98 <tud_task_ext+0x11c>
20004db6:	2300      	movs	r3, #0
20004db8:	4698      	mov	r8, r3
20004dba:	7963      	ldrb	r3, [r4, #5]
20004dbc:	4699      	mov	r9, r3
20004dbe:	2302      	movs	r3, #2
20004dc0:	464a      	mov	r2, r9
20004dc2:	469b      	mov	fp, r3
20004dc4:	439a      	bics	r2, r3
20004dc6:	2a01      	cmp	r2, #1
20004dc8:	d100      	bne.n	20004dcc <tud_task_ext+0x350>
20004dca:	e0c4      	b.n	20004f56 <tud_task_ext+0x4da>
20004dcc:	464b      	mov	r3, r9
20004dce:	2b00      	cmp	r3, #0
20004dd0:	d000      	beq.n	20004dd4 <tud_task_ext+0x358>
20004dd2:	e6e1      	b.n	20004b98 <tud_task_ext+0x11c>
20004dd4:	9b02      	ldr	r3, [sp, #8]
20004dd6:	aa0a      	add	r2, sp, #40	; 0x28
20004dd8:	18eb      	adds	r3, r5, r3
20004dda:	4453      	add	r3, sl
20004ddc:	3330      	adds	r3, #48	; 0x30
20004dde:	78db      	ldrb	r3, [r3, #3]
20004de0:	3202      	adds	r2, #2
20004de2:	079b      	lsls	r3, r3, #30
20004de4:	0fdb      	lsrs	r3, r3, #31
20004de6:	8013      	strh	r3, [r2, #0]
20004de8:	0038      	movs	r0, r7
20004dea:	2302      	movs	r3, #2
20004dec:	a90c      	add	r1, sp, #48	; 0x30
20004dee:	f000 fae1 	bl	200053b4 <tud_control_xfer>
20004df2:	e655      	b.n	20004aa0 <tud_task_ext+0x24>
20004df4:	4ad0      	ldr	r2, [pc, #832]	; (20005138 <tud_task_ext+0x6bc>)
20004df6:	0059      	lsls	r1, r3, #1
20004df8:	6815      	ldr	r5, [r2, #0]
20004dfa:	18cb      	adds	r3, r1, r3
20004dfc:	00db      	lsls	r3, r3, #3
20004dfe:	18ed      	adds	r5, r5, r3
20004e00:	2d00      	cmp	r5, #0
20004e02:	d000      	beq.n	20004e06 <tud_task_ext+0x38a>
20004e04:	e779      	b.n	20004cfa <tud_task_ext+0x27e>
20004e06:	e6c7      	b.n	20004b98 <tud_task_ext+0x11c>
20004e08:	4663      	mov	r3, ip
20004e0a:	005b      	lsls	r3, r3, #1
20004e0c:	4698      	mov	r8, r3
20004e0e:	44c4      	add	ip, r8
20004e10:	4663      	mov	r3, ip
20004e12:	00db      	lsls	r3, r3, #3
20004e14:	469c      	mov	ip, r3
20004e16:	48c8      	ldr	r0, [pc, #800]	; (20005138 <tud_task_ext+0x6bc>)
20004e18:	6800      	ldr	r0, [r0, #0]
20004e1a:	4460      	add	r0, ip
20004e1c:	4680      	mov	r8, r0
20004e1e:	2a00      	cmp	r2, #0
20004e20:	d0cb      	beq.n	20004dba <tud_task_ext+0x33e>
20004e22:	2800      	cmp	r0, #0
20004e24:	d000      	beq.n	20004e28 <tud_task_ext+0x3ac>
20004e26:	e745      	b.n	20004cb4 <tud_task_ext+0x238>
20004e28:	e6b6      	b.n	20004b98 <tud_task_ext+0x11c>
20004e2a:	79a3      	ldrb	r3, [r4, #6]
20004e2c:	469a      	mov	sl, r3
20004e2e:	786b      	ldrb	r3, [r5, #1]
20004e30:	459a      	cmp	sl, r3
20004e32:	d007      	beq.n	20004e44 <tud_task_ext+0x3c8>
20004e34:	786b      	ldrb	r3, [r5, #1]
20004e36:	2b00      	cmp	r3, #0
20004e38:	d000      	beq.n	20004e3c <tud_task_ext+0x3c0>
20004e3a:	e159      	b.n	200050f0 <tud_task_ext+0x674>
20004e3c:	4653      	mov	r3, sl
20004e3e:	2b00      	cmp	r3, #0
20004e40:	d000      	beq.n	20004e44 <tud_task_ext+0x3c8>
20004e42:	e0eb      	b.n	2000501c <tud_task_ext+0x5a0>
20004e44:	4653      	mov	r3, sl
20004e46:	0038      	movs	r0, r7
20004e48:	a90c      	add	r1, sp, #48	; 0x30
20004e4a:	706b      	strb	r3, [r5, #1]
20004e4c:	f000 fa9c 	bl	20005388 <tud_control_status>
20004e50:	e626      	b.n	20004aa0 <tud_task_ext+0x24>
20004e52:	786b      	ldrb	r3, [r5, #1]
20004e54:	aa0a      	add	r2, sp, #40	; 0x28
20004e56:	3202      	adds	r2, #2
20004e58:	7013      	strb	r3, [r2, #0]
20004e5a:	0038      	movs	r0, r7
20004e5c:	2301      	movs	r3, #1
20004e5e:	a90c      	add	r1, sp, #48	; 0x30
20004e60:	f000 faa8 	bl	200053b4 <tud_control_xfer>
20004e64:	e61c      	b.n	20004aa0 <tud_task_ext+0x24>
20004e66:	88e3      	ldrh	r3, [r4, #6]
20004e68:	0a1a      	lsrs	r2, r3, #8
20004e6a:	b2d8      	uxtb	r0, r3
20004e6c:	2a0f      	cmp	r2, #15
20004e6e:	d900      	bls.n	20004e72 <tud_task_ext+0x3f6>
20004e70:	e692      	b.n	20004b98 <tud_task_ext+0x11c>
20004e72:	49b2      	ldr	r1, [pc, #712]	; (2000513c <tud_task_ext+0x6c0>)
20004e74:	0093      	lsls	r3, r2, #2
20004e76:	58cb      	ldr	r3, [r1, r3]
20004e78:	469f      	mov	pc, r3
20004e7a:	a80c      	add	r0, sp, #48	; 0x30
20004e7c:	f000 fb00 	bl	20005480 <usbd_control_set_request>
20004e80:	0038      	movs	r0, r7
20004e82:	79a1      	ldrb	r1, [r4, #6]
20004e84:	f7ff fb84 	bl	20004590 <dcd_set_address>
20004e88:	2202      	movs	r2, #2
20004e8a:	782b      	ldrb	r3, [r5, #0]
20004e8c:	4313      	orrs	r3, r2
20004e8e:	702b      	strb	r3, [r5, #0]
20004e90:	e606      	b.n	20004aa0 <tud_task_ext+0x24>
20004e92:	88e3      	ldrh	r3, [r4, #6]
20004e94:	2b01      	cmp	r3, #1
20004e96:	d000      	beq.n	20004e9a <tud_task_ext+0x41e>
20004e98:	e67e      	b.n	20004b98 <tud_task_ext+0x11c>
20004e9a:	2208      	movs	r2, #8
20004e9c:	782b      	ldrb	r3, [r5, #0]
20004e9e:	0038      	movs	r0, r7
20004ea0:	4393      	bics	r3, r2
20004ea2:	a90c      	add	r1, sp, #48	; 0x30
20004ea4:	702b      	strb	r3, [r5, #0]
20004ea6:	f000 fa6f 	bl	20005388 <tud_control_status>
20004eaa:	e5f9      	b.n	20004aa0 <tud_task_ext+0x24>
20004eac:	2002      	movs	r0, #2
20004eae:	7829      	ldrb	r1, [r5, #0]
20004eb0:	ab0a      	add	r3, sp, #40	; 0x28
20004eb2:	1c9a      	adds	r2, r3, #2
20004eb4:	068b      	lsls	r3, r1, #26
20004eb6:	0889      	lsrs	r1, r1, #2
20004eb8:	0fdb      	lsrs	r3, r3, #31
20004eba:	4001      	ands	r1, r0
20004ebc:	430b      	orrs	r3, r1
20004ebe:	e792      	b.n	20004de6 <tud_task_ext+0x36a>
20004ec0:	88e3      	ldrh	r3, [r4, #6]
20004ec2:	2b01      	cmp	r3, #1
20004ec4:	d000      	beq.n	20004ec8 <tud_task_ext+0x44c>
20004ec6:	e667      	b.n	20004b98 <tud_task_ext+0x11c>
20004ec8:	2208      	movs	r2, #8
20004eca:	782b      	ldrb	r3, [r5, #0]
20004ecc:	0038      	movs	r0, r7
20004ece:	4313      	orrs	r3, r2
20004ed0:	a90c      	add	r1, sp, #48	; 0x30
20004ed2:	702b      	strb	r3, [r5, #0]
20004ed4:	f000 fa58 	bl	20005388 <tud_control_status>
20004ed8:	e5e2      	b.n	20004aa0 <tud_task_ext+0x24>
20004eda:	4b99      	ldr	r3, [pc, #612]	; (20005140 <tud_task_ext+0x6c4>)
20004edc:	2b00      	cmp	r3, #0
20004ede:	d100      	bne.n	20004ee2 <tud_task_ext+0x466>
20004ee0:	e65a      	b.n	20004b98 <tud_task_ext+0x11c>
20004ee2:	f7fb fa6f 	bl	200003c4 <tud_descriptor_bos_cb>
20004ee6:	1e02      	subs	r2, r0, #0
20004ee8:	d100      	bne.n	20004eec <tud_task_ext+0x470>
20004eea:	e655      	b.n	20004b98 <tud_task_ext+0x11c>
20004eec:	78d3      	ldrb	r3, [r2, #3]
20004eee:	7891      	ldrb	r1, [r2, #2]
20004ef0:	021b      	lsls	r3, r3, #8
20004ef2:	430b      	orrs	r3, r1
20004ef4:	0038      	movs	r0, r7
20004ef6:	a90c      	add	r1, sp, #48	; 0x30
20004ef8:	f000 fa5c 	bl	200053b4 <tud_control_xfer>
20004efc:	e6a4      	b.n	20004c48 <tud_task_ext+0x1cc>
20004efe:	4b91      	ldr	r3, [pc, #580]	; (20005144 <tud_task_ext+0x6c8>)
20004f00:	2b00      	cmp	r3, #0
20004f02:	d100      	bne.n	20004f06 <tud_task_ext+0x48a>
20004f04:	e648      	b.n	20004b98 <tud_task_ext+0x11c>
20004f06:	e000      	b.n	20004f0a <tud_task_ext+0x48e>
20004f08:	bf00      	nop
20004f0a:	1e02      	subs	r2, r0, #0
20004f0c:	d100      	bne.n	20004f10 <tud_task_ext+0x494>
20004f0e:	e643      	b.n	20004b98 <tud_task_ext+0x11c>
20004f10:	0038      	movs	r0, r7
20004f12:	7813      	ldrb	r3, [r2, #0]
20004f14:	a90c      	add	r1, sp, #48	; 0x30
20004f16:	f000 fa4d 	bl	200053b4 <tud_control_xfer>
20004f1a:	e695      	b.n	20004c48 <tud_task_ext+0x1cc>
20004f1c:	8921      	ldrh	r1, [r4, #8]
20004f1e:	f7fb fa13 	bl	20000348 <tud_descriptor_string_cb>
20004f22:	1e02      	subs	r2, r0, #0
20004f24:	d1f4      	bne.n	20004f10 <tud_task_ext+0x494>
20004f26:	e637      	b.n	20004b98 <tud_task_ext+0x11c>
20004f28:	2a02      	cmp	r2, #2
20004f2a:	d100      	bne.n	20004f2e <tud_task_ext+0x4b2>
20004f2c:	e154      	b.n	200051d8 <tud_task_ext+0x75c>
20004f2e:	4b86      	ldr	r3, [pc, #536]	; (20005148 <tud_task_ext+0x6cc>)
20004f30:	2b00      	cmp	r3, #0
20004f32:	d100      	bne.n	20004f36 <tud_task_ext+0x4ba>
20004f34:	e630      	b.n	20004b98 <tud_task_ext+0x11c>
20004f36:	e000      	b.n	20004f3a <tud_task_ext+0x4be>
20004f38:	bf00      	nop
20004f3a:	0002      	movs	r2, r0
20004f3c:	2a00      	cmp	r2, #0
20004f3e:	d100      	bne.n	20004f42 <tud_task_ext+0x4c6>
20004f40:	e62a      	b.n	20004b98 <tud_task_ext+0x11c>
20004f42:	e7d3      	b.n	20004eec <tud_task_ext+0x470>
20004f44:	f7fb f9f0 	bl	20000328 <tud_descriptor_device_cb>
20004f48:	2312      	movs	r3, #18
20004f4a:	0002      	movs	r2, r0
20004f4c:	a90c      	add	r1, sp, #48	; 0x30
20004f4e:	0038      	movs	r0, r7
20004f50:	f000 fa30 	bl	200053b4 <tud_control_xfer>
20004f54:	e678      	b.n	20004c48 <tud_task_ext+0x1cc>
20004f56:	88e2      	ldrh	r2, [r4, #6]
20004f58:	2a00      	cmp	r2, #0
20004f5a:	d10c      	bne.n	20004f76 <tud_task_ext+0x4fa>
20004f5c:	464b      	mov	r3, r9
20004f5e:	2b01      	cmp	r3, #1
20004f60:	d029      	beq.n	20004fb6 <tud_task_ext+0x53a>
20004f62:	2230      	movs	r2, #48	; 0x30
20004f64:	4691      	mov	r9, r2
20004f66:	9b02      	ldr	r3, [sp, #8]
20004f68:	18eb      	adds	r3, r5, r3
20004f6a:	4453      	add	r3, sl
20004f6c:	4499      	add	r9, r3
20004f6e:	464b      	mov	r3, r9
20004f70:	78db      	ldrb	r3, [r3, #3]
20004f72:	079b      	lsls	r3, r3, #30
20004f74:	d542      	bpl.n	20004ffc <tud_task_ext+0x580>
20004f76:	4643      	mov	r3, r8
20004f78:	2b00      	cmp	r3, #0
20004f7a:	d100      	bne.n	20004f7e <tud_task_ext+0x502>
20004f7c:	e590      	b.n	20004aa0 <tud_task_ext+0x24>
20004f7e:	68d8      	ldr	r0, [r3, #12]
20004f80:	f000 fa78 	bl	20005474 <usbd_control_set_complete_callback>
20004f84:	4643      	mov	r3, r8
20004f86:	2101      	movs	r1, #1
20004f88:	68db      	ldr	r3, [r3, #12]
20004f8a:	aa0c      	add	r2, sp, #48	; 0x30
20004f8c:	0038      	movs	r0, r7
20004f8e:	4798      	blx	r3
20004f90:	2000      	movs	r0, #0
20004f92:	f000 fa6f 	bl	20005474 <usbd_control_set_complete_callback>
20004f96:	2334      	movs	r3, #52	; 0x34
20004f98:	5ceb      	ldrb	r3, [r5, r3]
20004f9a:	07db      	lsls	r3, r3, #31
20004f9c:	d500      	bpl.n	20004fa0 <tud_task_ext+0x524>
20004f9e:	e57f      	b.n	20004aa0 <tud_task_ext+0x24>
20004fa0:	e6c8      	b.n	20004d34 <tud_task_ext+0x2b8>
20004fa2:	4a65      	ldr	r2, [pc, #404]	; (20005138 <tud_task_ext+0x6bc>)
20004fa4:	0059      	lsls	r1, r3, #1
20004fa6:	6815      	ldr	r5, [r2, #0]
20004fa8:	18cb      	adds	r3, r1, r3
20004faa:	00db      	lsls	r3, r3, #3
20004fac:	18ed      	adds	r5, r5, r3
20004fae:	2d00      	cmp	r5, #0
20004fb0:	d000      	beq.n	20004fb4 <tud_task_ext+0x538>
20004fb2:	e6dc      	b.n	20004d6e <tud_task_ext+0x2f2>
20004fb4:	e5f0      	b.n	20004b98 <tud_task_ext+0x11c>
20004fb6:	9b02      	ldr	r3, [sp, #8]
20004fb8:	3230      	adds	r2, #48	; 0x30
20004fba:	18eb      	adds	r3, r5, r3
20004fbc:	4453      	add	r3, sl
20004fbe:	4692      	mov	sl, r2
20004fc0:	449a      	add	sl, r3
20004fc2:	4653      	mov	r3, sl
20004fc4:	78db      	ldrb	r3, [r3, #3]
20004fc6:	079b      	lsls	r3, r3, #30
20004fc8:	d5d5      	bpl.n	20004f76 <tud_task_ext+0x4fa>
20004fca:	4b60      	ldr	r3, [pc, #384]	; (2000514c <tud_task_ext+0x6d0>)
20004fcc:	7818      	ldrb	r0, [r3, #0]
20004fce:	f7ff fc01 	bl	200047d4 <dcd_edpt_clear_stall>
20004fd2:	4653      	mov	r3, sl
20004fd4:	465a      	mov	r2, fp
20004fd6:	78db      	ldrb	r3, [r3, #3]
20004fd8:	4393      	bics	r3, r2
20004fda:	4652      	mov	r2, sl
20004fdc:	70d3      	strb	r3, [r2, #3]
20004fde:	78d3      	ldrb	r3, [r2, #3]
20004fe0:	464a      	mov	r2, r9
20004fe2:	4393      	bics	r3, r2
20004fe4:	4652      	mov	r2, sl
20004fe6:	70d3      	strb	r3, [r2, #3]
20004fe8:	e7c5      	b.n	20004f76 <tud_task_ext+0x4fa>
20004fea:	ab0a      	add	r3, sp, #40	; 0x28
20004fec:	1c9a      	adds	r2, r3, #2
20004fee:	0038      	movs	r0, r7
20004ff0:	2301      	movs	r3, #1
20004ff2:	a90c      	add	r1, sp, #48	; 0x30
20004ff4:	7015      	strb	r5, [r2, #0]
20004ff6:	f000 f9dd 	bl	200053b4 <tud_control_xfer>
20004ffa:	e551      	b.n	20004aa0 <tud_task_ext+0x24>
20004ffc:	4b53      	ldr	r3, [pc, #332]	; (2000514c <tud_task_ext+0x6d0>)
20004ffe:	7818      	ldrb	r0, [r3, #0]
20005000:	f7ff fbcc 	bl	2000479c <dcd_edpt_stall>
20005004:	464b      	mov	r3, r9
20005006:	2202      	movs	r2, #2
20005008:	78db      	ldrb	r3, [r3, #3]
2000500a:	4313      	orrs	r3, r2
2000500c:	464a      	mov	r2, r9
2000500e:	70d3      	strb	r3, [r2, #3]
20005010:	78d3      	ldrb	r3, [r2, #3]
20005012:	2201      	movs	r2, #1
20005014:	4313      	orrs	r3, r2
20005016:	464a      	mov	r2, r9
20005018:	70d3      	strb	r3, [r2, #3]
2000501a:	e7ac      	b.n	20004f76 <tud_task_ext+0x4fa>
2000501c:	1e58      	subs	r0, r3, #1
2000501e:	b2c0      	uxtb	r0, r0
20005020:	f7fb f98a 	bl	20000338 <tud_descriptor_configuration_cb>
20005024:	2800      	cmp	r0, #0
20005026:	d100      	bne.n	2000502a <tud_task_ext+0x5ae>
20005028:	e5b6      	b.n	20004b98 <tud_task_ext+0x11c>
2000502a:	7843      	ldrb	r3, [r0, #1]
2000502c:	9306      	str	r3, [sp, #24]
2000502e:	2b02      	cmp	r3, #2
20005030:	d000      	beq.n	20005034 <tud_task_ext+0x5b8>
20005032:	e5b1      	b.n	20004b98 <tud_task_ext+0x11c>
20005034:	2101      	movs	r1, #1
20005036:	79c3      	ldrb	r3, [r0, #7]
20005038:	46b3      	mov	fp, r6
2000503a:	119a      	asrs	r2, r3, #6
2000503c:	115b      	asrs	r3, r3, #5
2000503e:	400a      	ands	r2, r1
20005040:	400b      	ands	r3, r1
20005042:	0152      	lsls	r2, r2, #5
20005044:	011b      	lsls	r3, r3, #4
20005046:	4313      	orrs	r3, r2
20005048:	782a      	ldrb	r2, [r5, #0]
2000504a:	312f      	adds	r1, #47	; 0x2f
2000504c:	438a      	bics	r2, r1
2000504e:	4313      	orrs	r3, r2
20005050:	702b      	strb	r3, [r5, #0]
20005052:	2309      	movs	r3, #9
20005054:	4699      	mov	r9, r3
20005056:	78c3      	ldrb	r3, [r0, #3]
20005058:	7882      	ldrb	r2, [r0, #2]
2000505a:	021b      	lsls	r3, r3, #8
2000505c:	4313      	orrs	r3, r2
2000505e:	18c3      	adds	r3, r0, r3
20005060:	9305      	str	r3, [sp, #20]
20005062:	4b3b      	ldr	r3, [pc, #236]	; (20005150 <tud_task_ext+0x6d4>)
20005064:	4481      	add	r9, r0
20005066:	9304      	str	r3, [sp, #16]
20005068:	4b3a      	ldr	r3, [pc, #232]	; (20005154 <tud_task_ext+0x6d8>)
2000506a:	464e      	mov	r6, r9
2000506c:	9308      	str	r3, [sp, #32]
2000506e:	4653      	mov	r3, sl
20005070:	46b9      	mov	r9, r7
20005072:	46aa      	mov	sl, r5
20005074:	9309      	str	r3, [sp, #36]	; 0x24
20005076:	9b05      	ldr	r3, [sp, #20]
20005078:	42b3      	cmp	r3, r6
2000507a:	d800      	bhi.n	2000507e <tud_task_ext+0x602>
2000507c:	e0a0      	b.n	200051c0 <tud_task_ext+0x744>
2000507e:	2201      	movs	r2, #1
20005080:	7873      	ldrb	r3, [r6, #1]
20005082:	9203      	str	r2, [sp, #12]
20005084:	2b0b      	cmp	r3, #11
20005086:	d103      	bne.n	20005090 <tud_task_ext+0x614>
20005088:	78f3      	ldrb	r3, [r6, #3]
2000508a:	9303      	str	r3, [sp, #12]
2000508c:	7833      	ldrb	r3, [r6, #0]
2000508e:	18f6      	adds	r6, r6, r3
20005090:	7873      	ldrb	r3, [r6, #1]
20005092:	2b04      	cmp	r3, #4
20005094:	d12a      	bne.n	200050ec <tud_task_ext+0x670>
20005096:	2200      	movs	r2, #0
20005098:	4690      	mov	r8, r2
2000509a:	9b05      	ldr	r3, [sp, #20]
2000509c:	0017      	movs	r7, r2
2000509e:	1b9b      	subs	r3, r3, r6
200050a0:	b29b      	uxth	r3, r3
200050a2:	9302      	str	r3, [sp, #8]
200050a4:	9a08      	ldr	r2, [sp, #32]
200050a6:	9b04      	ldr	r3, [sp, #16]
200050a8:	781b      	ldrb	r3, [r3, #0]
200050aa:	4542      	cmp	r2, r8
200050ac:	d02b      	beq.n	20005106 <tud_task_ext+0x68a>
200050ae:	4a2a      	ldr	r2, [pc, #168]	; (20005158 <tud_task_ext+0x6dc>)
200050b0:	9207      	str	r2, [sp, #28]
200050b2:	429f      	cmp	r7, r3
200050b4:	d37b      	bcc.n	200051ae <tud_task_ext+0x732>
200050b6:	1afb      	subs	r3, r7, r3
200050b8:	b2db      	uxtb	r3, r3
200050ba:	2b02      	cmp	r3, #2
200050bc:	d816      	bhi.n	200050ec <tud_task_ext+0x670>
200050be:	2218      	movs	r2, #24
200050c0:	4353      	muls	r3, r2
200050c2:	9a07      	ldr	r2, [sp, #28]
200050c4:	189d      	adds	r5, r3, r2
200050c6:	0031      	movs	r1, r6
200050c8:	4648      	mov	r0, r9
200050ca:	68ab      	ldr	r3, [r5, #8]
200050cc:	9a02      	ldr	r2, [sp, #8]
200050ce:	4798      	blx	r3
200050d0:	4684      	mov	ip, r0
200050d2:	2808      	cmp	r0, #8
200050d4:	d902      	bls.n	200050dc <tud_task_ext+0x660>
200050d6:	9a02      	ldr	r2, [sp, #8]
200050d8:	4282      	cmp	r2, r0
200050da:	d243      	bcs.n	20005164 <tud_task_ext+0x6e8>
200050dc:	9b04      	ldr	r3, [sp, #16]
200050de:	3701      	adds	r7, #1
200050e0:	781b      	ldrb	r3, [r3, #0]
200050e2:	b2ff      	uxtb	r7, r7
200050e4:	1c9a      	adds	r2, r3, #2
200050e6:	46b8      	mov	r8, r7
200050e8:	42ba      	cmp	r2, r7
200050ea:	dae2      	bge.n	200050b2 <tud_task_ext+0x636>
200050ec:	465e      	mov	r6, fp
200050ee:	e553      	b.n	20004b98 <tud_task_ext+0x11c>
200050f0:	0038      	movs	r0, r7
200050f2:	f7ff fb3d 	bl	20004770 <dcd_edpt_close_all>
200050f6:	78ab      	ldrb	r3, [r5, #2]
200050f8:	0038      	movs	r0, r7
200050fa:	4698      	mov	r8, r3
200050fc:	f7ff fbc8 	bl	20004890 <configuration_reset>
20005100:	4643      	mov	r3, r8
20005102:	70ab      	strb	r3, [r5, #2]
20005104:	e69a      	b.n	20004e3c <tud_task_ext+0x3c0>
20005106:	4645      	mov	r5, r8
20005108:	4f13      	ldr	r7, [pc, #76]	; (20005158 <tud_task_ext+0x6dc>)
2000510a:	2d03      	cmp	r5, #3
2000510c:	d0ee      	beq.n	200050ec <tud_task_ext+0x670>
2000510e:	0031      	movs	r1, r6
20005110:	4648      	mov	r0, r9
20005112:	68bb      	ldr	r3, [r7, #8]
20005114:	9a02      	ldr	r2, [sp, #8]
20005116:	4798      	blx	r3
20005118:	4684      	mov	ip, r0
2000511a:	2808      	cmp	r0, #8
2000511c:	d902      	bls.n	20005124 <tud_task_ext+0x6a8>
2000511e:	9a02      	ldr	r2, [sp, #8]
20005120:	4282      	cmp	r2, r0
20005122:	d21b      	bcs.n	2000515c <tud_task_ext+0x6e0>
20005124:	9b04      	ldr	r3, [sp, #16]
20005126:	3501      	adds	r5, #1
20005128:	781b      	ldrb	r3, [r3, #0]
2000512a:	3718      	adds	r7, #24
2000512c:	3302      	adds	r3, #2
2000512e:	429d      	cmp	r5, r3
20005130:	ddeb      	ble.n	2000510a <tud_task_ext+0x68e>
20005132:	465e      	mov	r6, fp
20005134:	e530      	b.n	20004b98 <tud_task_ext+0x11c>
20005136:	46c0      	nop			; (mov r8, r8)
20005138:	2000a778 	.word	0x2000a778
2000513c:	20009f50 	.word	0x20009f50
20005140:	200003c5 	.word	0x200003c5
	...
2000514c:	2000a1cc 	.word	0x2000a1cc
20005150:	2002058d 	.word	0x2002058d
20005154:	2000112d 	.word	0x2000112d
20005158:	20009f90 	.word	0x20009f90
2000515c:	002b      	movs	r3, r5
2000515e:	4698      	mov	r8, r3
20005160:	003d      	movs	r5, r7
20005162:	b2df      	uxtb	r7, r3
20005164:	9b03      	ldr	r3, [sp, #12]
20005166:	2b01      	cmp	r3, #1
20005168:	d03a      	beq.n	200051e0 <tud_task_ext+0x764>
2000516a:	2200      	movs	r2, #0
2000516c:	4650      	mov	r0, sl
2000516e:	e009      	b.n	20005184 <tud_task_ext+0x708>
20005170:	78b3      	ldrb	r3, [r6, #2]
20005172:	18d3      	adds	r3, r2, r3
20005174:	b2db      	uxtb	r3, r3
20005176:	18c3      	adds	r3, r0, r3
20005178:	78d9      	ldrb	r1, [r3, #3]
2000517a:	29ff      	cmp	r1, #255	; 0xff
2000517c:	d1b6      	bne.n	200050ec <tud_task_ext+0x670>
2000517e:	3201      	adds	r2, #1
20005180:	70df      	strb	r7, [r3, #3]
20005182:	b2d2      	uxtb	r2, r2
20005184:	9b03      	ldr	r3, [sp, #12]
20005186:	429a      	cmp	r2, r3
20005188:	d1f2      	bne.n	20005170 <tud_task_ext+0x6f4>
2000518a:	4665      	mov	r5, ip
2000518c:	003b      	movs	r3, r7
2000518e:	0031      	movs	r1, r6
20005190:	4682      	mov	sl, r0
20005192:	002a      	movs	r2, r5
20005194:	4816      	ldr	r0, [pc, #88]	; (200051f0 <tud_task_ext+0x774>)
20005196:	f001 f81f 	bl	200061d8 <tu_edpt_bind_driver>
2000519a:	46ac      	mov	ip, r5
2000519c:	9b04      	ldr	r3, [sp, #16]
2000519e:	4466      	add	r6, ip
200051a0:	781b      	ldrb	r3, [r3, #0]
200051a2:	3302      	adds	r3, #2
200051a4:	4543      	cmp	r3, r8
200051a6:	db00      	blt.n	200051aa <tud_task_ext+0x72e>
200051a8:	e765      	b.n	20005076 <tud_task_ext+0x5fa>
200051aa:	465e      	mov	r6, fp
200051ac:	e4f4      	b.n	20004b98 <tud_task_ext+0x11c>
200051ae:	2318      	movs	r3, #24
200051b0:	4a10      	ldr	r2, [pc, #64]	; (200051f4 <tud_task_ext+0x778>)
200051b2:	437b      	muls	r3, r7
200051b4:	6815      	ldr	r5, [r2, #0]
200051b6:	18ed      	adds	r5, r5, r3
200051b8:	2d00      	cmp	r5, #0
200051ba:	d184      	bne.n	200050c6 <tud_task_ext+0x64a>
200051bc:	465e      	mov	r6, fp
200051be:	e4eb      	b.n	20004b98 <tud_task_ext+0x11c>
200051c0:	9b09      	ldr	r3, [sp, #36]	; 0x24
200051c2:	4655      	mov	r5, sl
200051c4:	469a      	mov	sl, r3
200051c6:	4b0c      	ldr	r3, [pc, #48]	; (200051f8 <tud_task_ext+0x77c>)
200051c8:	464f      	mov	r7, r9
200051ca:	465e      	mov	r6, fp
200051cc:	2b00      	cmp	r3, #0
200051ce:	d100      	bne.n	200051d2 <tud_task_ext+0x756>
200051d0:	e638      	b.n	20004e44 <tud_task_ext+0x3c8>
200051d2:	e000      	b.n	200051d6 <tud_task_ext+0x75a>
200051d4:	bf00      	nop
200051d6:	e635      	b.n	20004e44 <tud_task_ext+0x3c8>
200051d8:	f7fb f8ae 	bl	20000338 <tud_descriptor_configuration_cb>
200051dc:	0002      	movs	r2, r0
200051de:	e6ad      	b.n	20004f3c <tud_task_ext+0x4c0>
200051e0:	4b06      	ldr	r3, [pc, #24]	; (200051fc <tud_task_ext+0x780>)
200051e2:	68aa      	ldr	r2, [r5, #8]
200051e4:	429a      	cmp	r2, r3
200051e6:	d1c0      	bne.n	2000516a <tud_task_ext+0x6ee>
200051e8:	9b06      	ldr	r3, [sp, #24]
200051ea:	9303      	str	r3, [sp, #12]
200051ec:	e7bd      	b.n	2000516a <tud_task_ext+0x6ee>
200051ee:	46c0      	nop			; (mov r8, r8)
200051f0:	2000ba03 	.word	0x2000ba03
200051f4:	2000a778 	.word	0x2000a778
200051f8:	00000000 	.word	0x00000000
200051fc:	20005835 	.word	0x20005835

20005200 <usbd_open_edpt_pair>:
20005200:	b5f8      	push	{r3, r4, r5, r6, r7, lr}
20005202:	4657      	mov	r7, sl
20005204:	464e      	mov	r6, r9
20005206:	46de      	mov	lr, fp
20005208:	4645      	mov	r5, r8
2000520a:	000c      	movs	r4, r1
2000520c:	b5e0      	push	{r5, r6, r7, lr}
2000520e:	0016      	movs	r6, r2
20005210:	001f      	movs	r7, r3
20005212:	2a00      	cmp	r2, #0
20005214:	d03c      	beq.n	20005290 <usbd_open_edpt_pair+0x90>
20005216:	4b1f      	ldr	r3, [pc, #124]	; (20005294 <usbd_open_edpt_pair+0x94>)
20005218:	2500      	movs	r5, #0
2000521a:	469a      	mov	sl, r3
2000521c:	2370      	movs	r3, #112	; 0x70
2000521e:	4699      	mov	r9, r3
20005220:	4b1d      	ldr	r3, [pc, #116]	; (20005298 <usbd_open_edpt_pair+0x98>)
20005222:	469b      	mov	fp, r3
20005224:	e017      	b.n	20005256 <usbd_open_edpt_pair+0x56>
20005226:	465b      	mov	r3, fp
20005228:	0020      	movs	r0, r4
2000522a:	7899      	ldrb	r1, [r3, #2]
2000522c:	f000 ff96 	bl	2000615c <tu_edpt_validate>
20005230:	2800      	cmp	r0, #0
20005232:	d01f      	beq.n	20005274 <usbd_open_edpt_pair+0x74>
20005234:	0021      	movs	r1, r4
20005236:	4640      	mov	r0, r8
20005238:	f7ff fa16 	bl	20004668 <dcd_edpt_open>
2000523c:	2800      	cmp	r0, #0
2000523e:	d019      	beq.n	20005274 <usbd_open_edpt_pair+0x74>
20005240:	78a3      	ldrb	r3, [r4, #2]
20005242:	09da      	lsrs	r2, r3, #7
20005244:	2a01      	cmp	r2, #1
20005246:	d01c      	beq.n	20005282 <usbd_open_edpt_pair+0x82>
20005248:	9a0a      	ldr	r2, [sp, #40]	; 0x28
2000524a:	3501      	adds	r5, #1
2000524c:	7013      	strb	r3, [r2, #0]
2000524e:	7823      	ldrb	r3, [r4, #0]
20005250:	18e4      	adds	r4, r4, r3
20005252:	42b5      	cmp	r5, r6
20005254:	da1c      	bge.n	20005290 <usbd_open_edpt_pair+0x90>
20005256:	7863      	ldrb	r3, [r4, #1]
20005258:	2b05      	cmp	r3, #5
2000525a:	d10b      	bne.n	20005274 <usbd_open_edpt_pair+0x74>
2000525c:	78e3      	ldrb	r3, [r4, #3]
2000525e:	079b      	lsls	r3, r3, #30
20005260:	0f9b      	lsrs	r3, r3, #30
20005262:	42bb      	cmp	r3, r7
20005264:	d106      	bne.n	20005274 <usbd_open_edpt_pair+0x74>
20005266:	4653      	mov	r3, sl
20005268:	464a      	mov	r2, r9
2000526a:	781b      	ldrb	r3, [r3, #0]
2000526c:	4698      	mov	r8, r3
2000526e:	78a3      	ldrb	r3, [r4, #2]
20005270:	421a      	tst	r2, r3
20005272:	d0d8      	beq.n	20005226 <usbd_open_edpt_pair+0x26>
20005274:	2000      	movs	r0, #0
20005276:	bcf0      	pop	{r4, r5, r6, r7}
20005278:	46bb      	mov	fp, r7
2000527a:	46b2      	mov	sl, r6
2000527c:	46a9      	mov	r9, r5
2000527e:	46a0      	mov	r8, r4
20005280:	bdf8      	pop	{r3, r4, r5, r6, r7, pc}
20005282:	9a0b      	ldr	r2, [sp, #44]	; 0x2c
20005284:	3501      	adds	r5, #1
20005286:	7013      	strb	r3, [r2, #0]
20005288:	7823      	ldrb	r3, [r4, #0]
2000528a:	18e4      	adds	r4, r4, r3
2000528c:	42b5      	cmp	r5, r6
2000528e:	dbe2      	blt.n	20005256 <usbd_open_edpt_pair+0x56>
20005290:	2001      	movs	r0, #1
20005292:	e7f0      	b.n	20005276 <usbd_open_edpt_pair+0x76>
20005294:	2000a1cc 	.word	0x2000a1cc
20005298:	2000b9f0 	.word	0x2000b9f0

2000529c <usbd_edpt_open>:
2000529c:	2270      	movs	r2, #112	; 0x70
2000529e:	b570      	push	{r4, r5, r6, lr}
200052a0:	4b09      	ldr	r3, [pc, #36]	; (200052c8 <usbd_edpt_open+0x2c>)
200052a2:	000c      	movs	r4, r1
200052a4:	781d      	ldrb	r5, [r3, #0]
200052a6:	788b      	ldrb	r3, [r1, #2]
200052a8:	421a      	tst	r2, r3
200052aa:	d001      	beq.n	200052b0 <usbd_edpt_open+0x14>
200052ac:	2000      	movs	r0, #0
200052ae:	bd70      	pop	{r4, r5, r6, pc}
200052b0:	4b06      	ldr	r3, [pc, #24]	; (200052cc <usbd_edpt_open+0x30>)
200052b2:	0020      	movs	r0, r4
200052b4:	7899      	ldrb	r1, [r3, #2]
200052b6:	f000 ff51 	bl	2000615c <tu_edpt_validate>
200052ba:	2800      	cmp	r0, #0
200052bc:	d0f6      	beq.n	200052ac <usbd_edpt_open+0x10>
200052be:	0021      	movs	r1, r4
200052c0:	0028      	movs	r0, r5
200052c2:	f7ff f9d1 	bl	20004668 <dcd_edpt_open>
200052c6:	e7f2      	b.n	200052ae <usbd_edpt_open+0x12>
200052c8:	2000a1cc 	.word	0x2000a1cc
200052cc:	2000b9f0 	.word	0x2000b9f0

200052d0 <usbd_edpt_claim>:
200052d0:	000b      	movs	r3, r1
200052d2:	207f      	movs	r0, #127	; 0x7f
200052d4:	b510      	push	{r4, lr}
200052d6:	4018      	ands	r0, r3
200052d8:	09db      	lsrs	r3, r3, #7
200052da:	3333      	adds	r3, #51	; 0x33
200052dc:	0040      	lsls	r0, r0, #1
200052de:	4a04      	ldr	r2, [pc, #16]	; (200052f0 <usbd_edpt_claim+0x20>)
200052e0:	18c0      	adds	r0, r0, r3
200052e2:	4b04      	ldr	r3, [pc, #16]	; (200052f4 <usbd_edpt_claim+0x24>)
200052e4:	6811      	ldr	r1, [r2, #0]
200052e6:	18c0      	adds	r0, r0, r3
200052e8:	f000 fef4 	bl	200060d4 <tu_edpt_claim>
200052ec:	bd10      	pop	{r4, pc}
200052ee:	46c0      	nop			; (mov r8, r8)
200052f0:	2000ba44 	.word	0x2000ba44
200052f4:	2000b9f0 	.word	0x2000b9f0

200052f8 <usbd_edpt_release>:
200052f8:	000b      	movs	r3, r1
200052fa:	207f      	movs	r0, #127	; 0x7f
200052fc:	b510      	push	{r4, lr}
200052fe:	4018      	ands	r0, r3
20005300:	09db      	lsrs	r3, r3, #7
20005302:	3333      	adds	r3, #51	; 0x33
20005304:	0040      	lsls	r0, r0, #1
20005306:	4a04      	ldr	r2, [pc, #16]	; (20005318 <usbd_edpt_release+0x20>)
20005308:	18c0      	adds	r0, r0, r3
2000530a:	4b04      	ldr	r3, [pc, #16]	; (2000531c <usbd_edpt_release+0x24>)
2000530c:	6811      	ldr	r1, [r2, #0]
2000530e:	18c0      	adds	r0, r0, r3
20005310:	f000 ff08 	bl	20006124 <tu_edpt_release>
20005314:	bd10      	pop	{r4, pc}
20005316:	46c0      	nop			; (mov r8, r8)
20005318:	2000ba44 	.word	0x2000ba44
2000531c:	2000b9f0 	.word	0x2000b9f0

20005320 <usbd_edpt_xfer>:
20005320:	b570      	push	{r4, r5, r6, lr}
20005322:	247f      	movs	r4, #127	; 0x7f
20005324:	480f      	ldr	r0, [pc, #60]	; (20005364 <usbd_edpt_xfer+0x44>)
20005326:	400c      	ands	r4, r1
20005328:	0064      	lsls	r4, r4, #1
2000532a:	1904      	adds	r4, r0, r4
2000532c:	09cd      	lsrs	r5, r1, #7
2000532e:	1964      	adds	r4, r4, r5
20005330:	3430      	adds	r4, #48	; 0x30
20005332:	78e0      	ldrb	r0, [r4, #3]
20005334:	07c0      	lsls	r0, r0, #31
20005336:	d501      	bpl.n	2000533c <usbd_edpt_xfer+0x1c>
20005338:	2000      	movs	r0, #0
2000533a:	bd70      	pop	{r4, r5, r6, pc}
2000533c:	2601      	movs	r6, #1
2000533e:	78e5      	ldrb	r5, [r4, #3]
20005340:	4809      	ldr	r0, [pc, #36]	; (20005368 <usbd_edpt_xfer+0x48>)
20005342:	4335      	orrs	r5, r6
20005344:	7800      	ldrb	r0, [r0, #0]
20005346:	70e5      	strb	r5, [r4, #3]
20005348:	f7ff fa16 	bl	20004778 <dcd_edpt_xfer>
2000534c:	2800      	cmp	r0, #0
2000534e:	d1f4      	bne.n	2000533a <usbd_edpt_xfer+0x1a>
20005350:	2201      	movs	r2, #1
20005352:	78e3      	ldrb	r3, [r4, #3]
20005354:	4393      	bics	r3, r2
20005356:	70e3      	strb	r3, [r4, #3]
20005358:	78e3      	ldrb	r3, [r4, #3]
2000535a:	3203      	adds	r2, #3
2000535c:	4393      	bics	r3, r2
2000535e:	70e3      	strb	r3, [r4, #3]
20005360:	e7ea      	b.n	20005338 <usbd_edpt_xfer+0x18>
20005362:	46c0      	nop			; (mov r8, r8)
20005364:	2000b9f0 	.word	0x2000b9f0
20005368:	2000a1cc 	.word	0x2000a1cc

2000536c <usbd_edpt_busy>:
2000536c:	227f      	movs	r2, #127	; 0x7f
2000536e:	4b05      	ldr	r3, [pc, #20]	; (20005384 <usbd_edpt_busy+0x18>)
20005370:	400a      	ands	r2, r1
20005372:	0052      	lsls	r2, r2, #1
20005374:	09c9      	lsrs	r1, r1, #7
20005376:	189b      	adds	r3, r3, r2
20005378:	185b      	adds	r3, r3, r1
2000537a:	3330      	adds	r3, #48	; 0x30
2000537c:	78d8      	ldrb	r0, [r3, #3]
2000537e:	07c0      	lsls	r0, r0, #31
20005380:	0fc0      	lsrs	r0, r0, #31
20005382:	4770      	bx	lr
20005384:	2000b9f0 	.word	0x2000b9f0

20005388 <tud_control_status>:
20005388:	b570      	push	{r4, r5, r6, lr}
2000538a:	4c09      	ldr	r4, [pc, #36]	; (200053b0 <tud_control_status+0x28>)
2000538c:	0006      	movs	r6, r0
2000538e:	2208      	movs	r2, #8
20005390:	0020      	movs	r0, r4
20005392:	000d      	movs	r5, r1
20005394:	f7fe fe80 	bl	20004098 <__wrap___aeabi_memcpy>
20005398:	2300      	movs	r3, #0
2000539a:	2180      	movs	r1, #128	; 0x80
2000539c:	60e3      	str	r3, [r4, #12]
2000539e:	60a3      	str	r3, [r4, #8]
200053a0:	782b      	ldrb	r3, [r5, #0]
200053a2:	0030      	movs	r0, r6
200053a4:	4399      	bics	r1, r3
200053a6:	2200      	movs	r2, #0
200053a8:	2300      	movs	r3, #0
200053aa:	f7ff ffb9 	bl	20005320 <usbd_edpt_xfer>
200053ae:	bd70      	pop	{r4, r5, r6, pc}
200053b0:	2000b8c4 	.word	0x2000b8c4

200053b4 <tud_control_xfer>:
200053b4:	b5f8      	push	{r3, r4, r5, r6, r7, lr}
200053b6:	46ce      	mov	lr, r9
200053b8:	4647      	mov	r7, r8
200053ba:	4690      	mov	r8, r2
200053bc:	4e26      	ldr	r6, [pc, #152]	; (20005458 <tud_control_xfer+0xa4>)
200053be:	b580      	push	{r7, lr}
200053c0:	4681      	mov	r9, r0
200053c2:	2208      	movs	r2, #8
200053c4:	0030      	movs	r0, r6
200053c6:	000d      	movs	r5, r1
200053c8:	001f      	movs	r7, r3
200053ca:	f7fe fe65 	bl	20004098 <__wrap___aeabi_memcpy>
200053ce:	4643      	mov	r3, r8
200053d0:	60b3      	str	r3, [r6, #8]
200053d2:	2300      	movs	r3, #0
200053d4:	81f3      	strh	r3, [r6, #14]
200053d6:	79ec      	ldrb	r4, [r5, #7]
200053d8:	79ab      	ldrb	r3, [r5, #6]
200053da:	0224      	lsls	r4, r4, #8
200053dc:	431c      	orrs	r4, r3
200053de:	1c23      	adds	r3, r4, #0
200053e0:	42bc      	cmp	r4, r7
200053e2:	d900      	bls.n	200053e6 <tud_control_xfer+0x32>
200053e4:	1c3b      	adds	r3, r7, #0
200053e6:	b29f      	uxth	r7, r3
200053e8:	81b3      	strh	r3, [r6, #12]
200053ea:	2c00      	cmp	r4, #0
200053ec:	d00e      	beq.n	2000540c <tud_control_xfer+0x58>
200053ee:	2f00      	cmp	r7, #0
200053f0:	d018      	beq.n	20005424 <tud_control_xfer+0x70>
200053f2:	4643      	mov	r3, r8
200053f4:	2b00      	cmp	r3, #0
200053f6:	d02c      	beq.n	20005452 <tud_control_xfer+0x9e>
200053f8:	1c3b      	adds	r3, r7, #0
200053fa:	2f40      	cmp	r7, #64	; 0x40
200053fc:	d81b      	bhi.n	20005436 <tud_control_xfer+0x82>
200053fe:	b29f      	uxth	r7, r3
20005400:	7833      	ldrb	r3, [r6, #0]
20005402:	2b7f      	cmp	r3, #127	; 0x7f
20005404:	d81c      	bhi.n	20005440 <tud_control_xfer+0x8c>
20005406:	2100      	movs	r1, #0
20005408:	4a14      	ldr	r2, [pc, #80]	; (2000545c <tud_control_xfer+0xa8>)
2000540a:	e00f      	b.n	2000542c <tud_control_xfer+0x78>
2000540c:	2180      	movs	r1, #128	; 0x80
2000540e:	782b      	ldrb	r3, [r5, #0]
20005410:	2200      	movs	r2, #0
20005412:	4399      	bics	r1, r3
20005414:	4648      	mov	r0, r9
20005416:	2300      	movs	r3, #0
20005418:	f7ff ff82 	bl	20005320 <usbd_edpt_xfer>
2000541c:	bcc0      	pop	{r6, r7}
2000541e:	46b9      	mov	r9, r7
20005420:	46b0      	mov	r8, r6
20005422:	bdf8      	pop	{r3, r4, r5, r6, r7, pc}
20005424:	237f      	movs	r3, #127	; 0x7f
20005426:	2200      	movs	r2, #0
20005428:	7831      	ldrb	r1, [r6, #0]
2000542a:	4399      	bics	r1, r3
2000542c:	003b      	movs	r3, r7
2000542e:	4648      	mov	r0, r9
20005430:	f7ff ff76 	bl	20005320 <usbd_edpt_xfer>
20005434:	e7f2      	b.n	2000541c <tud_control_xfer+0x68>
20005436:	2340      	movs	r3, #64	; 0x40
20005438:	b29f      	uxth	r7, r3
2000543a:	7833      	ldrb	r3, [r6, #0]
2000543c:	2b7f      	cmp	r3, #127	; 0x7f
2000543e:	d9e2      	bls.n	20005406 <tud_control_xfer+0x52>
20005440:	4c06      	ldr	r4, [pc, #24]	; (2000545c <tud_control_xfer+0xa8>)
20005442:	003a      	movs	r2, r7
20005444:	4641      	mov	r1, r8
20005446:	0020      	movs	r0, r4
20005448:	f7fe fe26 	bl	20004098 <__wrap___aeabi_memcpy>
2000544c:	2180      	movs	r1, #128	; 0x80
2000544e:	0022      	movs	r2, r4
20005450:	e7ec      	b.n	2000542c <tud_control_xfer+0x78>
20005452:	2000      	movs	r0, #0
20005454:	e7e2      	b.n	2000541c <tud_control_xfer+0x68>
20005456:	46c0      	nop			; (mov r8, r8)
20005458:	2000b8c4 	.word	0x2000b8c4
2000545c:	2000b9b0 	.word	0x2000b9b0

20005460 <usbd_control_reset>:
20005460:	b510      	push	{r4, lr}
20005462:	2214      	movs	r2, #20
20005464:	2100      	movs	r1, #0
20005466:	4802      	ldr	r0, [pc, #8]	; (20005470 <usbd_control_reset+0x10>)
20005468:	f7fe fe10 	bl	2000408c <__wrap_memset>
2000546c:	bd10      	pop	{r4, pc}
2000546e:	46c0      	nop			; (mov r8, r8)
20005470:	2000b8c4 	.word	0x2000b8c4

20005474 <usbd_control_set_complete_callback>:
20005474:	4b01      	ldr	r3, [pc, #4]	; (2000547c <usbd_control_set_complete_callback+0x8>)
20005476:	6118      	str	r0, [r3, #16]
20005478:	4770      	bx	lr
2000547a:	46c0      	nop			; (mov r8, r8)
2000547c:	2000b8c4 	.word	0x2000b8c4

20005480 <usbd_control_set_request>:
20005480:	b510      	push	{r4, lr}
20005482:	4c05      	ldr	r4, [pc, #20]	; (20005498 <usbd_control_set_request+0x18>)
20005484:	0001      	movs	r1, r0
20005486:	2208      	movs	r2, #8
20005488:	0020      	movs	r0, r4
2000548a:	f7fe fe05 	bl	20004098 <__wrap___aeabi_memcpy>
2000548e:	2300      	movs	r3, #0
20005490:	60a3      	str	r3, [r4, #8]
20005492:	60e3      	str	r3, [r4, #12]
20005494:	bd10      	pop	{r4, pc}
20005496:	46c0      	nop			; (mov r8, r8)
20005498:	2000b8c4 	.word	0x2000b8c4

2000549c <usbd_control_xfer_cb>:
2000549c:	b570      	push	{r4, r5, r6, lr}
2000549e:	4c39      	ldr	r4, [pc, #228]	; (20005584 <usbd_control_xfer_cb+0xe8>)
200054a0:	001d      	movs	r5, r3
200054a2:	7823      	ldrb	r3, [r4, #0]
200054a4:	0006      	movs	r6, r0
200054a6:	09da      	lsrs	r2, r3, #7
200054a8:	09c9      	lsrs	r1, r1, #7
200054aa:	428a      	cmp	r2, r1
200054ac:	d013      	beq.n	200054d6 <usbd_control_xfer_cb+0x3a>
200054ae:	2000      	movs	r0, #0
200054b0:	2d00      	cmp	r5, #0
200054b2:	d000      	beq.n	200054b6 <usbd_control_xfer_cb+0x1a>
200054b4:	bd70      	pop	{r4, r5, r6, pc}
200054b6:	4b34      	ldr	r3, [pc, #208]	; (20005588 <usbd_control_xfer_cb+0xec>)
200054b8:	2b00      	cmp	r3, #0
200054ba:	d003      	beq.n	200054c4 <usbd_control_xfer_cb+0x28>
200054bc:	0021      	movs	r1, r4
200054be:	0030      	movs	r0, r6
200054c0:	f7ff f8c4 	bl	2000464c <dcd_edpt0_status_complete>
200054c4:	6923      	ldr	r3, [r4, #16]
200054c6:	2b00      	cmp	r3, #0
200054c8:	d003      	beq.n	200054d2 <usbd_control_xfer_cb+0x36>
200054ca:	0022      	movs	r2, r4
200054cc:	2103      	movs	r1, #3
200054ce:	0030      	movs	r0, r6
200054d0:	4798      	blx	r3
200054d2:	2001      	movs	r0, #1
200054d4:	e7ee      	b.n	200054b4 <usbd_control_xfer_cb+0x18>
200054d6:	2b7f      	cmp	r3, #127	; 0x7f
200054d8:	d806      	bhi.n	200054e8 <usbd_control_xfer_cb+0x4c>
200054da:	68a0      	ldr	r0, [r4, #8]
200054dc:	2800      	cmp	r0, #0
200054de:	d034      	beq.n	2000554a <usbd_control_xfer_cb+0xae>
200054e0:	002a      	movs	r2, r5
200054e2:	492a      	ldr	r1, [pc, #168]	; (2000558c <usbd_control_xfer_cb+0xf0>)
200054e4:	f7fe fdd8 	bl	20004098 <__wrap___aeabi_memcpy>
200054e8:	89e2      	ldrh	r2, [r4, #14]
200054ea:	68a1      	ldr	r1, [r4, #8]
200054ec:	1952      	adds	r2, r2, r5
200054ee:	88e3      	ldrh	r3, [r4, #6]
200054f0:	b292      	uxth	r2, r2
200054f2:	1949      	adds	r1, r1, r5
200054f4:	81e2      	strh	r2, [r4, #14]
200054f6:	60a1      	str	r1, [r4, #8]
200054f8:	4293      	cmp	r3, r2
200054fa:	d014      	beq.n	20005526 <usbd_control_xfer_cb+0x8a>
200054fc:	2d3f      	cmp	r5, #63	; 0x3f
200054fe:	d912      	bls.n	20005526 <usbd_control_xfer_cb+0x8a>
20005500:	89a3      	ldrh	r3, [r4, #12]
20005502:	1a98      	subs	r0, r3, r2
20005504:	1c05      	adds	r5, r0, #0
20005506:	b280      	uxth	r0, r0
20005508:	2840      	cmp	r0, #64	; 0x40
2000550a:	d82a      	bhi.n	20005562 <usbd_control_xfer_cb+0xc6>
2000550c:	7820      	ldrb	r0, [r4, #0]
2000550e:	b2ad      	uxth	r5, r5
20005510:	287f      	cmp	r0, #127	; 0x7f
20005512:	d828      	bhi.n	20005566 <usbd_control_xfer_cb+0xca>
20005514:	2100      	movs	r1, #0
20005516:	429a      	cmp	r2, r3
20005518:	d032      	beq.n	20005580 <usbd_control_xfer_cb+0xe4>
2000551a:	4a1c      	ldr	r2, [pc, #112]	; (2000558c <usbd_control_xfer_cb+0xf0>)
2000551c:	002b      	movs	r3, r5
2000551e:	0030      	movs	r0, r6
20005520:	f7ff fefe 	bl	20005320 <usbd_edpt_xfer>
20005524:	e7c6      	b.n	200054b4 <usbd_control_xfer_cb+0x18>
20005526:	6923      	ldr	r3, [r4, #16]
20005528:	2b00      	cmp	r3, #0
2000552a:	d005      	beq.n	20005538 <usbd_control_xfer_cb+0x9c>
2000552c:	0022      	movs	r2, r4
2000552e:	2102      	movs	r1, #2
20005530:	0030      	movs	r0, r6
20005532:	4798      	blx	r3
20005534:	2800      	cmp	r0, #0
20005536:	d00a      	beq.n	2000554e <usbd_control_xfer_cb+0xb2>
20005538:	2180      	movs	r1, #128	; 0x80
2000553a:	7823      	ldrb	r3, [r4, #0]
2000553c:	2200      	movs	r2, #0
2000553e:	4399      	bics	r1, r3
20005540:	0030      	movs	r0, r6
20005542:	2300      	movs	r3, #0
20005544:	f7ff feec 	bl	20005320 <usbd_edpt_xfer>
20005548:	e7b4      	b.n	200054b4 <usbd_control_xfer_cb+0x18>
2000554a:	2000      	movs	r0, #0
2000554c:	e7b2      	b.n	200054b4 <usbd_control_xfer_cb+0x18>
2000554e:	2100      	movs	r1, #0
20005550:	0030      	movs	r0, r6
20005552:	f7ff f923 	bl	2000479c <dcd_edpt_stall>
20005556:	0030      	movs	r0, r6
20005558:	2180      	movs	r1, #128	; 0x80
2000555a:	f7ff f91f 	bl	2000479c <dcd_edpt_stall>
2000555e:	2001      	movs	r0, #1
20005560:	e7a8      	b.n	200054b4 <usbd_control_xfer_cb+0x18>
20005562:	2540      	movs	r5, #64	; 0x40
20005564:	e7d2      	b.n	2000550c <usbd_control_xfer_cb+0x70>
20005566:	429a      	cmp	r2, r3
20005568:	d007      	beq.n	2000557a <usbd_control_xfer_cb+0xde>
2000556a:	4c08      	ldr	r4, [pc, #32]	; (2000558c <usbd_control_xfer_cb+0xf0>)
2000556c:	002a      	movs	r2, r5
2000556e:	0020      	movs	r0, r4
20005570:	f7fe fd92 	bl	20004098 <__wrap___aeabi_memcpy>
20005574:	2180      	movs	r1, #128	; 0x80
20005576:	0022      	movs	r2, r4
20005578:	e7d0      	b.n	2000551c <usbd_control_xfer_cb+0x80>
2000557a:	2180      	movs	r1, #128	; 0x80
2000557c:	2200      	movs	r2, #0
2000557e:	e7cd      	b.n	2000551c <usbd_control_xfer_cb+0x80>
20005580:	2200      	movs	r2, #0
20005582:	e7cb      	b.n	2000551c <usbd_control_xfer_cb+0x80>
20005584:	2000b8c4 	.word	0x2000b8c4
20005588:	2000464d 	.word	0x2000464d
2000558c:	2000b9b0 	.word	0x2000b9b0

20005590 <tud_cdc_n_connected>:
20005590:	b510      	push	{r4, lr}
20005592:	0004      	movs	r4, r0
20005594:	f7ff f9ca 	bl	2000492c <tud_mounted>
20005598:	2800      	cmp	r0, #0
2000559a:	d101      	bne.n	200055a0 <tud_cdc_n_connected+0x10>
2000559c:	2000      	movs	r0, #0
2000559e:	bd10      	pop	{r4, pc}
200055a0:	f7ff f9cc 	bl	2000493c <tud_suspended>
200055a4:	2800      	cmp	r0, #0
200055a6:	d1f9      	bne.n	2000559c <tud_cdc_n_connected+0xc>
200055a8:	4a03      	ldr	r2, [pc, #12]	; (200055b8 <tud_cdc_n_connected+0x28>)
200055aa:	4b04      	ldr	r3, [pc, #16]	; (200055bc <tud_cdc_n_connected+0x2c>)
200055ac:	4362      	muls	r2, r4
200055ae:	189b      	adds	r3, r3, r2
200055b0:	791b      	ldrb	r3, [r3, #4]
200055b2:	3001      	adds	r0, #1
200055b4:	4018      	ands	r0, r3
200055b6:	e7f2      	b.n	2000559e <tud_cdc_n_connected+0xe>
200055b8:	00001148 	.word	0x00001148
200055bc:	2000a77c 	.word	0x2000a77c

200055c0 <tud_cdc_n_available>:
200055c0:	4b03      	ldr	r3, [pc, #12]	; (200055d0 <tud_cdc_n_available+0x10>)
200055c2:	b510      	push	{r4, lr}
200055c4:	4343      	muls	r3, r0
200055c6:	4803      	ldr	r0, [pc, #12]	; (200055d4 <tud_cdc_n_available+0x14>)
200055c8:	1818      	adds	r0, r3, r0
200055ca:	f000 fe55 	bl	20006278 <tu_fifo_count>
200055ce:	bd10      	pop	{r4, pc}
200055d0:	00001148 	.word	0x00001148
200055d4:	2000a78c 	.word	0x2000a78c

200055d8 <tud_cdc_n_read>:
200055d8:	b5f0      	push	{r4, r5, r6, r7, lr}
200055da:	4d19      	ldr	r5, [pc, #100]	; (20005640 <tud_cdc_n_read+0x68>)
200055dc:	46c6      	mov	lr, r8
200055de:	4345      	muls	r5, r0
200055e0:	002c      	movs	r4, r5
200055e2:	4f18      	ldr	r7, [pc, #96]	; (20005644 <tud_cdc_n_read+0x6c>)
200055e4:	3410      	adds	r4, #16
200055e6:	19e4      	adds	r4, r4, r7
200055e8:	b500      	push	{lr}
200055ea:	0020      	movs	r0, r4
200055ec:	b292      	uxth	r2, r2
200055ee:	f000 fec5 	bl	2000637c <tu_fifo_read_n>
200055f2:	0006      	movs	r6, r0
200055f4:	0020      	movs	r0, r4
200055f6:	f000 fe5d 	bl	200062b4 <tu_fifo_remaining>
200055fa:	283f      	cmp	r0, #63	; 0x3f
200055fc:	d803      	bhi.n	20005606 <tud_cdc_n_read+0x2e>
200055fe:	0030      	movs	r0, r6
20005600:	bc80      	pop	{r7}
20005602:	46b8      	mov	r8, r7
20005604:	bdf0      	pop	{r4, r5, r6, r7, pc}
20005606:	197b      	adds	r3, r7, r5
20005608:	2000      	movs	r0, #0
2000560a:	78d9      	ldrb	r1, [r3, #3]
2000560c:	4698      	mov	r8, r3
2000560e:	f7ff fe5f 	bl	200052d0 <usbd_edpt_claim>
20005612:	2800      	cmp	r0, #0
20005614:	d0f3      	beq.n	200055fe <tud_cdc_n_read+0x26>
20005616:	0020      	movs	r0, r4
20005618:	f000 fe4c 	bl	200062b4 <tu_fifo_remaining>
2000561c:	283f      	cmp	r0, #63	; 0x3f
2000561e:	d909      	bls.n	20005634 <tud_cdc_n_read+0x5c>
20005620:	4b09      	ldr	r3, [pc, #36]	; (20005648 <tud_cdc_n_read+0x70>)
20005622:	2000      	movs	r0, #0
20005624:	18ea      	adds	r2, r5, r3
20005626:	4643      	mov	r3, r8
20005628:	19d2      	adds	r2, r2, r7
2000562a:	78d9      	ldrb	r1, [r3, #3]
2000562c:	2340      	movs	r3, #64	; 0x40
2000562e:	f7ff fe77 	bl	20005320 <usbd_edpt_xfer>
20005632:	e7e4      	b.n	200055fe <tud_cdc_n_read+0x26>
20005634:	4643      	mov	r3, r8
20005636:	2000      	movs	r0, #0
20005638:	78d9      	ldrb	r1, [r3, #3]
2000563a:	f7ff fe5d 	bl	200052f8 <usbd_edpt_release>
2000563e:	e7de      	b.n	200055fe <tud_cdc_n_read+0x26>
20005640:	00001148 	.word	0x00001148
20005644:	2000a77c 	.word	0x2000a77c
20005648:	000010c8 	.word	0x000010c8

2000564c <tud_cdc_n_read_flush>:
2000564c:	b5f8      	push	{r3, r4, r5, r6, r7, lr}
2000564e:	4d14      	ldr	r5, [pc, #80]	; (200056a0 <tud_cdc_n_read_flush+0x54>)
20005650:	4e14      	ldr	r6, [pc, #80]	; (200056a4 <tud_cdc_n_read_flush+0x58>)
20005652:	4345      	muls	r5, r0
20005654:	002c      	movs	r4, r5
20005656:	3410      	adds	r4, #16
20005658:	19a4      	adds	r4, r4, r6
2000565a:	0020      	movs	r0, r4
2000565c:	f000 fffe 	bl	2000665c <tu_fifo_clear>
20005660:	0020      	movs	r0, r4
20005662:	f000 fe27 	bl	200062b4 <tu_fifo_remaining>
20005666:	283f      	cmp	r0, #63	; 0x3f
20005668:	d800      	bhi.n	2000566c <tud_cdc_n_read_flush+0x20>
2000566a:	bdf8      	pop	{r3, r4, r5, r6, r7, pc}
2000566c:	1977      	adds	r7, r6, r5
2000566e:	2000      	movs	r0, #0
20005670:	78f9      	ldrb	r1, [r7, #3]
20005672:	f7ff fe2d 	bl	200052d0 <usbd_edpt_claim>
20005676:	2800      	cmp	r0, #0
20005678:	d0f7      	beq.n	2000566a <tud_cdc_n_read_flush+0x1e>
2000567a:	0020      	movs	r0, r4
2000567c:	f000 fe1a 	bl	200062b4 <tu_fifo_remaining>
20005680:	283f      	cmp	r0, #63	; 0x3f
20005682:	d908      	bls.n	20005696 <tud_cdc_n_read_flush+0x4a>
20005684:	4b08      	ldr	r3, [pc, #32]	; (200056a8 <tud_cdc_n_read_flush+0x5c>)
20005686:	78f9      	ldrb	r1, [r7, #3]
20005688:	18ea      	adds	r2, r5, r3
2000568a:	1992      	adds	r2, r2, r6
2000568c:	2340      	movs	r3, #64	; 0x40
2000568e:	2000      	movs	r0, #0
20005690:	f7ff fe46 	bl	20005320 <usbd_edpt_xfer>
20005694:	e7e9      	b.n	2000566a <tud_cdc_n_read_flush+0x1e>
20005696:	78f9      	ldrb	r1, [r7, #3]
20005698:	2000      	movs	r0, #0
2000569a:	f7ff fe2d 	bl	200052f8 <usbd_edpt_release>
2000569e:	e7e4      	b.n	2000566a <tud_cdc_n_read_flush+0x1e>
200056a0:	00001148 	.word	0x00001148
200056a4:	2000a77c 	.word	0x2000a77c
200056a8:	000010c8 	.word	0x000010c8

200056ac <tud_cdc_n_write_flush>:
200056ac:	b5f8      	push	{r3, r4, r5, r6, r7, lr}
200056ae:	0004      	movs	r4, r0
200056b0:	f7ff f93c 	bl	2000492c <tud_mounted>
200056b4:	2800      	cmp	r0, #0
200056b6:	d101      	bne.n	200056bc <tud_cdc_n_write_flush+0x10>
200056b8:	2000      	movs	r0, #0
200056ba:	bdf8      	pop	{r3, r4, r5, r6, r7, pc}
200056bc:	f7ff f93e 	bl	2000493c <tud_suspended>
200056c0:	2800      	cmp	r0, #0
200056c2:	d1f9      	bne.n	200056b8 <tud_cdc_n_write_flush+0xc>
200056c4:	4b15      	ldr	r3, [pc, #84]	; (2000571c <tud_cdc_n_write_flush+0x70>)
200056c6:	4e16      	ldr	r6, [pc, #88]	; (20005720 <tud_cdc_n_write_flush+0x74>)
200056c8:	435c      	muls	r4, r3
200056ca:	0025      	movs	r5, r4
200056cc:	3524      	adds	r5, #36	; 0x24
200056ce:	19ad      	adds	r5, r5, r6
200056d0:	0028      	movs	r0, r5
200056d2:	f000 fdd1 	bl	20006278 <tu_fifo_count>
200056d6:	2800      	cmp	r0, #0
200056d8:	d0ee      	beq.n	200056b8 <tud_cdc_n_write_flush+0xc>
200056da:	1937      	adds	r7, r6, r4
200056dc:	2000      	movs	r0, #0
200056de:	78b9      	ldrb	r1, [r7, #2]
200056e0:	f7ff fdf6 	bl	200052d0 <usbd_edpt_claim>
200056e4:	2800      	cmp	r0, #0
200056e6:	d0e7      	beq.n	200056b8 <tud_cdc_n_write_flush+0xc>
200056e8:	4b0e      	ldr	r3, [pc, #56]	; (20005724 <tud_cdc_n_write_flush+0x78>)
200056ea:	0028      	movs	r0, r5
200056ec:	469c      	mov	ip, r3
200056ee:	4464      	add	r4, ip
200056f0:	19a4      	adds	r4, r4, r6
200056f2:	0021      	movs	r1, r4
200056f4:	2240      	movs	r2, #64	; 0x40
200056f6:	f000 fe41 	bl	2000637c <tu_fifo_read_n>
200056fa:	78b9      	ldrb	r1, [r7, #2]
200056fc:	1e05      	subs	r5, r0, #0
200056fe:	d008      	beq.n	20005712 <tud_cdc_n_write_flush+0x66>
20005700:	0003      	movs	r3, r0
20005702:	0022      	movs	r2, r4
20005704:	2000      	movs	r0, #0
20005706:	f7ff fe0b 	bl	20005320 <usbd_edpt_xfer>
2000570a:	2800      	cmp	r0, #0
2000570c:	d0d4      	beq.n	200056b8 <tud_cdc_n_write_flush+0xc>
2000570e:	0028      	movs	r0, r5
20005710:	e7d3      	b.n	200056ba <tud_cdc_n_write_flush+0xe>
20005712:	2000      	movs	r0, #0
20005714:	f7ff fdf0 	bl	200052f8 <usbd_edpt_release>
20005718:	e7ce      	b.n	200056b8 <tud_cdc_n_write_flush+0xc>
2000571a:	46c0      	nop			; (mov r8, r8)
2000571c:	00001148 	.word	0x00001148
20005720:	2000a77c 	.word	0x2000a77c
20005724:	00001108 	.word	0x00001108

20005728 <tud_cdc_n_write>:
20005728:	b570      	push	{r4, r5, r6, lr}
2000572a:	4c0a      	ldr	r4, [pc, #40]	; (20005754 <tud_cdc_n_write+0x2c>)
2000572c:	4b0a      	ldr	r3, [pc, #40]	; (20005758 <tud_cdc_n_write+0x30>)
2000572e:	4344      	muls	r4, r0
20005730:	18e4      	adds	r4, r4, r3
20005732:	0005      	movs	r5, r0
20005734:	b292      	uxth	r2, r2
20005736:	0020      	movs	r0, r4
20005738:	f000 fed8 	bl	200064ec <tu_fifo_write_n>
2000573c:	0006      	movs	r6, r0
2000573e:	0020      	movs	r0, r4
20005740:	f000 fd9a 	bl	20006278 <tu_fifo_count>
20005744:	283f      	cmp	r0, #63	; 0x3f
20005746:	d801      	bhi.n	2000574c <tud_cdc_n_write+0x24>
20005748:	0030      	movs	r0, r6
2000574a:	bd70      	pop	{r4, r5, r6, pc}
2000574c:	0028      	movs	r0, r5
2000574e:	f7ff ffad 	bl	200056ac <tud_cdc_n_write_flush>
20005752:	e7f9      	b.n	20005748 <tud_cdc_n_write+0x20>
20005754:	00001148 	.word	0x00001148
20005758:	2000a7a0 	.word	0x2000a7a0

2000575c <tud_cdc_n_write_available>:
2000575c:	4b03      	ldr	r3, [pc, #12]	; (2000576c <tud_cdc_n_write_available+0x10>)
2000575e:	b510      	push	{r4, lr}
20005760:	4343      	muls	r3, r0
20005762:	4803      	ldr	r0, [pc, #12]	; (20005770 <tud_cdc_n_write_available+0x14>)
20005764:	1818      	adds	r0, r3, r0
20005766:	f000 fda5 	bl	200062b4 <tu_fifo_remaining>
2000576a:	bd10      	pop	{r4, pc}
2000576c:	00001148 	.word	0x00001148
20005770:	2000a7a0 	.word	0x2000a7a0

20005774 <tud_cdc_n_write_clear>:
20005774:	4b03      	ldr	r3, [pc, #12]	; (20005784 <tud_cdc_n_write_clear+0x10>)
20005776:	b510      	push	{r4, lr}
20005778:	4343      	muls	r3, r0
2000577a:	4803      	ldr	r0, [pc, #12]	; (20005788 <tud_cdc_n_write_clear+0x14>)
2000577c:	1818      	adds	r0, r3, r0
2000577e:	f000 ff6d 	bl	2000665c <tu_fifo_clear>
20005782:	bd10      	pop	{r4, pc}
20005784:	00001148 	.word	0x00001148
20005788:	2000a7a0 	.word	0x2000a7a0

2000578c <cdcd_init>:
2000578c:	b570      	push	{r4, r5, r6, lr}
2000578e:	4c1a      	ldr	r4, [pc, #104]	; (200057f8 <cdcd_init+0x6c>)
20005790:	b082      	sub	sp, #8
20005792:	2100      	movs	r1, #0
20005794:	0020      	movs	r0, r4
20005796:	4a19      	ldr	r2, [pc, #100]	; (200057fc <cdcd_init+0x70>)
20005798:	f7fe fc78 	bl	2000408c <__wrap_memset>
2000579c:	23ff      	movs	r3, #255	; 0xff
2000579e:	7163      	strb	r3, [r4, #5]
200057a0:	4b17      	ldr	r3, [pc, #92]	; (20005800 <cdcd_init+0x74>)
200057a2:	2500      	movs	r5, #0
200057a4:	80e3      	strh	r3, [r4, #6]
200057a6:	2601      	movs	r6, #1
200057a8:	2308      	movs	r3, #8
200057aa:	0021      	movs	r1, r4
200057ac:	0020      	movs	r0, r4
200057ae:	8126      	strh	r6, [r4, #8]
200057b0:	7323      	strb	r3, [r4, #12]
200057b2:	2280      	movs	r2, #128	; 0x80
200057b4:	3138      	adds	r1, #56	; 0x38
200057b6:	9500      	str	r5, [sp, #0]
200057b8:	3b07      	subs	r3, #7
200057ba:	3010      	adds	r0, #16
200057bc:	f000 fd26 	bl	2000620c <tu_fifo_config>
200057c0:	0021      	movs	r1, r4
200057c2:	0020      	movs	r0, r4
200057c4:	2280      	movs	r2, #128	; 0x80
200057c6:	31b8      	adds	r1, #184	; 0xb8
200057c8:	0152      	lsls	r2, r2, #5
200057ca:	9600      	str	r6, [sp, #0]
200057cc:	2301      	movs	r3, #1
200057ce:	3024      	adds	r0, #36	; 0x24
200057d0:	f000 fd1c 	bl	2000620c <tu_fifo_config>
200057d4:	4b0b      	ldr	r3, [pc, #44]	; (20005804 <cdcd_init+0x78>)
200057d6:	18e6      	adds	r6, r4, r3
200057d8:	0030      	movs	r0, r6
200057da:	f7fc fae7 	bl	20001dac <mutex_init>
200057de:	2386      	movs	r3, #134	; 0x86
200057e0:	015b      	lsls	r3, r3, #5
200057e2:	6226      	str	r6, [r4, #32]
200057e4:	18e6      	adds	r6, r4, r3
200057e6:	0030      	movs	r0, r6
200057e8:	61e5      	str	r5, [r4, #28]
200057ea:	f7fc fadf 	bl	20001dac <mutex_init>
200057ee:	6326      	str	r6, [r4, #48]	; 0x30
200057f0:	6365      	str	r5, [r4, #52]	; 0x34
200057f2:	b002      	add	sp, #8
200057f4:	bd70      	pop	{r4, r5, r6, pc}
200057f6:	46c0      	nop			; (mov r8, r8)
200057f8:	2000a77c 	.word	0x2000a77c
200057fc:	00001148 	.word	0x00001148
20005800:	ffffc200 	.word	0xffffc200
20005804:	000010b8 	.word	0x000010b8

20005808 <cdcd_reset>:
20005808:	b510      	push	{r4, lr}
2000580a:	4c09      	ldr	r4, [pc, #36]	; (20005830 <cdcd_reset+0x28>)
2000580c:	2205      	movs	r2, #5
2000580e:	2100      	movs	r1, #0
20005810:	0020      	movs	r0, r4
20005812:	f7fe fc3b 	bl	2000408c <__wrap_memset>
20005816:	0020      	movs	r0, r4
20005818:	3424      	adds	r4, #36	; 0x24
2000581a:	3010      	adds	r0, #16
2000581c:	f000 ff1e 	bl	2000665c <tu_fifo_clear>
20005820:	0020      	movs	r0, r4
20005822:	f000 ff1b 	bl	2000665c <tu_fifo_clear>
20005826:	2101      	movs	r1, #1
20005828:	0020      	movs	r0, r4
2000582a:	f000 ff37 	bl	2000669c <tu_fifo_set_overwritable>
2000582e:	bd10      	pop	{r4, pc}
20005830:	2000a77c 	.word	0x2000a77c

20005834 <cdcd_open>:
20005834:	b5f0      	push	{r4, r5, r6, r7, lr}
20005836:	794b      	ldrb	r3, [r1, #5]
20005838:	0006      	movs	r6, r0
2000583a:	b083      	sub	sp, #12
2000583c:	2b02      	cmp	r3, #2
2000583e:	d102      	bne.n	20005846 <cdcd_open+0x12>
20005840:	798b      	ldrb	r3, [r1, #6]
20005842:	2b02      	cmp	r3, #2
20005844:	d003      	beq.n	2000584e <cdcd_open+0x1a>
20005846:	2500      	movs	r5, #0
20005848:	0028      	movs	r0, r5
2000584a:	b003      	add	sp, #12
2000584c:	bdf0      	pop	{r4, r5, r6, r7, pc}
2000584e:	4f2e      	ldr	r7, [pc, #184]	; (20005908 <cdcd_open+0xd4>)
20005850:	78bb      	ldrb	r3, [r7, #2]
20005852:	2b00      	cmp	r3, #0
20005854:	d1f7      	bne.n	20005846 <cdcd_open+0x12>
20005856:	788b      	ldrb	r3, [r1, #2]
20005858:	2509      	movs	r5, #9
2000585a:	703b      	strb	r3, [r7, #0]
2000585c:	780c      	ldrb	r4, [r1, #0]
2000585e:	190c      	adds	r4, r1, r4
20005860:	7863      	ldrb	r3, [r4, #1]
20005862:	2b24      	cmp	r3, #36	; 0x24
20005864:	d10b      	bne.n	2000587e <cdcd_open+0x4a>
20005866:	2a08      	cmp	r2, #8
20005868:	d802      	bhi.n	20005870 <cdcd_open+0x3c>
2000586a:	e01f      	b.n	200058ac <cdcd_open+0x78>
2000586c:	42aa      	cmp	r2, r5
2000586e:	d31d      	bcc.n	200058ac <cdcd_open+0x78>
20005870:	7823      	ldrb	r3, [r4, #0]
20005872:	18e4      	adds	r4, r4, r3
20005874:	195d      	adds	r5, r3, r5
20005876:	7863      	ldrb	r3, [r4, #1]
20005878:	b2ad      	uxth	r5, r5
2000587a:	2b24      	cmp	r3, #36	; 0x24
2000587c:	d0f6      	beq.n	2000586c <cdcd_open+0x38>
2000587e:	2b05      	cmp	r3, #5
20005880:	d02f      	beq.n	200058e2 <cdcd_open+0xae>
20005882:	2b04      	cmp	r3, #4
20005884:	d112      	bne.n	200058ac <cdcd_open+0x78>
20005886:	7963      	ldrb	r3, [r4, #5]
20005888:	2b0a      	cmp	r3, #10
2000588a:	d10f      	bne.n	200058ac <cdcd_open+0x78>
2000588c:	4b1f      	ldr	r3, [pc, #124]	; (2000590c <cdcd_open+0xd8>)
2000588e:	7827      	ldrb	r7, [r4, #0]
20005890:	9301      	str	r3, [sp, #4]
20005892:	3301      	adds	r3, #1
20005894:	9300      	str	r3, [sp, #0]
20005896:	2202      	movs	r2, #2
20005898:	2302      	movs	r3, #2
2000589a:	0030      	movs	r0, r6
2000589c:	19e1      	adds	r1, r4, r7
2000589e:	f7ff fcaf 	bl	20005200 <usbd_open_edpt_pair>
200058a2:	2800      	cmp	r0, #0
200058a4:	d0cf      	beq.n	20005846 <cdcd_open+0x12>
200058a6:	350e      	adds	r5, #14
200058a8:	19ed      	adds	r5, r5, r7
200058aa:	b2ad      	uxth	r5, r5
200058ac:	4c18      	ldr	r4, [pc, #96]	; (20005910 <cdcd_open+0xdc>)
200058ae:	0020      	movs	r0, r4
200058b0:	f000 fd00 	bl	200062b4 <tu_fifo_remaining>
200058b4:	283f      	cmp	r0, #63	; 0x3f
200058b6:	d9c7      	bls.n	20005848 <cdcd_open+0x14>
200058b8:	0026      	movs	r6, r4
200058ba:	3e10      	subs	r6, #16
200058bc:	2000      	movs	r0, #0
200058be:	78f1      	ldrb	r1, [r6, #3]
200058c0:	f7ff fd06 	bl	200052d0 <usbd_edpt_claim>
200058c4:	2800      	cmp	r0, #0
200058c6:	d0bf      	beq.n	20005848 <cdcd_open+0x14>
200058c8:	0020      	movs	r0, r4
200058ca:	f000 fcf3 	bl	200062b4 <tu_fifo_remaining>
200058ce:	283f      	cmp	r0, #63	; 0x3f
200058d0:	d915      	bls.n	200058fe <cdcd_open+0xca>
200058d2:	4b10      	ldr	r3, [pc, #64]	; (20005914 <cdcd_open+0xe0>)
200058d4:	78f1      	ldrb	r1, [r6, #3]
200058d6:	18e2      	adds	r2, r4, r3
200058d8:	2000      	movs	r0, #0
200058da:	2340      	movs	r3, #64	; 0x40
200058dc:	f7ff fd20 	bl	20005320 <usbd_edpt_xfer>
200058e0:	e7b2      	b.n	20005848 <cdcd_open+0x14>
200058e2:	0021      	movs	r1, r4
200058e4:	0030      	movs	r0, r6
200058e6:	f7ff fcd9 	bl	2000529c <usbd_edpt_open>
200058ea:	2800      	cmp	r0, #0
200058ec:	d0ab      	beq.n	20005846 <cdcd_open+0x12>
200058ee:	78a3      	ldrb	r3, [r4, #2]
200058f0:	707b      	strb	r3, [r7, #1]
200058f2:	7823      	ldrb	r3, [r4, #0]
200058f4:	195d      	adds	r5, r3, r5
200058f6:	18e4      	adds	r4, r4, r3
200058f8:	7863      	ldrb	r3, [r4, #1]
200058fa:	b2ad      	uxth	r5, r5
200058fc:	e7c1      	b.n	20005882 <cdcd_open+0x4e>
200058fe:	78f1      	ldrb	r1, [r6, #3]
20005900:	2000      	movs	r0, #0
20005902:	f7ff fcf9 	bl	200052f8 <usbd_edpt_release>
20005906:	e79f      	b.n	20005848 <cdcd_open+0x14>
20005908:	2000a77c 	.word	0x2000a77c
2000590c:	2000a77e 	.word	0x2000a77e
20005910:	2000a78c 	.word	0x2000a78c
20005914:	000010b8 	.word	0x000010b8

20005918 <cdcd_control_xfer_cb>:
20005918:	b5f8      	push	{r3, r4, r5, r6, r7, lr}
2000591a:	2360      	movs	r3, #96	; 0x60
2000591c:	0014      	movs	r4, r2
2000591e:	7812      	ldrb	r2, [r2, #0]
20005920:	0005      	movs	r5, r0
20005922:	4013      	ands	r3, r2
20005924:	2000      	movs	r0, #0
20005926:	2b20      	cmp	r3, #32
20005928:	d112      	bne.n	20005950 <cdcd_control_xfer_cb+0x38>
2000592a:	4a2f      	ldr	r2, [pc, #188]	; (200059e8 <cdcd_control_xfer_cb+0xd0>)
2000592c:	7963      	ldrb	r3, [r4, #5]
2000592e:	7927      	ldrb	r7, [r4, #4]
20005930:	7816      	ldrb	r6, [r2, #0]
20005932:	021b      	lsls	r3, r3, #8
20005934:	433b      	orrs	r3, r7
20005936:	429e      	cmp	r6, r3
20005938:	d10a      	bne.n	20005950 <cdcd_control_xfer_cb+0x38>
2000593a:	7863      	ldrb	r3, [r4, #1]
2000593c:	2b22      	cmp	r3, #34	; 0x22
2000593e:	d027      	beq.n	20005990 <cdcd_control_xfer_cb+0x78>
20005940:	d807      	bhi.n	20005952 <cdcd_control_xfer_cb+0x3a>
20005942:	2b20      	cmp	r3, #32
20005944:	d017      	beq.n	20005976 <cdcd_control_xfer_cb+0x5e>
20005946:	2b21      	cmp	r3, #33	; 0x21
20005948:	d102      	bne.n	20005950 <cdcd_control_xfer_cb+0x38>
2000594a:	2901      	cmp	r1, #1
2000594c:	d03d      	beq.n	200059ca <cdcd_control_xfer_cb+0xb2>
2000594e:	2001      	movs	r0, #1
20005950:	bdf8      	pop	{r3, r4, r5, r6, r7, pc}
20005952:	2b23      	cmp	r3, #35	; 0x23
20005954:	d1fc      	bne.n	20005950 <cdcd_control_xfer_cb+0x38>
20005956:	2901      	cmp	r1, #1
20005958:	d03f      	beq.n	200059da <cdcd_control_xfer_cb+0xc2>
2000595a:	2903      	cmp	r1, #3
2000595c:	d1f7      	bne.n	2000594e <cdcd_control_xfer_cb+0x36>
2000595e:	4b23      	ldr	r3, [pc, #140]	; (200059ec <cdcd_control_xfer_cb+0xd4>)
20005960:	2b00      	cmp	r3, #0
20005962:	d0f4      	beq.n	2000594e <cdcd_control_xfer_cb+0x36>
20005964:	78e1      	ldrb	r1, [r4, #3]
20005966:	78a3      	ldrb	r3, [r4, #2]
20005968:	0209      	lsls	r1, r1, #8
2000596a:	2000      	movs	r0, #0
2000596c:	4319      	orrs	r1, r3
2000596e:	f7fa fff9 	bl	20000964 <tud_cdc_send_break_cb>
20005972:	2001      	movs	r0, #1
20005974:	e7ec      	b.n	20005950 <cdcd_control_xfer_cb+0x38>
20005976:	2901      	cmp	r1, #1
20005978:	d027      	beq.n	200059ca <cdcd_control_xfer_cb+0xb2>
2000597a:	2903      	cmp	r1, #3
2000597c:	d1e7      	bne.n	2000594e <cdcd_control_xfer_cb+0x36>
2000597e:	4b1c      	ldr	r3, [pc, #112]	; (200059f0 <cdcd_control_xfer_cb+0xd8>)
20005980:	2b00      	cmp	r3, #0
20005982:	d0e4      	beq.n	2000594e <cdcd_control_xfer_cb+0x36>
20005984:	2000      	movs	r0, #0
20005986:	1d91      	adds	r1, r2, #6
20005988:	f7fa ff5e 	bl	20000848 <tud_cdc_line_coding_cb>
2000598c:	2001      	movs	r0, #1
2000598e:	e7df      	b.n	20005950 <cdcd_control_xfer_cb+0x38>
20005990:	2901      	cmp	r1, #1
20005992:	d022      	beq.n	200059da <cdcd_control_xfer_cb+0xc2>
20005994:	2903      	cmp	r1, #3
20005996:	d1da      	bne.n	2000594e <cdcd_control_xfer_cb+0x36>
20005998:	2501      	movs	r5, #1
2000599a:	002e      	movs	r6, r5
2000599c:	78a3      	ldrb	r3, [r4, #2]
2000599e:	78e4      	ldrb	r4, [r4, #3]
200059a0:	3902      	subs	r1, #2
200059a2:	0224      	lsls	r4, r4, #8
200059a4:	431c      	orrs	r4, r3
200059a6:	7114      	strb	r4, [r2, #4]
200059a8:	4026      	ands	r6, r4
200059aa:	3224      	adds	r2, #36	; 0x24
200059ac:	0010      	movs	r0, r2
200059ae:	4071      	eors	r1, r6
200059b0:	f000 fe74 	bl	2000669c <tu_fifo_set_overwritable>
200059b4:	4b0f      	ldr	r3, [pc, #60]	; (200059f4 <cdcd_control_xfer_cb+0xdc>)
200059b6:	2b00      	cmp	r3, #0
200059b8:	d0c9      	beq.n	2000594e <cdcd_control_xfer_cb+0x36>
200059ba:	0862      	lsrs	r2, r4, #1
200059bc:	2000      	movs	r0, #0
200059be:	0031      	movs	r1, r6
200059c0:	402a      	ands	r2, r5
200059c2:	f7fa ffaf 	bl	20000924 <tud_cdc_line_state_cb>
200059c6:	2001      	movs	r0, #1
200059c8:	e7c2      	b.n	20005950 <cdcd_control_xfer_cb+0x38>
200059ca:	2307      	movs	r3, #7
200059cc:	0021      	movs	r1, r4
200059ce:	0028      	movs	r0, r5
200059d0:	4a09      	ldr	r2, [pc, #36]	; (200059f8 <cdcd_control_xfer_cb+0xe0>)
200059d2:	f7ff fcef 	bl	200053b4 <tud_control_xfer>
200059d6:	2001      	movs	r0, #1
200059d8:	e7ba      	b.n	20005950 <cdcd_control_xfer_cb+0x38>
200059da:	0021      	movs	r1, r4
200059dc:	0028      	movs	r0, r5
200059de:	f7ff fcd3 	bl	20005388 <tud_control_status>
200059e2:	2001      	movs	r0, #1
200059e4:	e7b4      	b.n	20005950 <cdcd_control_xfer_cb+0x38>
200059e6:	46c0      	nop			; (mov r8, r8)
200059e8:	2000a77c 	.word	0x2000a77c
200059ec:	20000965 	.word	0x20000965
200059f0:	20000849 	.word	0x20000849
200059f4:	20000925 	.word	0x20000925
200059f8:	2000a782 	.word	0x2000a782

200059fc <cdcd_xfer_cb>:
200059fc:	b5f8      	push	{r3, r4, r5, r6, r7, lr}
200059fe:	4645      	mov	r5, r8
20005a00:	4657      	mov	r7, sl
20005a02:	46de      	mov	lr, fp
20005a04:	464e      	mov	r6, r9
20005a06:	b5e0      	push	{r5, r6, r7, lr}
20005a08:	4d45      	ldr	r5, [pc, #276]	; (20005b20 <cdcd_xfer_cb+0x124>)
20005a0a:	001f      	movs	r7, r3
20005a0c:	78ea      	ldrb	r2, [r5, #3]
20005a0e:	4680      	mov	r8, r0
20005a10:	000c      	movs	r4, r1
20005a12:	78ab      	ldrb	r3, [r5, #2]
20005a14:	428a      	cmp	r2, r1
20005a16:	d046      	beq.n	20005aa6 <cdcd_xfer_cb+0xaa>
20005a18:	2000      	movs	r0, #0
20005a1a:	428b      	cmp	r3, r1
20005a1c:	d01a      	beq.n	20005a54 <cdcd_xfer_cb+0x58>
20005a1e:	bcf0      	pop	{r4, r5, r6, r7}
20005a20:	46bb      	mov	fp, r7
20005a22:	46b2      	mov	sl, r6
20005a24:	46a9      	mov	r9, r5
20005a26:	46a0      	mov	r8, r4
20005a28:	bdf8      	pop	{r3, r4, r5, r6, r7, pc}
20005a2a:	4b3e      	ldr	r3, [pc, #248]	; (20005b24 <cdcd_xfer_cb+0x128>)
20005a2c:	2b00      	cmp	r3, #0
20005a2e:	d004      	beq.n	20005a3a <cdcd_xfer_cb+0x3e>
20005a30:	4648      	mov	r0, r9
20005a32:	f000 fc37 	bl	200062a4 <tu_fifo_empty>
20005a36:	2800      	cmp	r0, #0
20005a38:	d06a      	beq.n	20005b10 <cdcd_xfer_cb+0x114>
20005a3a:	4648      	mov	r0, r9
20005a3c:	f000 fc3a 	bl	200062b4 <tu_fifo_remaining>
20005a40:	283f      	cmp	r0, #63	; 0x3f
20005a42:	d907      	bls.n	20005a54 <cdcd_xfer_cb+0x58>
20005a44:	464e      	mov	r6, r9
20005a46:	3e10      	subs	r6, #16
20005a48:	2000      	movs	r0, #0
20005a4a:	78f1      	ldrb	r1, [r6, #3]
20005a4c:	f7ff fc40 	bl	200052d0 <usbd_edpt_claim>
20005a50:	2800      	cmp	r0, #0
20005a52:	d150      	bne.n	20005af6 <cdcd_xfer_cb+0xfa>
20005a54:	78ab      	ldrb	r3, [r5, #2]
20005a56:	42a3      	cmp	r3, r4
20005a58:	d001      	beq.n	20005a5e <cdcd_xfer_cb+0x62>
20005a5a:	2001      	movs	r0, #1
20005a5c:	e7df      	b.n	20005a1e <cdcd_xfer_cb+0x22>
20005a5e:	4b32      	ldr	r3, [pc, #200]	; (20005b28 <cdcd_xfer_cb+0x12c>)
20005a60:	2b00      	cmp	r3, #0
20005a62:	d002      	beq.n	20005a6a <cdcd_xfer_cb+0x6e>
20005a64:	2000      	movs	r0, #0
20005a66:	e000      	b.n	20005a6a <cdcd_xfer_cb+0x6e>
20005a68:	bf00      	nop
20005a6a:	2000      	movs	r0, #0
20005a6c:	f7ff fe1e 	bl	200056ac <tud_cdc_n_write_flush>
20005a70:	2800      	cmp	r0, #0
20005a72:	d1f2      	bne.n	20005a5a <cdcd_xfer_cb+0x5e>
20005a74:	4c2d      	ldr	r4, [pc, #180]	; (20005b2c <cdcd_xfer_cb+0x130>)
20005a76:	0020      	movs	r0, r4
20005a78:	f000 fbfe 	bl	20006278 <tu_fifo_count>
20005a7c:	2800      	cmp	r0, #0
20005a7e:	d1ec      	bne.n	20005a5a <cdcd_xfer_cb+0x5e>
20005a80:	2f00      	cmp	r7, #0
20005a82:	d0ea      	beq.n	20005a5a <cdcd_xfer_cb+0x5e>
20005a84:	06bf      	lsls	r7, r7, #26
20005a86:	d1e8      	bne.n	20005a5a <cdcd_xfer_cb+0x5e>
20005a88:	3c24      	subs	r4, #36	; 0x24
20005a8a:	4640      	mov	r0, r8
20005a8c:	78a1      	ldrb	r1, [r4, #2]
20005a8e:	f7ff fc1f 	bl	200052d0 <usbd_edpt_claim>
20005a92:	2800      	cmp	r0, #0
20005a94:	d0e1      	beq.n	20005a5a <cdcd_xfer_cb+0x5e>
20005a96:	2300      	movs	r3, #0
20005a98:	2200      	movs	r2, #0
20005a9a:	4640      	mov	r0, r8
20005a9c:	78a1      	ldrb	r1, [r4, #2]
20005a9e:	f7ff fc3f 	bl	20005320 <usbd_edpt_xfer>
20005aa2:	2001      	movs	r0, #1
20005aa4:	e7bb      	b.n	20005a1e <cdcd_xfer_cb+0x22>
20005aa6:	4b22      	ldr	r3, [pc, #136]	; (20005b30 <cdcd_xfer_cb+0x134>)
20005aa8:	b2ba      	uxth	r2, r7
20005aaa:	18ee      	adds	r6, r5, r3
20005aac:	2310      	movs	r3, #16
20005aae:	469b      	mov	fp, r3
20005ab0:	44ab      	add	fp, r5
20005ab2:	0031      	movs	r1, r6
20005ab4:	4658      	mov	r0, fp
20005ab6:	f000 fd19 	bl	200064ec <tu_fifo_write_n>
20005aba:	4b1e      	ldr	r3, [pc, #120]	; (20005b34 <cdcd_xfer_cb+0x138>)
20005abc:	46d9      	mov	r9, fp
20005abe:	2b00      	cmp	r3, #0
20005ac0:	d0b3      	beq.n	20005a2a <cdcd_xfer_cb+0x2e>
20005ac2:	796b      	ldrb	r3, [r5, #5]
20005ac4:	2bff      	cmp	r3, #255	; 0xff
20005ac6:	d0b0      	beq.n	20005a2a <cdcd_xfer_cb+0x2e>
20005ac8:	2f00      	cmp	r7, #0
20005aca:	d0ae      	beq.n	20005a2a <cdcd_xfer_cb+0x2e>
20005acc:	19f2      	adds	r2, r6, r7
20005ace:	4692      	mov	sl, r2
20005ad0:	e003      	b.n	20005ada <cdcd_xfer_cb+0xde>
20005ad2:	3601      	adds	r6, #1
20005ad4:	45b2      	cmp	sl, r6
20005ad6:	d0a8      	beq.n	20005a2a <cdcd_xfer_cb+0x2e>
20005ad8:	796b      	ldrb	r3, [r5, #5]
20005ada:	7832      	ldrb	r2, [r6, #0]
20005adc:	429a      	cmp	r2, r3
20005ade:	d1f8      	bne.n	20005ad2 <cdcd_xfer_cb+0xd6>
20005ae0:	4648      	mov	r0, r9
20005ae2:	f000 fbdf 	bl	200062a4 <tu_fifo_empty>
20005ae6:	2800      	cmp	r0, #0
20005ae8:	d1f3      	bne.n	20005ad2 <cdcd_xfer_cb+0xd6>
20005aea:	464b      	mov	r3, r9
20005aec:	3b10      	subs	r3, #16
20005aee:	7959      	ldrb	r1, [r3, #5]
20005af0:	e000      	b.n	20005af4 <cdcd_xfer_cb+0xf8>
20005af2:	bf00      	nop
20005af4:	e7ed      	b.n	20005ad2 <cdcd_xfer_cb+0xd6>
20005af6:	4648      	mov	r0, r9
20005af8:	f000 fbdc 	bl	200062b4 <tu_fifo_remaining>
20005afc:	283f      	cmp	r0, #63	; 0x3f
20005afe:	d90a      	bls.n	20005b16 <cdcd_xfer_cb+0x11a>
20005b00:	4a0d      	ldr	r2, [pc, #52]	; (20005b38 <cdcd_xfer_cb+0x13c>)
20005b02:	2340      	movs	r3, #64	; 0x40
20005b04:	78f1      	ldrb	r1, [r6, #3]
20005b06:	444a      	add	r2, r9
20005b08:	2000      	movs	r0, #0
20005b0a:	f7ff fc09 	bl	20005320 <usbd_edpt_xfer>
20005b0e:	e7a1      	b.n	20005a54 <cdcd_xfer_cb+0x58>
20005b10:	e000      	b.n	20005b14 <cdcd_xfer_cb+0x118>
20005b12:	bf00      	nop
20005b14:	e791      	b.n	20005a3a <cdcd_xfer_cb+0x3e>
20005b16:	78f1      	ldrb	r1, [r6, #3]
20005b18:	2000      	movs	r0, #0
20005b1a:	f7ff fbed 	bl	200052f8 <usbd_edpt_release>
20005b1e:	e799      	b.n	20005a54 <cdcd_xfer_cb+0x58>
20005b20:	2000a77c 	.word	0x2000a77c
	...
20005b2c:	2000a7a0 	.word	0x2000a7a0
20005b30:	000010c8 	.word	0x000010c8
20005b34:	00000000 	.word	0x00000000
20005b38:	000010b8 	.word	0x000010b8

20005b3c <tud_hid_n_report>:
20005b3c:	b5f8      	push	{r3, r4, r5, r6, r7, lr}
20005b3e:	248c      	movs	r4, #140	; 0x8c
20005b40:	4647      	mov	r7, r8
20005b42:	46ce      	mov	lr, r9
20005b44:	4344      	muls	r4, r0
20005b46:	4e20      	ldr	r6, [pc, #128]	; (20005bc8 <tud_hid_n_report+0x8c>)
20005b48:	b580      	push	{r7, lr}
20005b4a:	1934      	adds	r4, r6, r4
20005b4c:	0005      	movs	r5, r0
20005b4e:	4689      	mov	r9, r1
20005b50:	2000      	movs	r0, #0
20005b52:	7861      	ldrb	r1, [r4, #1]
20005b54:	4690      	mov	r8, r2
20005b56:	001f      	movs	r7, r3
20005b58:	f7ff fbba 	bl	200052d0 <usbd_edpt_claim>
20005b5c:	2800      	cmp	r0, #0
20005b5e:	d01d      	beq.n	20005b9c <tud_hid_n_report+0x60>
20005b60:	464b      	mov	r3, r9
20005b62:	2b00      	cmp	r3, #0
20005b64:	d01e      	beq.n	20005ba4 <tud_hid_n_report+0x68>
20005b66:	1c3b      	adds	r3, r7, #0
20005b68:	2f3f      	cmp	r7, #63	; 0x3f
20005b6a:	d829      	bhi.n	20005bc0 <tud_hid_n_report+0x84>
20005b6c:	248c      	movs	r4, #140	; 0x8c
20005b6e:	464a      	mov	r2, r9
20005b70:	436c      	muls	r4, r5
20005b72:	b29f      	uxth	r7, r3
20005b74:	1933      	adds	r3, r6, r4
20005b76:	3408      	adds	r4, #8
20005b78:	1934      	adds	r4, r6, r4
20005b7a:	721a      	strb	r2, [r3, #8]
20005b7c:	4641      	mov	r1, r8
20005b7e:	003a      	movs	r2, r7
20005b80:	1c60      	adds	r0, r4, #1
20005b82:	f7fe fa89 	bl	20004098 <__wrap___aeabi_memcpy>
20005b86:	3701      	adds	r7, #1
20005b88:	b2bf      	uxth	r7, r7
20005b8a:	238c      	movs	r3, #140	; 0x8c
20005b8c:	436b      	muls	r3, r5
20005b8e:	18f6      	adds	r6, r6, r3
20005b90:	0022      	movs	r2, r4
20005b92:	003b      	movs	r3, r7
20005b94:	2000      	movs	r0, #0
20005b96:	7871      	ldrb	r1, [r6, #1]
20005b98:	f7ff fbc2 	bl	20005320 <usbd_edpt_xfer>
20005b9c:	bcc0      	pop	{r6, r7}
20005b9e:	46b9      	mov	r9, r7
20005ba0:	46b0      	mov	r8, r6
20005ba2:	bdf8      	pop	{r3, r4, r5, r6, r7, pc}
20005ba4:	1c3b      	adds	r3, r7, #0
20005ba6:	2f40      	cmp	r7, #64	; 0x40
20005ba8:	d80c      	bhi.n	20005bc4 <tud_hid_n_report+0x88>
20005baa:	248c      	movs	r4, #140	; 0x8c
20005bac:	436c      	muls	r4, r5
20005bae:	3408      	adds	r4, #8
20005bb0:	b29f      	uxth	r7, r3
20005bb2:	1934      	adds	r4, r6, r4
20005bb4:	003a      	movs	r2, r7
20005bb6:	4641      	mov	r1, r8
20005bb8:	0020      	movs	r0, r4
20005bba:	f7fe fa6d 	bl	20004098 <__wrap___aeabi_memcpy>
20005bbe:	e7e4      	b.n	20005b8a <tud_hid_n_report+0x4e>
20005bc0:	233f      	movs	r3, #63	; 0x3f
20005bc2:	e7d3      	b.n	20005b6c <tud_hid_n_report+0x30>
20005bc4:	2340      	movs	r3, #64	; 0x40
20005bc6:	e7f0      	b.n	20005baa <tud_hid_n_report+0x6e>
20005bc8:	2000b918 	.word	0x2000b918

20005bcc <hidd_init>:
20005bcc:	b510      	push	{r4, lr}
20005bce:	228c      	movs	r2, #140	; 0x8c
20005bd0:	2100      	movs	r1, #0
20005bd2:	4802      	ldr	r0, [pc, #8]	; (20005bdc <hidd_init+0x10>)
20005bd4:	f7fe fa5a 	bl	2000408c <__wrap_memset>
20005bd8:	bd10      	pop	{r4, pc}
20005bda:	46c0      	nop			; (mov r8, r8)
20005bdc:	2000b918 	.word	0x2000b918

20005be0 <hidd_reset>:
20005be0:	b510      	push	{r4, lr}
20005be2:	228c      	movs	r2, #140	; 0x8c
20005be4:	2100      	movs	r1, #0
20005be6:	4802      	ldr	r0, [pc, #8]	; (20005bf0 <hidd_reset+0x10>)
20005be8:	f7fe fa50 	bl	2000408c <__wrap_memset>
20005bec:	bd10      	pop	{r4, pc}
20005bee:	46c0      	nop			; (mov r8, r8)
20005bf0:	2000b918 	.word	0x2000b918

20005bf4 <hidd_open>:
20005bf4:	b5f0      	push	{r4, r5, r6, r7, lr}
20005bf6:	794b      	ldrb	r3, [r1, #5]
20005bf8:	0006      	movs	r6, r0
20005bfa:	000d      	movs	r5, r1
20005bfc:	b083      	sub	sp, #12
20005bfe:	2b03      	cmp	r3, #3
20005c00:	d10f      	bne.n	20005c22 <hidd_open+0x2e>
20005c02:	7908      	ldrb	r0, [r1, #4]
20005c04:	00c4      	lsls	r4, r0, #3
20005c06:	1a24      	subs	r4, r4, r0
20005c08:	3412      	adds	r4, #18
20005c0a:	b2a4      	uxth	r4, r4
20005c0c:	4294      	cmp	r4, r2
20005c0e:	d808      	bhi.n	20005c22 <hidd_open+0x2e>
20005c10:	4f1a      	ldr	r7, [pc, #104]	; (20005c7c <hidd_open+0x88>)
20005c12:	787b      	ldrb	r3, [r7, #1]
20005c14:	2b00      	cmp	r3, #0
20005c16:	d104      	bne.n	20005c22 <hidd_open+0x2e>
20005c18:	7829      	ldrb	r1, [r5, #0]
20005c1a:	1869      	adds	r1, r5, r1
20005c1c:	784b      	ldrb	r3, [r1, #1]
20005c1e:	2b21      	cmp	r3, #33	; 0x21
20005c20:	d003      	beq.n	20005c2a <hidd_open+0x36>
20005c22:	2400      	movs	r4, #0
20005c24:	0020      	movs	r0, r4
20005c26:	b003      	add	sp, #12
20005c28:	bdf0      	pop	{r4, r5, r6, r7, pc}
20005c2a:	2388      	movs	r3, #136	; 0x88
20005c2c:	50f9      	str	r1, [r7, r3]
20005c2e:	780b      	ldrb	r3, [r1, #0]
20005c30:	0002      	movs	r2, r0
20005c32:	18c9      	adds	r1, r1, r3
20005c34:	1c7b      	adds	r3, r7, #1
20005c36:	9301      	str	r3, [sp, #4]
20005c38:	1cbb      	adds	r3, r7, #2
20005c3a:	9300      	str	r3, [sp, #0]
20005c3c:	0030      	movs	r0, r6
20005c3e:	2303      	movs	r3, #3
20005c40:	f7ff fade 	bl	20005200 <usbd_open_edpt_pair>
20005c44:	2800      	cmp	r0, #0
20005c46:	d0ec      	beq.n	20005c22 <hidd_open+0x2e>
20005c48:	79ab      	ldrb	r3, [r5, #6]
20005c4a:	2b01      	cmp	r3, #1
20005c4c:	d101      	bne.n	20005c52 <hidd_open+0x5e>
20005c4e:	79eb      	ldrb	r3, [r5, #7]
20005c50:	70fb      	strb	r3, [r7, #3]
20005c52:	2301      	movs	r3, #1
20005c54:	713b      	strb	r3, [r7, #4]
20005c56:	78ab      	ldrb	r3, [r5, #2]
20005c58:	78b9      	ldrb	r1, [r7, #2]
20005c5a:	703b      	strb	r3, [r7, #0]
20005c5c:	2388      	movs	r3, #136	; 0x88
20005c5e:	58fb      	ldr	r3, [r7, r3]
20005c60:	79da      	ldrb	r2, [r3, #7]
20005c62:	7a1b      	ldrb	r3, [r3, #8]
20005c64:	021b      	lsls	r3, r3, #8
20005c66:	4313      	orrs	r3, r2
20005c68:	80fb      	strh	r3, [r7, #6]
20005c6a:	2900      	cmp	r1, #0
20005c6c:	d0da      	beq.n	20005c24 <hidd_open+0x30>
20005c6e:	003a      	movs	r2, r7
20005c70:	2340      	movs	r3, #64	; 0x40
20005c72:	0030      	movs	r0, r6
20005c74:	3248      	adds	r2, #72	; 0x48
20005c76:	f7ff fb53 	bl	20005320 <usbd_edpt_xfer>
20005c7a:	e7d3      	b.n	20005c24 <hidd_open+0x30>
20005c7c:	2000b918 	.word	0x2000b918

20005c80 <hidd_control_xfer_cb>:
20005c80:	231f      	movs	r3, #31
20005c82:	b5f0      	push	{r4, r5, r6, r7, lr}
20005c84:	0014      	movs	r4, r2
20005c86:	7812      	ldrb	r2, [r2, #0]
20005c88:	0005      	movs	r5, r0
20005c8a:	b083      	sub	sp, #12
20005c8c:	4013      	ands	r3, r2
20005c8e:	2b01      	cmp	r3, #1
20005c90:	d11b      	bne.n	20005cca <hidd_control_xfer_cb+0x4a>
20005c92:	4e64      	ldr	r6, [pc, #400]	; (20005e24 <hidd_control_xfer_cb+0x1a4>)
20005c94:	7920      	ldrb	r0, [r4, #4]
20005c96:	7833      	ldrb	r3, [r6, #0]
20005c98:	4298      	cmp	r0, r3
20005c9a:	d116      	bne.n	20005cca <hidd_control_xfer_cb+0x4a>
20005c9c:	2360      	movs	r3, #96	; 0x60
20005c9e:	0018      	movs	r0, r3
20005ca0:	4010      	ands	r0, r2
20005ca2:	4213      	tst	r3, r2
20005ca4:	d008      	beq.n	20005cb8 <hidd_control_xfer_cb+0x38>
20005ca6:	2820      	cmp	r0, #32
20005ca8:	d10f      	bne.n	20005cca <hidd_control_xfer_cb+0x4a>
20005caa:	7863      	ldrb	r3, [r4, #1]
20005cac:	2b0b      	cmp	r3, #11
20005cae:	d80c      	bhi.n	20005cca <hidd_control_xfer_cb+0x4a>
20005cb0:	4a5d      	ldr	r2, [pc, #372]	; (20005e28 <hidd_control_xfer_cb+0x1a8>)
20005cb2:	009b      	lsls	r3, r3, #2
20005cb4:	58d3      	ldr	r3, [r2, r3]
20005cb6:	469f      	mov	pc, r3
20005cb8:	2901      	cmp	r1, #1
20005cba:	d118      	bne.n	20005cee <hidd_control_xfer_cb+0x6e>
20005cbc:	78e3      	ldrb	r3, [r4, #3]
20005cbe:	78a1      	ldrb	r1, [r4, #2]
20005cc0:	7862      	ldrb	r2, [r4, #1]
20005cc2:	021b      	lsls	r3, r3, #8
20005cc4:	430b      	orrs	r3, r1
20005cc6:	2a06      	cmp	r2, #6
20005cc8:	d002      	beq.n	20005cd0 <hidd_control_xfer_cb+0x50>
20005cca:	2000      	movs	r0, #0
20005ccc:	b003      	add	sp, #12
20005cce:	bdf0      	pop	{r4, r5, r6, r7, pc}
20005cd0:	0a1b      	lsrs	r3, r3, #8
20005cd2:	2b21      	cmp	r3, #33	; 0x21
20005cd4:	d100      	bne.n	20005cd8 <hidd_control_xfer_cb+0x58>
20005cd6:	e088      	b.n	20005dea <hidd_control_xfer_cb+0x16a>
20005cd8:	2b22      	cmp	r3, #34	; 0x22
20005cda:	d1f6      	bne.n	20005cca <hidd_control_xfer_cb+0x4a>
20005cdc:	2000      	movs	r0, #0
20005cde:	f7fa fb27 	bl	20000330 <tud_hid_descriptor_report_cb>
20005ce2:	0021      	movs	r1, r4
20005ce4:	0002      	movs	r2, r0
20005ce6:	88f3      	ldrh	r3, [r6, #6]
20005ce8:	0028      	movs	r0, r5
20005cea:	f7ff fb63 	bl	200053b4 <tud_control_xfer>
20005cee:	2001      	movs	r0, #1
20005cf0:	e7ec      	b.n	20005ccc <hidd_control_xfer_cb+0x4c>
20005cf2:	2901      	cmp	r1, #1
20005cf4:	d1fb      	bne.n	20005cee <hidd_control_xfer_cb+0x6e>
20005cf6:	78e1      	ldrb	r1, [r4, #3]
20005cf8:	4b4c      	ldr	r3, [pc, #304]	; (20005e2c <hidd_control_xfer_cb+0x1ac>)
20005cfa:	7171      	strb	r1, [r6, #5]
20005cfc:	2b00      	cmp	r3, #0
20005cfe:	d004      	beq.n	20005d0a <hidd_control_xfer_cb+0x8a>
20005d00:	2000      	movs	r0, #0
20005d02:	e000      	b.n	20005d06 <hidd_control_xfer_cb+0x86>
20005d04:	bf00      	nop
20005d06:	2800      	cmp	r0, #0
20005d08:	d0df      	beq.n	20005cca <hidd_control_xfer_cb+0x4a>
20005d0a:	0021      	movs	r1, r4
20005d0c:	0028      	movs	r0, r5
20005d0e:	f7ff fb3b 	bl	20005388 <tud_control_status>
20005d12:	2001      	movs	r0, #1
20005d14:	e7da      	b.n	20005ccc <hidd_control_xfer_cb+0x4c>
20005d16:	2901      	cmp	r1, #1
20005d18:	d072      	beq.n	20005e00 <hidd_control_xfer_cb+0x180>
20005d1a:	2903      	cmp	r1, #3
20005d1c:	d1e7      	bne.n	20005cee <hidd_control_xfer_cb+0x6e>
20005d1e:	79e0      	ldrb	r0, [r4, #7]
20005d20:	79a3      	ldrb	r3, [r4, #6]
20005d22:	0200      	lsls	r0, r0, #8
20005d24:	4318      	orrs	r0, r3
20005d26:	78e2      	ldrb	r2, [r4, #3]
20005d28:	78a1      	ldrb	r1, [r4, #2]
20005d2a:	1c04      	adds	r4, r0, #0
20005d2c:	2840      	cmp	r0, #64	; 0x40
20005d2e:	d900      	bls.n	20005d32 <hidd_control_xfer_cb+0xb2>
20005d30:	2440      	movs	r4, #64	; 0x40
20005d32:	4b3f      	ldr	r3, [pc, #252]	; (20005e30 <hidd_control_xfer_cb+0x1b0>)
20005d34:	b2a4      	uxth	r4, r4
20005d36:	2900      	cmp	r1, #0
20005d38:	d008      	beq.n	20005d4c <hidd_control_xfer_cb+0xcc>
20005d3a:	2801      	cmp	r0, #1
20005d3c:	d906      	bls.n	20005d4c <hidd_control_xfer_cb+0xcc>
20005d3e:	2048      	movs	r0, #72	; 0x48
20005d40:	5c30      	ldrb	r0, [r6, r0]
20005d42:	4288      	cmp	r0, r1
20005d44:	d102      	bne.n	20005d4c <hidd_control_xfer_cb+0xcc>
20005d46:	3c01      	subs	r4, #1
20005d48:	4b3a      	ldr	r3, [pc, #232]	; (20005e34 <hidd_control_xfer_cb+0x1b4>)
20005d4a:	b2a4      	uxth	r4, r4
20005d4c:	2000      	movs	r0, #0
20005d4e:	9400      	str	r4, [sp, #0]
20005d50:	f7fa fa9a 	bl	20000288 <tud_hid_set_report_cb>
20005d54:	2001      	movs	r0, #1
20005d56:	e7b9      	b.n	20005ccc <hidd_control_xfer_cb+0x4c>
20005d58:	2901      	cmp	r1, #1
20005d5a:	d0d6      	beq.n	20005d0a <hidd_control_xfer_cb+0x8a>
20005d5c:	2903      	cmp	r1, #3
20005d5e:	d1c6      	bne.n	20005cee <hidd_control_xfer_cb+0x6e>
20005d60:	78a1      	ldrb	r1, [r4, #2]
20005d62:	4b35      	ldr	r3, [pc, #212]	; (20005e38 <hidd_control_xfer_cb+0x1b8>)
20005d64:	7131      	strb	r1, [r6, #4]
20005d66:	2b00      	cmp	r3, #0
20005d68:	d0c1      	beq.n	20005cee <hidd_control_xfer_cb+0x6e>
20005d6a:	2000      	movs	r0, #0
20005d6c:	e000      	b.n	20005d70 <hidd_control_xfer_cb+0xf0>
20005d6e:	bf00      	nop
20005d70:	2001      	movs	r0, #1
20005d72:	e7ab      	b.n	20005ccc <hidd_control_xfer_cb+0x4c>
20005d74:	2901      	cmp	r1, #1
20005d76:	d1ba      	bne.n	20005cee <hidd_control_xfer_cb+0x6e>
20005d78:	79e3      	ldrb	r3, [r4, #7]
20005d7a:	79a0      	ldrb	r0, [r4, #6]
20005d7c:	021b      	lsls	r3, r3, #8
20005d7e:	4303      	orrs	r3, r0
20005d80:	78e2      	ldrb	r2, [r4, #3]
20005d82:	78a1      	ldrb	r1, [r4, #2]
20005d84:	1c18      	adds	r0, r3, #0
20005d86:	2b40      	cmp	r3, #64	; 0x40
20005d88:	d900      	bls.n	20005d8c <hidd_control_xfer_cb+0x10c>
20005d8a:	2040      	movs	r0, #64	; 0x40
20005d8c:	b280      	uxth	r0, r0
20005d8e:	2900      	cmp	r1, #0
20005d90:	d044      	beq.n	20005e1c <hidd_control_xfer_cb+0x19c>
20005d92:	2b01      	cmp	r3, #1
20005d94:	d942      	bls.n	20005e1c <hidd_control_xfer_cb+0x19c>
20005d96:	0033      	movs	r3, r6
20005d98:	2701      	movs	r7, #1
20005d9a:	3801      	subs	r0, #1
20005d9c:	7231      	strb	r1, [r6, #8]
20005d9e:	b280      	uxth	r0, r0
20005da0:	3309      	adds	r3, #9
20005da2:	9000      	str	r0, [sp, #0]
20005da4:	2000      	movs	r0, #0
20005da6:	f7fa fa6d 	bl	20000284 <tud_hid_get_report_cb>
20005daa:	183b      	adds	r3, r7, r0
20005dac:	b29b      	uxth	r3, r3
20005dae:	2b00      	cmp	r3, #0
20005db0:	d100      	bne.n	20005db4 <hidd_control_xfer_cb+0x134>
20005db2:	e78a      	b.n	20005cca <hidd_control_xfer_cb+0x4a>
20005db4:	0021      	movs	r1, r4
20005db6:	0028      	movs	r0, r5
20005db8:	4a20      	ldr	r2, [pc, #128]	; (20005e3c <hidd_control_xfer_cb+0x1bc>)
20005dba:	f7ff fafb 	bl	200053b4 <tud_control_xfer>
20005dbe:	2001      	movs	r0, #1
20005dc0:	e784      	b.n	20005ccc <hidd_control_xfer_cb+0x4c>
20005dc2:	2901      	cmp	r1, #1
20005dc4:	d193      	bne.n	20005cee <hidd_control_xfer_cb+0x6e>
20005dc6:	2301      	movs	r3, #1
20005dc8:	0021      	movs	r1, r4
20005dca:	0028      	movs	r0, r5
20005dcc:	4a1c      	ldr	r2, [pc, #112]	; (20005e40 <hidd_control_xfer_cb+0x1c0>)
20005dce:	f7ff faf1 	bl	200053b4 <tud_control_xfer>
20005dd2:	2001      	movs	r0, #1
20005dd4:	e77a      	b.n	20005ccc <hidd_control_xfer_cb+0x4c>
20005dd6:	2901      	cmp	r1, #1
20005dd8:	d189      	bne.n	20005cee <hidd_control_xfer_cb+0x6e>
20005dda:	2301      	movs	r3, #1
20005ddc:	0021      	movs	r1, r4
20005dde:	0028      	movs	r0, r5
20005de0:	4a18      	ldr	r2, [pc, #96]	; (20005e44 <hidd_control_xfer_cb+0x1c4>)
20005de2:	f7ff fae7 	bl	200053b4 <tud_control_xfer>
20005de6:	2001      	movs	r0, #1
20005de8:	e770      	b.n	20005ccc <hidd_control_xfer_cb+0x4c>
20005dea:	3367      	adds	r3, #103	; 0x67
20005dec:	58f2      	ldr	r2, [r6, r3]
20005dee:	2a00      	cmp	r2, #0
20005df0:	d100      	bne.n	20005df4 <hidd_control_xfer_cb+0x174>
20005df2:	e76a      	b.n	20005cca <hidd_control_xfer_cb+0x4a>
20005df4:	0021      	movs	r1, r4
20005df6:	0028      	movs	r0, r5
20005df8:	7813      	ldrb	r3, [r2, #0]
20005dfa:	f7ff fadb 	bl	200053b4 <tud_control_xfer>
20005dfe:	e765      	b.n	20005ccc <hidd_control_xfer_cb+0x4c>
20005e00:	79e3      	ldrb	r3, [r4, #7]
20005e02:	79a2      	ldrb	r2, [r4, #6]
20005e04:	021b      	lsls	r3, r3, #8
20005e06:	4313      	orrs	r3, r2
20005e08:	2b40      	cmp	r3, #64	; 0x40
20005e0a:	d900      	bls.n	20005e0e <hidd_control_xfer_cb+0x18e>
20005e0c:	e75d      	b.n	20005cca <hidd_control_xfer_cb+0x4a>
20005e0e:	0021      	movs	r1, r4
20005e10:	0028      	movs	r0, r5
20005e12:	4a07      	ldr	r2, [pc, #28]	; (20005e30 <hidd_control_xfer_cb+0x1b0>)
20005e14:	f7ff face 	bl	200053b4 <tud_control_xfer>
20005e18:	2001      	movs	r0, #1
20005e1a:	e757      	b.n	20005ccc <hidd_control_xfer_cb+0x4c>
20005e1c:	2700      	movs	r7, #0
20005e1e:	4b07      	ldr	r3, [pc, #28]	; (20005e3c <hidd_control_xfer_cb+0x1bc>)
20005e20:	e7bf      	b.n	20005da2 <hidd_control_xfer_cb+0x122>
20005e22:	46c0      	nop			; (mov r8, r8)
20005e24:	2000b918 	.word	0x2000b918
20005e28:	20009fd8 	.word	0x20009fd8
20005e2c:	00000000 	.word	0x00000000
20005e30:	2000b960 	.word	0x2000b960
20005e34:	2000b961 	.word	0x2000b961
20005e38:	00000000 	.word	0x00000000
20005e3c:	2000b920 	.word	0x2000b920
20005e40:	2000b91c 	.word	0x2000b91c
20005e44:	2000b91d 	.word	0x2000b91d

20005e48 <hidd_xfer_cb>:
20005e48:	b570      	push	{r4, r5, r6, lr}
20005e4a:	4c14      	ldr	r4, [pc, #80]	; (20005e9c <hidd_xfer_cb+0x54>)
20005e4c:	0005      	movs	r5, r0
20005e4e:	78a2      	ldrb	r2, [r4, #2]
20005e50:	7866      	ldrb	r6, [r4, #1]
20005e52:	b082      	sub	sp, #8
20005e54:	428a      	cmp	r2, r1
20005e56:	d00e      	beq.n	20005e76 <hidd_xfer_cb+0x2e>
20005e58:	2000      	movs	r0, #0
20005e5a:	428e      	cmp	r6, r1
20005e5c:	d001      	beq.n	20005e62 <hidd_xfer_cb+0x1a>
20005e5e:	b002      	add	sp, #8
20005e60:	bd70      	pop	{r4, r5, r6, pc}
20005e62:	4a0f      	ldr	r2, [pc, #60]	; (20005ea0 <hidd_xfer_cb+0x58>)
20005e64:	2a00      	cmp	r2, #0
20005e66:	d004      	beq.n	20005e72 <hidd_xfer_cb+0x2a>
20005e68:	2000      	movs	r0, #0
20005e6a:	490e      	ldr	r1, [pc, #56]	; (20005ea4 <hidd_xfer_cb+0x5c>)
20005e6c:	b29a      	uxth	r2, r3
20005e6e:	e000      	b.n	20005e72 <hidd_xfer_cb+0x2a>
20005e70:	bf00      	nop
20005e72:	2001      	movs	r0, #1
20005e74:	e7f3      	b.n	20005e5e <hidd_xfer_cb+0x16>
20005e76:	4296      	cmp	r6, r2
20005e78:	d0f3      	beq.n	20005e62 <hidd_xfer_cb+0x1a>
20005e7a:	0026      	movs	r6, r4
20005e7c:	b29b      	uxth	r3, r3
20005e7e:	3648      	adds	r6, #72	; 0x48
20005e80:	9300      	str	r3, [sp, #0]
20005e82:	2200      	movs	r2, #0
20005e84:	0033      	movs	r3, r6
20005e86:	2100      	movs	r1, #0
20005e88:	2000      	movs	r0, #0
20005e8a:	f7fa f9fd 	bl	20000288 <tud_hid_set_report_cb>
20005e8e:	2340      	movs	r3, #64	; 0x40
20005e90:	0032      	movs	r2, r6
20005e92:	0028      	movs	r0, r5
20005e94:	78a1      	ldrb	r1, [r4, #2]
20005e96:	f7ff fa43 	bl	20005320 <usbd_edpt_xfer>
20005e9a:	e7e0      	b.n	20005e5e <hidd_xfer_cb+0x16>
20005e9c:	2000b918 	.word	0x2000b918
20005ea0:	00000000 	.word	0x00000000
20005ea4:	2000b920 	.word	0x2000b920

20005ea8 <vendord_init>:
20005ea8:	b570      	push	{r4, r5, r6, lr}
20005eaa:	4c15      	ldr	r4, [pc, #84]	; (20005f00 <vendord_init+0x58>)
20005eac:	b082      	sub	sp, #8
20005eae:	2100      	movs	r1, #0
20005eb0:	0020      	movs	r0, r4
20005eb2:	4a14      	ldr	r2, [pc, #80]	; (20005f04 <vendord_init+0x5c>)
20005eb4:	2680      	movs	r6, #128	; 0x80
20005eb6:	f7fe f8e9 	bl	2000408c <__wrap_memset>
20005eba:	2500      	movs	r5, #0
20005ebc:	0021      	movs	r1, r4
20005ebe:	01b6      	lsls	r6, r6, #6
20005ec0:	0032      	movs	r2, r6
20005ec2:	2301      	movs	r3, #1
20005ec4:	312c      	adds	r1, #44	; 0x2c
20005ec6:	1d20      	adds	r0, r4, #4
20005ec8:	9500      	str	r5, [sp, #0]
20005eca:	f000 f99f 	bl	2000620c <tu_fifo_config>
20005ece:	0020      	movs	r0, r4
20005ed0:	4b0d      	ldr	r3, [pc, #52]	; (20005f08 <vendord_init+0x60>)
20005ed2:	0032      	movs	r2, r6
20005ed4:	18e1      	adds	r1, r4, r3
20005ed6:	9500      	str	r5, [sp, #0]
20005ed8:	2301      	movs	r3, #1
20005eda:	3018      	adds	r0, #24
20005edc:	f000 f996 	bl	2000620c <tu_fifo_config>
20005ee0:	4b0a      	ldr	r3, [pc, #40]	; (20005f0c <vendord_init+0x64>)
20005ee2:	18e6      	adds	r6, r4, r3
20005ee4:	0030      	movs	r0, r6
20005ee6:	f7fb ff61 	bl	20001dac <mutex_init>
20005eea:	4b09      	ldr	r3, [pc, #36]	; (20005f10 <vendord_init+0x68>)
20005eec:	6166      	str	r6, [r4, #20]
20005eee:	18e6      	adds	r6, r4, r3
20005ef0:	0030      	movs	r0, r6
20005ef2:	6125      	str	r5, [r4, #16]
20005ef4:	f7fb ff5a 	bl	20001dac <mutex_init>
20005ef8:	6266      	str	r6, [r4, #36]	; 0x24
20005efa:	62a5      	str	r5, [r4, #40]	; 0x28
20005efc:	b002      	add	sp, #8
20005efe:	bd70      	pop	{r4, r5, r6, pc}
20005f00:	2000bb14 	.word	0x2000bb14
20005f04:	000040bc 	.word	0x000040bc
20005f08:	0000202c 	.word	0x0000202c
20005f0c:	0000402c 	.word	0x0000402c
20005f10:	00004034 	.word	0x00004034

20005f14 <vendord_reset>:
20005f14:	b510      	push	{r4, lr}
20005f16:	4c05      	ldr	r4, [pc, #20]	; (20005f2c <vendord_reset+0x18>)
20005f18:	2300      	movs	r3, #0
20005f1a:	0020      	movs	r0, r4
20005f1c:	c008      	stmia	r0!, {r3}
20005f1e:	f000 fb9d 	bl	2000665c <tu_fifo_clear>
20005f22:	0020      	movs	r0, r4
20005f24:	3018      	adds	r0, #24
20005f26:	f000 fb99 	bl	2000665c <tu_fifo_clear>
20005f2a:	bd10      	pop	{r4, pc}
20005f2c:	2000bb14 	.word	0x2000bb14

20005f30 <vendord_open>:
20005f30:	b5f0      	push	{r4, r5, r6, r7, lr}
20005f32:	46ce      	mov	lr, r9
20005f34:	4647      	mov	r7, r8
20005f36:	b580      	push	{r7, lr}
20005f38:	794b      	ldrb	r3, [r1, #5]
20005f3a:	0006      	movs	r6, r0
20005f3c:	000d      	movs	r5, r1
20005f3e:	b083      	sub	sp, #12
20005f40:	2bff      	cmp	r3, #255	; 0xff
20005f42:	d107      	bne.n	20005f54 <vendord_open+0x24>
20005f44:	4f2d      	ldr	r7, [pc, #180]	; (20005ffc <vendord_open+0xcc>)
20005f46:	780c      	ldrb	r4, [r1, #0]
20005f48:	7879      	ldrb	r1, [r7, #1]
20005f4a:	78bb      	ldrb	r3, [r7, #2]
20005f4c:	2900      	cmp	r1, #0
20005f4e:	d101      	bne.n	20005f54 <vendord_open+0x24>
20005f50:	2b00      	cmp	r3, #0
20005f52:	d005      	beq.n	20005f60 <vendord_open+0x30>
20005f54:	2000      	movs	r0, #0
20005f56:	b003      	add	sp, #12
20005f58:	bcc0      	pop	{r6, r7}
20005f5a:	46b9      	mov	r9, r7
20005f5c:	46b0      	mov	r8, r6
20005f5e:	bdf0      	pop	{r4, r5, r6, r7, pc}
20005f60:	78ab      	ldrb	r3, [r5, #2]
20005f62:	192c      	adds	r4, r5, r4
20005f64:	703b      	strb	r3, [r7, #0]
20005f66:	7928      	ldrb	r0, [r5, #4]
20005f68:	2800      	cmp	r0, #0
20005f6a:	d026      	beq.n	20005fba <vendord_open+0x8a>
20005f6c:	7863      	ldrb	r3, [r4, #1]
20005f6e:	2b05      	cmp	r3, #5
20005f70:	d008      	beq.n	20005f84 <vendord_open+0x54>
20005f72:	18a2      	adds	r2, r4, r2
20005f74:	e004      	b.n	20005f80 <vendord_open+0x50>
20005f76:	7821      	ldrb	r1, [r4, #0]
20005f78:	1864      	adds	r4, r4, r1
20005f7a:	7861      	ldrb	r1, [r4, #1]
20005f7c:	2905      	cmp	r1, #5
20005f7e:	d001      	beq.n	20005f84 <vendord_open+0x54>
20005f80:	4294      	cmp	r4, r2
20005f82:	d3f8      	bcc.n	20005f76 <vendord_open+0x46>
20005f84:	4b1e      	ldr	r3, [pc, #120]	; (20006000 <vendord_open+0xd0>)
20005f86:	0002      	movs	r2, r0
20005f88:	4698      	mov	r8, r3
20005f8a:	9301      	str	r3, [sp, #4]
20005f8c:	3301      	adds	r3, #1
20005f8e:	9300      	str	r3, [sp, #0]
20005f90:	0021      	movs	r1, r4
20005f92:	2302      	movs	r3, #2
20005f94:	0030      	movs	r0, r6
20005f96:	f7ff f933 	bl	20005200 <usbd_open_edpt_pair>
20005f9a:	2800      	cmp	r0, #0
20005f9c:	d0da      	beq.n	20005f54 <vendord_open+0x24>
20005f9e:	792b      	ldrb	r3, [r5, #4]
20005fa0:	4699      	mov	r9, r3
20005fa2:	4643      	mov	r3, r8
20005fa4:	7859      	ldrb	r1, [r3, #1]
20005fa6:	2900      	cmp	r1, #0
20005fa8:	d10a      	bne.n	20005fc0 <vendord_open+0x90>
20005faa:	7879      	ldrb	r1, [r7, #1]
20005fac:	2900      	cmp	r1, #0
20005fae:	d110      	bne.n	20005fd2 <vendord_open+0xa2>
20005fb0:	464b      	mov	r3, r9
20005fb2:	464a      	mov	r2, r9
20005fb4:	00db      	lsls	r3, r3, #3
20005fb6:	1a9b      	subs	r3, r3, r2
20005fb8:	18e4      	adds	r4, r4, r3
20005fba:	1b60      	subs	r0, r4, r5
20005fbc:	b280      	uxth	r0, r0
20005fbe:	e7ca      	b.n	20005f56 <vendord_open+0x26>
20005fc0:	4a10      	ldr	r2, [pc, #64]	; (20006004 <vendord_open+0xd4>)
20005fc2:	2340      	movs	r3, #64	; 0x40
20005fc4:	0030      	movs	r0, r6
20005fc6:	4442      	add	r2, r8
20005fc8:	f7ff f9aa 	bl	20005320 <usbd_edpt_xfer>
20005fcc:	2800      	cmp	r0, #0
20005fce:	d1ec      	bne.n	20005faa <vendord_open+0x7a>
20005fd0:	e7c0      	b.n	20005f54 <vendord_open+0x24>
20005fd2:	2000      	movs	r0, #0
20005fd4:	f7ff f9ca 	bl	2000536c <usbd_edpt_busy>
20005fd8:	2800      	cmp	r0, #0
20005fda:	d1e9      	bne.n	20005fb0 <vendord_open+0x80>
20005fdc:	0038      	movs	r0, r7
20005fde:	4b0a      	ldr	r3, [pc, #40]	; (20006008 <vendord_open+0xd8>)
20005fe0:	2240      	movs	r2, #64	; 0x40
20005fe2:	18fe      	adds	r6, r7, r3
20005fe4:	0031      	movs	r1, r6
20005fe6:	3018      	adds	r0, #24
20005fe8:	f000 f9c8 	bl	2000637c <tu_fifo_read_n>
20005fec:	1e03      	subs	r3, r0, #0
20005fee:	d0df      	beq.n	20005fb0 <vendord_open+0x80>
20005ff0:	0032      	movs	r2, r6
20005ff2:	7879      	ldrb	r1, [r7, #1]
20005ff4:	2000      	movs	r0, #0
20005ff6:	f7ff f993 	bl	20005320 <usbd_edpt_xfer>
20005ffa:	e7d9      	b.n	20005fb0 <vendord_open+0x80>
20005ffc:	2000bb14 	.word	0x2000bb14
20006000:	2000bb15 	.word	0x2000bb15
20006004:	0000403b 	.word	0x0000403b
20006008:	0000407c 	.word	0x0000407c

2000600c <vendord_xfer_cb>:
2000600c:	b510      	push	{r4, lr}
2000600e:	4c25      	ldr	r4, [pc, #148]	; (200060a4 <vendord_xfer_cb+0x98>)
20006010:	78a2      	ldrb	r2, [r4, #2]
20006012:	428a      	cmp	r2, r1
20006014:	d025      	beq.n	20006062 <vendord_xfer_cb+0x56>
20006016:	7862      	ldrb	r2, [r4, #1]
20006018:	2000      	movs	r0, #0
2000601a:	428a      	cmp	r2, r1
2000601c:	d10e      	bne.n	2000603c <vendord_xfer_cb+0x30>
2000601e:	4a22      	ldr	r2, [pc, #136]	; (200060a8 <vendord_xfer_cb+0x9c>)
20006020:	2a00      	cmp	r2, #0
20006022:	d005      	beq.n	20006030 <vendord_xfer_cb+0x24>
20006024:	041b      	lsls	r3, r3, #16
20006026:	0c19      	lsrs	r1, r3, #16
20006028:	2000      	movs	r0, #0
2000602a:	e000      	b.n	2000602e <vendord_xfer_cb+0x22>
2000602c:	bf00      	nop
2000602e:	7861      	ldrb	r1, [r4, #1]
20006030:	2000      	movs	r0, #0
20006032:	f7ff f99b 	bl	2000536c <usbd_edpt_busy>
20006036:	2800      	cmp	r0, #0
20006038:	d001      	beq.n	2000603e <vendord_xfer_cb+0x32>
2000603a:	2001      	movs	r0, #1
2000603c:	bd10      	pop	{r4, pc}
2000603e:	4c1b      	ldr	r4, [pc, #108]	; (200060ac <vendord_xfer_cb+0xa0>)
20006040:	4b1b      	ldr	r3, [pc, #108]	; (200060b0 <vendord_xfer_cb+0xa4>)
20006042:	2240      	movs	r2, #64	; 0x40
20006044:	18e0      	adds	r0, r4, r3
20006046:	0021      	movs	r1, r4
20006048:	f000 f998 	bl	2000637c <tu_fifo_read_n>
2000604c:	1e03      	subs	r3, r0, #0
2000604e:	d0f4      	beq.n	2000603a <vendord_xfer_cb+0x2e>
20006050:	4a18      	ldr	r2, [pc, #96]	; (200060b4 <vendord_xfer_cb+0xa8>)
20006052:	2000      	movs	r0, #0
20006054:	18a2      	adds	r2, r4, r2
20006056:	7851      	ldrb	r1, [r2, #1]
20006058:	0022      	movs	r2, r4
2000605a:	f7ff f961 	bl	20005320 <usbd_edpt_xfer>
2000605e:	2001      	movs	r0, #1
20006060:	e7ec      	b.n	2000603c <vendord_xfer_cb+0x30>
20006062:	b29a      	uxth	r2, r3
20006064:	4b14      	ldr	r3, [pc, #80]	; (200060b8 <vendord_xfer_cb+0xac>)
20006066:	1d20      	adds	r0, r4, #4
20006068:	18e1      	adds	r1, r4, r3
2000606a:	f000 fa3f 	bl	200064ec <tu_fifo_write_n>
2000606e:	4b13      	ldr	r3, [pc, #76]	; (200060bc <vendord_xfer_cb+0xb0>)
20006070:	2b00      	cmp	r3, #0
20006072:	d002      	beq.n	2000607a <vendord_xfer_cb+0x6e>
20006074:	2000      	movs	r0, #0
20006076:	e000      	b.n	2000607a <vendord_xfer_cb+0x6e>
20006078:	bf00      	nop
2000607a:	2000      	movs	r0, #0
2000607c:	78a1      	ldrb	r1, [r4, #2]
2000607e:	f7ff f975 	bl	2000536c <usbd_edpt_busy>
20006082:	2800      	cmp	r0, #0
20006084:	d1d9      	bne.n	2000603a <vendord_xfer_cb+0x2e>
20006086:	1d20      	adds	r0, r4, #4
20006088:	f000 f914 	bl	200062b4 <tu_fifo_remaining>
2000608c:	283f      	cmp	r0, #63	; 0x3f
2000608e:	d9d4      	bls.n	2000603a <vendord_xfer_cb+0x2e>
20006090:	4b09      	ldr	r3, [pc, #36]	; (200060b8 <vendord_xfer_cb+0xac>)
20006092:	2000      	movs	r0, #0
20006094:	18e2      	adds	r2, r4, r3
20006096:	78a1      	ldrb	r1, [r4, #2]
20006098:	2340      	movs	r3, #64	; 0x40
2000609a:	f7ff f941 	bl	20005320 <usbd_edpt_xfer>
2000609e:	2001      	movs	r0, #1
200060a0:	e7cc      	b.n	2000603c <vendord_xfer_cb+0x30>
200060a2:	46c0      	nop			; (mov r8, r8)
200060a4:	2000bb14 	.word	0x2000bb14
200060a8:	00000000 	.word	0x00000000
200060ac:	2000fb90 	.word	0x2000fb90
200060b0:	ffffbf9c 	.word	0xffffbf9c
200060b4:	ffffbf84 	.word	0xffffbf84
200060b8:	0000403c 	.word	0x0000403c
200060bc:	00000000 	.word	0x00000000

200060c0 <tusb_init>:
200060c0:	b510      	push	{r4, lr}
200060c2:	2000      	movs	r0, #0
200060c4:	f7fe fc4c 	bl	20004960 <tud_init>
200060c8:	bd10      	pop	{r4, pc}
200060ca:	46c0      	nop			; (mov r8, r8)

200060cc <tusb_inited>:
200060cc:	b510      	push	{r4, lr}
200060ce:	f7fe fc3d 	bl	2000494c <tud_inited>
200060d2:	bd10      	pop	{r4, pc}

200060d4 <tu_edpt_claim>:
200060d4:	7803      	ldrb	r3, [r0, #0]
200060d6:	b570      	push	{r4, r5, r6, lr}
200060d8:	07db      	lsls	r3, r3, #31
200060da:	0004      	movs	r4, r0
200060dc:	000e      	movs	r6, r1
200060de:	0fdd      	lsrs	r5, r3, #31
200060e0:	2b00      	cmp	r3, #0
200060e2:	d117      	bne.n	20006114 <tu_edpt_claim+0x40>
200060e4:	7803      	ldrb	r3, [r0, #0]
200060e6:	075b      	lsls	r3, r3, #29
200060e8:	d501      	bpl.n	200060ee <tu_edpt_claim+0x1a>
200060ea:	0028      	movs	r0, r5
200060ec:	bd70      	pop	{r4, r5, r6, pc}
200060ee:	2101      	movs	r1, #1
200060f0:	0030      	movs	r0, r6
200060f2:	4249      	negs	r1, r1
200060f4:	f002 fe9c 	bl	20008e30 <mutex_enter_timeout_ms>
200060f8:	7823      	ldrb	r3, [r4, #0]
200060fa:	07db      	lsls	r3, r3, #31
200060fc:	0fdd      	lsrs	r5, r3, #31
200060fe:	2b00      	cmp	r3, #0
20006100:	d10a      	bne.n	20006118 <tu_edpt_claim+0x44>
20006102:	7823      	ldrb	r3, [r4, #0]
20006104:	075b      	lsls	r3, r3, #29
20006106:	d408      	bmi.n	2000611a <tu_edpt_claim+0x46>
20006108:	2204      	movs	r2, #4
2000610a:	7823      	ldrb	r3, [r4, #0]
2000610c:	2501      	movs	r5, #1
2000610e:	4313      	orrs	r3, r2
20006110:	7023      	strb	r3, [r4, #0]
20006112:	e002      	b.n	2000611a <tu_edpt_claim+0x46>
20006114:	2500      	movs	r5, #0
20006116:	e7e8      	b.n	200060ea <tu_edpt_claim+0x16>
20006118:	2500      	movs	r5, #0
2000611a:	0030      	movs	r0, r6
2000611c:	f002 fec4 	bl	20008ea8 <mutex_exit>
20006120:	e7e3      	b.n	200060ea <tu_edpt_claim+0x16>
20006122:	46c0      	nop			; (mov r8, r8)

20006124 <tu_edpt_release>:
20006124:	b570      	push	{r4, r5, r6, lr}
20006126:	000c      	movs	r4, r1
20006128:	2101      	movs	r1, #1
2000612a:	0006      	movs	r6, r0
2000612c:	4249      	negs	r1, r1
2000612e:	0020      	movs	r0, r4
20006130:	f002 fe7e 	bl	20008e30 <mutex_enter_timeout_ms>
20006134:	7833      	ldrb	r3, [r6, #0]
20006136:	075b      	lsls	r3, r3, #29
20006138:	0fdd      	lsrs	r5, r3, #31
2000613a:	2b00      	cmp	r3, #0
2000613c:	db04      	blt.n	20006148 <tu_edpt_release+0x24>
2000613e:	0020      	movs	r0, r4
20006140:	f002 feb2 	bl	20008ea8 <mutex_exit>
20006144:	0028      	movs	r0, r5
20006146:	bd70      	pop	{r4, r5, r6, pc}
20006148:	7833      	ldrb	r3, [r6, #0]
2000614a:	07db      	lsls	r3, r3, #31
2000614c:	d404      	bmi.n	20006158 <tu_edpt_release+0x34>
2000614e:	2204      	movs	r2, #4
20006150:	7833      	ldrb	r3, [r6, #0]
20006152:	4393      	bics	r3, r2
20006154:	7033      	strb	r3, [r6, #0]
20006156:	e7f2      	b.n	2000613e <tu_edpt_release+0x1a>
20006158:	2500      	movs	r5, #0
2000615a:	e7f0      	b.n	2000613e <tu_edpt_release+0x1a>

2000615c <tu_edpt_validate>:
2000615c:	7943      	ldrb	r3, [r0, #5]
2000615e:	7902      	ldrb	r2, [r0, #4]
20006160:	021b      	lsls	r3, r3, #8
20006162:	4313      	orrs	r3, r2
20006164:	055b      	lsls	r3, r3, #21
20006166:	0d5a      	lsrs	r2, r3, #21
20006168:	78c3      	ldrb	r3, [r0, #3]
2000616a:	079b      	lsls	r3, r3, #30
2000616c:	0f9b      	lsrs	r3, r3, #30
2000616e:	2b02      	cmp	r3, #2
20006170:	d005      	beq.n	2000617e <tu_edpt_validate+0x22>
20006172:	2b03      	cmp	r3, #3
20006174:	d015      	beq.n	200061a2 <tu_edpt_validate+0x46>
20006176:	2000      	movs	r0, #0
20006178:	2b01      	cmp	r3, #1
2000617a:	d008      	beq.n	2000618e <tu_edpt_validate+0x32>
2000617c:	4770      	bx	lr
2000617e:	2902      	cmp	r1, #2
20006180:	d01e      	beq.n	200061c0 <tu_edpt_validate+0x64>
20006182:	2000      	movs	r0, #0
20006184:	2340      	movs	r3, #64	; 0x40
20006186:	4293      	cmp	r3, r2
20006188:	4140      	adcs	r0, r0
2000618a:	b2c0      	uxtb	r0, r0
2000618c:	e7f6      	b.n	2000617c <tu_edpt_validate+0x20>
2000618e:	3902      	subs	r1, #2
20006190:	424b      	negs	r3, r1
20006192:	4159      	adcs	r1, r3
20006194:	4b0d      	ldr	r3, [pc, #52]	; (200061cc <tu_edpt_validate+0x70>)
20006196:	469c      	mov	ip, r3
20006198:	4461      	add	r1, ip
2000619a:	4291      	cmp	r1, r2
2000619c:	4140      	adcs	r0, r0
2000619e:	b2c0      	uxtb	r0, r0
200061a0:	e7ec      	b.n	2000617c <tu_edpt_validate+0x20>
200061a2:	3902      	subs	r1, #2
200061a4:	1e4b      	subs	r3, r1, #1
200061a6:	4199      	sbcs	r1, r3
200061a8:	4b09      	ldr	r3, [pc, #36]	; (200061d0 <tu_edpt_validate+0x74>)
200061aa:	4249      	negs	r1, r1
200061ac:	4019      	ands	r1, r3
200061ae:	2380      	movs	r3, #128	; 0x80
200061b0:	00db      	lsls	r3, r3, #3
200061b2:	469c      	mov	ip, r3
200061b4:	2000      	movs	r0, #0
200061b6:	4461      	add	r1, ip
200061b8:	4291      	cmp	r1, r2
200061ba:	4140      	adcs	r0, r0
200061bc:	b2c0      	uxtb	r0, r0
200061be:	e7dd      	b.n	2000617c <tu_edpt_validate+0x20>
200061c0:	4b04      	ldr	r3, [pc, #16]	; (200061d4 <tu_edpt_validate+0x78>)
200061c2:	18d0      	adds	r0, r2, r3
200061c4:	4243      	negs	r3, r0
200061c6:	4158      	adcs	r0, r3
200061c8:	b2c0      	uxtb	r0, r0
200061ca:	e7d7      	b.n	2000617c <tu_edpt_validate+0x20>
200061cc:	000003ff 	.word	0x000003ff
200061d0:	fffffc40 	.word	0xfffffc40
200061d4:	fffffe00 	.word	0xfffffe00

200061d8 <tu_edpt_bind_driver>:
200061d8:	188a      	adds	r2, r1, r2
200061da:	b570      	push	{r4, r5, r6, lr}
200061dc:	4291      	cmp	r1, r2
200061de:	d207      	bcs.n	200061f0 <tu_edpt_bind_driver+0x18>
200061e0:	267f      	movs	r6, #127	; 0x7f
200061e2:	784c      	ldrb	r4, [r1, #1]
200061e4:	2c05      	cmp	r4, #5
200061e6:	d004      	beq.n	200061f2 <tu_edpt_bind_driver+0x1a>
200061e8:	780c      	ldrb	r4, [r1, #0]
200061ea:	1909      	adds	r1, r1, r4
200061ec:	428a      	cmp	r2, r1
200061ee:	d8f8      	bhi.n	200061e2 <tu_edpt_bind_driver+0xa>
200061f0:	bd70      	pop	{r4, r5, r6, pc}
200061f2:	0034      	movs	r4, r6
200061f4:	788d      	ldrb	r5, [r1, #2]
200061f6:	402c      	ands	r4, r5
200061f8:	0064      	lsls	r4, r4, #1
200061fa:	1904      	adds	r4, r0, r4
200061fc:	09ed      	lsrs	r5, r5, #7
200061fe:	5563      	strb	r3, [r4, r5]
20006200:	780c      	ldrb	r4, [r1, #0]
20006202:	1909      	adds	r1, r1, r4
20006204:	428a      	cmp	r2, r1
20006206:	d8ec      	bhi.n	200061e2 <tu_edpt_bind_driver+0xa>
20006208:	e7f2      	b.n	200061f0 <tu_edpt_bind_driver+0x18>
2000620a:	46c0      	nop			; (mov r8, r8)

2000620c <tu_fifo_config>:
2000620c:	b5f0      	push	{r4, r5, r6, r7, lr}
2000620e:	46c6      	mov	lr, r8
20006210:	b500      	push	{lr}
20006212:	0004      	movs	r4, r0
20006214:	a806      	add	r0, sp, #24
20006216:	7805      	ldrb	r5, [r0, #0]
20006218:	2080      	movs	r0, #128	; 0x80
2000621a:	4688      	mov	r8, r1
2000621c:	0017      	movs	r7, r2
2000621e:	001e      	movs	r6, r3
20006220:	0200      	lsls	r0, r0, #8
20006222:	4282      	cmp	r2, r0
20006224:	d826      	bhi.n	20006274 <tu_fifo_config+0x68>
20006226:	68e0      	ldr	r0, [r4, #12]
20006228:	2800      	cmp	r0, #0
2000622a:	d003      	beq.n	20006234 <tu_fifo_config+0x28>
2000622c:	2101      	movs	r1, #1
2000622e:	4249      	negs	r1, r1
20006230:	f002 fdfe 	bl	20008e30 <mutex_enter_timeout_ms>
20006234:	6920      	ldr	r0, [r4, #16]
20006236:	2800      	cmp	r0, #0
20006238:	d003      	beq.n	20006242 <tu_fifo_config+0x36>
2000623a:	2101      	movs	r1, #1
2000623c:	4249      	negs	r1, r1
2000623e:	f002 fdf7 	bl	20008e30 <mutex_enter_timeout_ms>
20006242:	4643      	mov	r3, r8
20006244:	6023      	str	r3, [r4, #0]
20006246:	0473      	lsls	r3, r6, #17
20006248:	0c5b      	lsrs	r3, r3, #17
2000624a:	03ed      	lsls	r5, r5, #15
2000624c:	431d      	orrs	r5, r3
2000624e:	2300      	movs	r3, #0
20006250:	68e0      	ldr	r0, [r4, #12]
20006252:	8163      	strh	r3, [r4, #10]
20006254:	80a7      	strh	r7, [r4, #4]
20006256:	80e5      	strh	r5, [r4, #6]
20006258:	8123      	strh	r3, [r4, #8]
2000625a:	2800      	cmp	r0, #0
2000625c:	d001      	beq.n	20006262 <tu_fifo_config+0x56>
2000625e:	f002 fe23 	bl	20008ea8 <mutex_exit>
20006262:	6920      	ldr	r0, [r4, #16]
20006264:	2800      	cmp	r0, #0
20006266:	d001      	beq.n	2000626c <tu_fifo_config+0x60>
20006268:	f002 fe1e 	bl	20008ea8 <mutex_exit>
2000626c:	2001      	movs	r0, #1
2000626e:	bc80      	pop	{r7}
20006270:	46b8      	mov	r8, r7
20006272:	bdf0      	pop	{r4, r5, r6, r7, pc}
20006274:	2000      	movs	r0, #0
20006276:	e7fa      	b.n	2000626e <tu_fifo_config+0x62>

20006278 <tu_fifo_count>:
20006278:	b510      	push	{r4, lr}
2000627a:	8904      	ldrh	r4, [r0, #8]
2000627c:	8941      	ldrh	r1, [r0, #10]
2000627e:	8882      	ldrh	r2, [r0, #4]
20006280:	b2a3      	uxth	r3, r4
20006282:	b288      	uxth	r0, r1
20006284:	428c      	cmp	r4, r1
20006286:	d307      	bcc.n	20006298 <tu_fifo_count+0x20>
20006288:	1a1b      	subs	r3, r3, r0
2000628a:	b29b      	uxth	r3, r3
2000628c:	1c10      	adds	r0, r2, #0
2000628e:	429a      	cmp	r2, r3
20006290:	d900      	bls.n	20006294 <tu_fifo_count+0x1c>
20006292:	1c18      	adds	r0, r3, #0
20006294:	b280      	uxth	r0, r0
20006296:	bd10      	pop	{r4, pc}
20006298:	0051      	lsls	r1, r2, #1
2000629a:	1a09      	subs	r1, r1, r0
2000629c:	185b      	adds	r3, r3, r1
2000629e:	b29b      	uxth	r3, r3
200062a0:	e7f4      	b.n	2000628c <tu_fifo_count+0x14>
200062a2:	46c0      	nop			; (mov r8, r8)

200062a4 <tu_fifo_empty>:
200062a4:	8903      	ldrh	r3, [r0, #8]
200062a6:	8940      	ldrh	r0, [r0, #10]
200062a8:	1a18      	subs	r0, r3, r0
200062aa:	4243      	negs	r3, r0
200062ac:	4158      	adcs	r0, r3
200062ae:	b2c0      	uxtb	r0, r0
200062b0:	4770      	bx	lr
200062b2:	46c0      	nop			; (mov r8, r8)

200062b4 <tu_fifo_remaining>:
200062b4:	b510      	push	{r4, lr}
200062b6:	8904      	ldrh	r4, [r0, #8]
200062b8:	8941      	ldrh	r1, [r0, #10]
200062ba:	8882      	ldrh	r2, [r0, #4]
200062bc:	b2a3      	uxth	r3, r4
200062be:	b288      	uxth	r0, r1
200062c0:	428c      	cmp	r4, r1
200062c2:	d307      	bcc.n	200062d4 <tu_fifo_remaining+0x20>
200062c4:	1a1b      	subs	r3, r3, r0
200062c6:	b29b      	uxth	r3, r3
200062c8:	2000      	movs	r0, #0
200062ca:	429a      	cmp	r2, r3
200062cc:	d901      	bls.n	200062d2 <tu_fifo_remaining+0x1e>
200062ce:	1ad2      	subs	r2, r2, r3
200062d0:	b290      	uxth	r0, r2
200062d2:	bd10      	pop	{r4, pc}
200062d4:	0051      	lsls	r1, r2, #1
200062d6:	1a09      	subs	r1, r1, r0
200062d8:	185b      	adds	r3, r3, r1
200062da:	b29b      	uxth	r3, r3
200062dc:	e7f4      	b.n	200062c8 <tu_fifo_remaining+0x14>
200062de:	46c0      	nop			; (mov r8, r8)

200062e0 <tu_fifo_read>:
200062e0:	b570      	push	{r4, r5, r6, lr}
200062e2:	0004      	movs	r4, r0
200062e4:	6900      	ldr	r0, [r0, #16]
200062e6:	000e      	movs	r6, r1
200062e8:	2800      	cmp	r0, #0
200062ea:	d003      	beq.n	200062f4 <tu_fifo_read+0x14>
200062ec:	2101      	movs	r1, #1
200062ee:	4249      	negs	r1, r1
200062f0:	f002 fd9e 	bl	20008e30 <mutex_enter_timeout_ms>
200062f4:	8925      	ldrh	r5, [r4, #8]
200062f6:	8960      	ldrh	r0, [r4, #10]
200062f8:	88a2      	ldrh	r2, [r4, #4]
200062fa:	b2a9      	uxth	r1, r5
200062fc:	b283      	uxth	r3, r0
200062fe:	4285      	cmp	r5, r0
20006300:	d32b      	bcc.n	2000635a <tu_fifo_read+0x7a>
20006302:	1acd      	subs	r5, r1, r3
20006304:	b2ad      	uxth	r5, r5
20006306:	2d00      	cmp	r5, #0
20006308:	d02d      	beq.n	20006366 <tu_fifo_read+0x86>
2000630a:	42aa      	cmp	r2, r5
2000630c:	d208      	bcs.n	20006320 <tu_fifo_read+0x40>
2000630e:	4291      	cmp	r1, r2
20006310:	d32f      	bcc.n	20006372 <tu_fifo_read+0x92>
20006312:	1a89      	subs	r1, r1, r2
20006314:	b28b      	uxth	r3, r1
20006316:	8163      	strh	r3, [r4, #10]
20006318:	429a      	cmp	r2, r3
2000631a:	d803      	bhi.n	20006324 <tu_fifo_read+0x44>
2000631c:	1a9b      	subs	r3, r3, r2
2000631e:	b29b      	uxth	r3, r3
20006320:	429a      	cmp	r2, r3
20006322:	d9fb      	bls.n	2000631c <tu_fifo_read+0x3c>
20006324:	88e2      	ldrh	r2, [r4, #6]
20006326:	6821      	ldr	r1, [r4, #0]
20006328:	0452      	lsls	r2, r2, #17
2000632a:	0c52      	lsrs	r2, r2, #17
2000632c:	4353      	muls	r3, r2
2000632e:	0030      	movs	r0, r6
20006330:	18c9      	adds	r1, r1, r3
20006332:	f7fd feb1 	bl	20004098 <__wrap___aeabi_memcpy>
20006336:	8963      	ldrh	r3, [r4, #10]
20006338:	2501      	movs	r5, #1
2000633a:	1c59      	adds	r1, r3, #1
2000633c:	b289      	uxth	r1, r1
2000633e:	88a2      	ldrh	r2, [r4, #4]
20006340:	428b      	cmp	r3, r1
20006342:	d912      	bls.n	2000636a <tu_fifo_read+0x8a>
20006344:	0052      	lsls	r2, r2, #1
20006346:	1a89      	subs	r1, r1, r2
20006348:	b289      	uxth	r1, r1
2000634a:	6920      	ldr	r0, [r4, #16]
2000634c:	8161      	strh	r1, [r4, #10]
2000634e:	2800      	cmp	r0, #0
20006350:	d001      	beq.n	20006356 <tu_fifo_read+0x76>
20006352:	f002 fda9 	bl	20008ea8 <mutex_exit>
20006356:	0028      	movs	r0, r5
20006358:	bd70      	pop	{r4, r5, r6, pc}
2000635a:	0055      	lsls	r5, r2, #1
2000635c:	1aed      	subs	r5, r5, r3
2000635e:	194d      	adds	r5, r1, r5
20006360:	b2ad      	uxth	r5, r5
20006362:	2d00      	cmp	r5, #0
20006364:	d1d1      	bne.n	2000630a <tu_fifo_read+0x2a>
20006366:	8961      	ldrh	r1, [r4, #10]
20006368:	b289      	uxth	r1, r1
2000636a:	0052      	lsls	r2, r2, #1
2000636c:	4291      	cmp	r1, r2
2000636e:	dbec      	blt.n	2000634a <tu_fifo_read+0x6a>
20006370:	e7e9      	b.n	20006346 <tu_fifo_read+0x66>
20006372:	1889      	adds	r1, r1, r2
20006374:	b28b      	uxth	r3, r1
20006376:	8163      	strh	r3, [r4, #10]
20006378:	e7ce      	b.n	20006318 <tu_fifo_read+0x38>
2000637a:	46c0      	nop			; (mov r8, r8)

2000637c <tu_fifo_read_n>:
2000637c:	b5f0      	push	{r4, r5, r6, r7, lr}
2000637e:	4646      	mov	r6, r8
20006380:	464f      	mov	r7, r9
20006382:	46d6      	mov	lr, sl
20006384:	b5c0      	push	{r6, r7, lr}
20006386:	0006      	movs	r6, r0
20006388:	6900      	ldr	r0, [r0, #16]
2000638a:	4689      	mov	r9, r1
2000638c:	4690      	mov	r8, r2
2000638e:	2800      	cmp	r0, #0
20006390:	d003      	beq.n	2000639a <tu_fifo_read_n+0x1e>
20006392:	2101      	movs	r1, #1
20006394:	4249      	negs	r1, r1
20006396:	f002 fd4b 	bl	20008e30 <mutex_enter_timeout_ms>
2000639a:	8931      	ldrh	r1, [r6, #8]
2000639c:	8972      	ldrh	r2, [r6, #10]
2000639e:	88b5      	ldrh	r5, [r6, #4]
200063a0:	b28b      	uxth	r3, r1
200063a2:	b294      	uxth	r4, r2
200063a4:	4291      	cmp	r1, r2
200063a6:	d354      	bcc.n	20006452 <tu_fifo_read_n+0xd6>
200063a8:	1b1f      	subs	r7, r3, r4
200063aa:	b2bf      	uxth	r7, r7
200063ac:	2f00      	cmp	r7, #0
200063ae:	d04a      	beq.n	20006446 <tu_fifo_read_n+0xca>
200063b0:	42bd      	cmp	r5, r7
200063b2:	d205      	bcs.n	200063c0 <tu_fifo_read_n+0x44>
200063b4:	42ab      	cmp	r3, r5
200063b6:	d251      	bcs.n	2000645c <tu_fifo_read_n+0xe0>
200063b8:	195b      	adds	r3, r3, r5
200063ba:	b29c      	uxth	r4, r3
200063bc:	002f      	movs	r7, r5
200063be:	8174      	strh	r4, [r6, #10]
200063c0:	4643      	mov	r3, r8
200063c2:	45b8      	cmp	r8, r7
200063c4:	d83d      	bhi.n	20006442 <tu_fifo_read_n+0xc6>
200063c6:	b29f      	uxth	r7, r3
200063c8:	42a5      	cmp	r5, r4
200063ca:	d803      	bhi.n	200063d4 <tu_fifo_read_n+0x58>
200063cc:	1b64      	subs	r4, r4, r5
200063ce:	b2a4      	uxth	r4, r4
200063d0:	42a5      	cmp	r5, r4
200063d2:	d9fb      	bls.n	200063cc <tu_fifo_read_n+0x50>
200063d4:	88f2      	ldrh	r2, [r6, #6]
200063d6:	6831      	ldr	r1, [r6, #0]
200063d8:	0452      	lsls	r2, r2, #17
200063da:	0c52      	lsrs	r2, r2, #17
200063dc:	4690      	mov	r8, r2
200063de:	4362      	muls	r2, r4
200063e0:	1b2b      	subs	r3, r5, r4
200063e2:	b29b      	uxth	r3, r3
200063e4:	1889      	adds	r1, r1, r2
200063e6:	4642      	mov	r2, r8
200063e8:	429f      	cmp	r7, r3
200063ea:	d925      	bls.n	20006438 <tu_fifo_read_n+0xbc>
200063ec:	4353      	muls	r3, r2
200063ee:	b29b      	uxth	r3, r3
200063f0:	001a      	movs	r2, r3
200063f2:	4648      	mov	r0, r9
200063f4:	469a      	mov	sl, r3
200063f6:	f7fd fe4f 	bl	20004098 <__wrap___aeabi_memcpy>
200063fa:	4643      	mov	r3, r8
200063fc:	4648      	mov	r0, r9
200063fe:	1b7d      	subs	r5, r7, r5
20006400:	1964      	adds	r4, r4, r5
20006402:	435c      	muls	r4, r3
20006404:	6831      	ldr	r1, [r6, #0]
20006406:	4450      	add	r0, sl
20006408:	b2a2      	uxth	r2, r4
2000640a:	f7fd fe45 	bl	20004098 <__wrap___aeabi_memcpy>
2000640e:	8971      	ldrh	r1, [r6, #10]
20006410:	88b5      	ldrh	r5, [r6, #4]
20006412:	19cb      	adds	r3, r1, r7
20006414:	b29b      	uxth	r3, r3
20006416:	006a      	lsls	r2, r5, #1
20006418:	4299      	cmp	r1, r3
2000641a:	d916      	bls.n	2000644a <tu_fifo_read_n+0xce>
2000641c:	1a9b      	subs	r3, r3, r2
2000641e:	b29b      	uxth	r3, r3
20006420:	6930      	ldr	r0, [r6, #16]
20006422:	8173      	strh	r3, [r6, #10]
20006424:	2800      	cmp	r0, #0
20006426:	d001      	beq.n	2000642c <tu_fifo_read_n+0xb0>
20006428:	f002 fd3e 	bl	20008ea8 <mutex_exit>
2000642c:	0038      	movs	r0, r7
2000642e:	bce0      	pop	{r5, r6, r7}
20006430:	46ba      	mov	sl, r7
20006432:	46b1      	mov	r9, r6
20006434:	46a8      	mov	r8, r5
20006436:	bdf0      	pop	{r4, r5, r6, r7, pc}
20006438:	4648      	mov	r0, r9
2000643a:	437a      	muls	r2, r7
2000643c:	f7fd fe2c 	bl	20004098 <__wrap___aeabi_memcpy>
20006440:	e7e5      	b.n	2000640e <tu_fifo_read_n+0x92>
20006442:	1c3b      	adds	r3, r7, #0
20006444:	e7bf      	b.n	200063c6 <tu_fifo_read_n+0x4a>
20006446:	8973      	ldrh	r3, [r6, #10]
20006448:	b29b      	uxth	r3, r3
2000644a:	006a      	lsls	r2, r5, #1
2000644c:	4293      	cmp	r3, r2
2000644e:	dbe7      	blt.n	20006420 <tu_fifo_read_n+0xa4>
20006450:	e7e4      	b.n	2000641c <tu_fifo_read_n+0xa0>
20006452:	006f      	lsls	r7, r5, #1
20006454:	1b3f      	subs	r7, r7, r4
20006456:	19df      	adds	r7, r3, r7
20006458:	b2bf      	uxth	r7, r7
2000645a:	e7a7      	b.n	200063ac <tu_fifo_read_n+0x30>
2000645c:	1b5b      	subs	r3, r3, r5
2000645e:	b29c      	uxth	r4, r3
20006460:	e7ac      	b.n	200063bc <tu_fifo_read_n+0x40>
20006462:	46c0      	nop			; (mov r8, r8)

20006464 <tu_fifo_write>:
20006464:	b5f8      	push	{r3, r4, r5, r6, r7, lr}
20006466:	0004      	movs	r4, r0
20006468:	68c0      	ldr	r0, [r0, #12]
2000646a:	000e      	movs	r6, r1
2000646c:	2800      	cmp	r0, #0
2000646e:	d003      	beq.n	20006478 <tu_fifo_write+0x14>
20006470:	2101      	movs	r1, #1
20006472:	4249      	negs	r1, r1
20006474:	f002 fcdc 	bl	20008e30 <mutex_enter_timeout_ms>
20006478:	8925      	ldrh	r5, [r4, #8]
2000647a:	8920      	ldrh	r0, [r4, #8]
2000647c:	8961      	ldrh	r1, [r4, #10]
2000647e:	88a2      	ldrh	r2, [r4, #4]
20006480:	b2ad      	uxth	r5, r5
20006482:	b283      	uxth	r3, r0
20006484:	b28f      	uxth	r7, r1
20006486:	4288      	cmp	r0, r1
20006488:	d328      	bcc.n	200064dc <tu_fifo_write+0x78>
2000648a:	1bdb      	subs	r3, r3, r7
2000648c:	b29b      	uxth	r3, r3
2000648e:	429a      	cmp	r2, r3
20006490:	d809      	bhi.n	200064a6 <tu_fifo_write+0x42>
20006492:	79e7      	ldrb	r7, [r4, #7]
20006494:	09ff      	lsrs	r7, r7, #7
20006496:	d106      	bne.n	200064a6 <tu_fifo_write+0x42>
20006498:	68e0      	ldr	r0, [r4, #12]
2000649a:	2800      	cmp	r0, #0
2000649c:	d001      	beq.n	200064a2 <tu_fifo_write+0x3e>
2000649e:	f002 fd03 	bl	20008ea8 <mutex_exit>
200064a2:	0038      	movs	r0, r7
200064a4:	bdf8      	pop	{r3, r4, r5, r6, r7, pc}
200064a6:	002b      	movs	r3, r5
200064a8:	4295      	cmp	r5, r2
200064aa:	d303      	bcc.n	200064b4 <tu_fifo_write+0x50>
200064ac:	1a9b      	subs	r3, r3, r2
200064ae:	b29b      	uxth	r3, r3
200064b0:	4293      	cmp	r3, r2
200064b2:	d2fb      	bcs.n	200064ac <tu_fifo_write+0x48>
200064b4:	88e2      	ldrh	r2, [r4, #6]
200064b6:	6820      	ldr	r0, [r4, #0]
200064b8:	0452      	lsls	r2, r2, #17
200064ba:	0c52      	lsrs	r2, r2, #17
200064bc:	4353      	muls	r3, r2
200064be:	0031      	movs	r1, r6
200064c0:	18c0      	adds	r0, r0, r3
200064c2:	f7fd fde9 	bl	20004098 <__wrap___aeabi_memcpy>
200064c6:	88a2      	ldrh	r2, [r4, #4]
200064c8:	1c6b      	adds	r3, r5, #1
200064ca:	b29b      	uxth	r3, r3
200064cc:	0052      	lsls	r2, r2, #1
200064ce:	429d      	cmp	r5, r3
200064d0:	d909      	bls.n	200064e6 <tu_fifo_write+0x82>
200064d2:	1a9b      	subs	r3, r3, r2
200064d4:	b29b      	uxth	r3, r3
200064d6:	2701      	movs	r7, #1
200064d8:	8123      	strh	r3, [r4, #8]
200064da:	e7dd      	b.n	20006498 <tu_fifo_write+0x34>
200064dc:	0051      	lsls	r1, r2, #1
200064de:	1bc9      	subs	r1, r1, r7
200064e0:	185b      	adds	r3, r3, r1
200064e2:	b29b      	uxth	r3, r3
200064e4:	e7d3      	b.n	2000648e <tu_fifo_write+0x2a>
200064e6:	4293      	cmp	r3, r2
200064e8:	dbf5      	blt.n	200064d6 <tu_fifo_write+0x72>
200064ea:	e7f2      	b.n	200064d2 <tu_fifo_write+0x6e>

200064ec <tu_fifo_write_n>:
200064ec:	b5f0      	push	{r4, r5, r6, r7, lr}
200064ee:	4645      	mov	r5, r8
200064f0:	46de      	mov	lr, fp
200064f2:	4657      	mov	r7, sl
200064f4:	464e      	mov	r6, r9
200064f6:	b5e0      	push	{r5, r6, r7, lr}
200064f8:	4688      	mov	r8, r1
200064fa:	0005      	movs	r5, r0
200064fc:	0014      	movs	r4, r2
200064fe:	b083      	sub	sp, #12
20006500:	2a00      	cmp	r2, #0
20006502:	d06f      	beq.n	200065e4 <tu_fifo_write_n+0xf8>
20006504:	68c0      	ldr	r0, [r0, #12]
20006506:	2800      	cmp	r0, #0
20006508:	d003      	beq.n	20006512 <tu_fifo_write_n+0x26>
2000650a:	2101      	movs	r1, #1
2000650c:	4249      	negs	r1, r1
2000650e:	f002 fc8f 	bl	20008e30 <mutex_enter_timeout_ms>
20006512:	892e      	ldrh	r6, [r5, #8]
20006514:	79eb      	ldrb	r3, [r5, #7]
20006516:	896a      	ldrh	r2, [r5, #10]
20006518:	b2b6      	uxth	r6, r6
2000651a:	b292      	uxth	r2, r2
2000651c:	09db      	lsrs	r3, r3, #7
2000651e:	d140      	bne.n	200065a2 <tu_fifo_write_n+0xb6>
20006520:	88ab      	ldrh	r3, [r5, #4]
20006522:	4296      	cmp	r6, r2
20006524:	d267      	bcs.n	200065f6 <tu_fifo_write_n+0x10a>
20006526:	0059      	lsls	r1, r3, #1
20006528:	1a8a      	subs	r2, r1, r2
2000652a:	18b2      	adds	r2, r6, r2
2000652c:	b292      	uxth	r2, r2
2000652e:	2700      	movs	r7, #0
20006530:	4293      	cmp	r3, r2
20006532:	d930      	bls.n	20006596 <tu_fifo_write_n+0xaa>
20006534:	1a9a      	subs	r2, r3, r2
20006536:	1c17      	adds	r7, r2, #0
20006538:	b292      	uxth	r2, r2
2000653a:	42a2      	cmp	r2, r4
2000653c:	d900      	bls.n	20006540 <tu_fifo_write_n+0x54>
2000653e:	1c27      	adds	r7, r4, #0
20006540:	88ea      	ldrh	r2, [r5, #6]
20006542:	b2bf      	uxth	r7, r7
20006544:	0452      	lsls	r2, r2, #17
20006546:	0c52      	lsrs	r2, r2, #17
20006548:	4691      	mov	r9, r2
2000654a:	19f2      	adds	r2, r6, r7
2000654c:	b292      	uxth	r2, r2
2000654e:	4692      	mov	sl, r2
20006550:	1afa      	subs	r2, r7, r3
20006552:	b292      	uxth	r2, r2
20006554:	4693      	mov	fp, r2
20006556:	0034      	movs	r4, r6
20006558:	42b3      	cmp	r3, r6
2000655a:	d803      	bhi.n	20006564 <tu_fifo_write_n+0x78>
2000655c:	1ae4      	subs	r4, r4, r3
2000655e:	b2a4      	uxth	r4, r4
20006560:	429c      	cmp	r4, r3
20006562:	d2fb      	bcs.n	2000655c <tu_fifo_write_n+0x70>
20006564:	464a      	mov	r2, r9
20006566:	4362      	muls	r2, r4
20006568:	6828      	ldr	r0, [r5, #0]
2000656a:	1b1b      	subs	r3, r3, r4
2000656c:	b29b      	uxth	r3, r3
2000656e:	1880      	adds	r0, r0, r2
20006570:	464a      	mov	r2, r9
20006572:	42bb      	cmp	r3, r7
20006574:	d353      	bcc.n	2000661e <tu_fifo_write_n+0x132>
20006576:	4641      	mov	r1, r8
20006578:	437a      	muls	r2, r7
2000657a:	f7fd fd8d 	bl	20004098 <__wrap___aeabi_memcpy>
2000657e:	88ab      	ldrh	r3, [r5, #4]
20006580:	005b      	lsls	r3, r3, #1
20006582:	45b2      	cmp	sl, r6
20006584:	d301      	bcc.n	2000658a <tu_fifo_write_n+0x9e>
20006586:	459a      	cmp	sl, r3
20006588:	db03      	blt.n	20006592 <tu_fifo_write_n+0xa6>
2000658a:	4652      	mov	r2, sl
2000658c:	1ad3      	subs	r3, r2, r3
2000658e:	b29b      	uxth	r3, r3
20006590:	469a      	mov	sl, r3
20006592:	4653      	mov	r3, sl
20006594:	812b      	strh	r3, [r5, #8]
20006596:	68e8      	ldr	r0, [r5, #12]
20006598:	2800      	cmp	r0, #0
2000659a:	d024      	beq.n	200065e6 <tu_fifo_write_n+0xfa>
2000659c:	f002 fc84 	bl	20008ea8 <mutex_exit>
200065a0:	e021      	b.n	200065e6 <tu_fifo_write_n+0xfa>
200065a2:	88af      	ldrh	r7, [r5, #4]
200065a4:	42bc      	cmp	r4, r7
200065a6:	d229      	bcs.n	200065fc <tu_fifo_write_n+0x110>
200065a8:	4296      	cmp	r6, r2
200065aa:	d34a      	bcc.n	20006642 <tu_fifo_write_n+0x156>
200065ac:	1ab3      	subs	r3, r6, r2
200065ae:	b29b      	uxth	r3, r3
200065b0:	0079      	lsls	r1, r7, #1
200065b2:	191b      	adds	r3, r3, r4
200065b4:	428b      	cmp	r3, r1
200065b6:	db08      	blt.n	200065ca <tu_fifo_write_n+0xde>
200065b8:	19d3      	adds	r3, r2, r7
200065ba:	b29b      	uxth	r3, r3
200065bc:	1b1e      	subs	r6, r3, r4
200065be:	b2b6      	uxth	r6, r6
200065c0:	469a      	mov	sl, r3
200065c2:	42b2      	cmp	r2, r6
200065c4:	d942      	bls.n	2000664c <tu_fifo_write_n+0x160>
200065c6:	1a76      	subs	r6, r6, r1
200065c8:	b2b6      	uxth	r6, r6
200065ca:	88eb      	ldrh	r3, [r5, #6]
200065cc:	045b      	lsls	r3, r3, #17
200065ce:	0c5b      	lsrs	r3, r3, #17
200065d0:	4699      	mov	r9, r3
200065d2:	19a3      	adds	r3, r4, r6
200065d4:	b29b      	uxth	r3, r3
200065d6:	469a      	mov	sl, r3
200065d8:	1be3      	subs	r3, r4, r7
200065da:	b29b      	uxth	r3, r3
200065dc:	469b      	mov	fp, r3
200065de:	003b      	movs	r3, r7
200065e0:	0027      	movs	r7, r4
200065e2:	e7b8      	b.n	20006556 <tu_fifo_write_n+0x6a>
200065e4:	2700      	movs	r7, #0
200065e6:	0038      	movs	r0, r7
200065e8:	b003      	add	sp, #12
200065ea:	bcf0      	pop	{r4, r5, r6, r7}
200065ec:	46bb      	mov	fp, r7
200065ee:	46b2      	mov	sl, r6
200065f0:	46a9      	mov	r9, r5
200065f2:	46a0      	mov	r8, r4
200065f4:	bdf0      	pop	{r4, r5, r6, r7, pc}
200065f6:	1ab2      	subs	r2, r6, r2
200065f8:	b292      	uxth	r2, r2
200065fa:	e798      	b.n	2000652e <tu_fifo_write_n+0x42>
200065fc:	2f00      	cmp	r7, #0
200065fe:	d0ca      	beq.n	20006596 <tu_fifo_write_n+0xaa>
20006600:	88eb      	ldrh	r3, [r5, #6]
20006602:	1be4      	subs	r4, r4, r7
20006604:	045b      	lsls	r3, r3, #17
20006606:	0c5b      	lsrs	r3, r3, #17
20006608:	435c      	muls	r4, r3
2000660a:	4699      	mov	r9, r3
2000660c:	0016      	movs	r6, r2
2000660e:	19d3      	adds	r3, r2, r7
20006610:	2200      	movs	r2, #0
20006612:	b29b      	uxth	r3, r3
20006614:	469a      	mov	sl, r3
20006616:	4693      	mov	fp, r2
20006618:	003b      	movs	r3, r7
2000661a:	44a0      	add	r8, r4
2000661c:	e79b      	b.n	20006556 <tu_fifo_write_n+0x6a>
2000661e:	4353      	muls	r3, r2
20006620:	b299      	uxth	r1, r3
20006622:	000a      	movs	r2, r1
20006624:	9101      	str	r1, [sp, #4]
20006626:	445c      	add	r4, fp
20006628:	4641      	mov	r1, r8
2000662a:	f7fd fd35 	bl	20004098 <__wrap___aeabi_memcpy>
2000662e:	0022      	movs	r2, r4
20006630:	464b      	mov	r3, r9
20006632:	435a      	muls	r2, r3
20006634:	9901      	ldr	r1, [sp, #4]
20006636:	6828      	ldr	r0, [r5, #0]
20006638:	b292      	uxth	r2, r2
2000663a:	4441      	add	r1, r8
2000663c:	f7fd fd2c 	bl	20004098 <__wrap___aeabi_memcpy>
20006640:	e79d      	b.n	2000657e <tu_fifo_write_n+0x92>
20006642:	0079      	lsls	r1, r7, #1
20006644:	1a8b      	subs	r3, r1, r2
20006646:	18f3      	adds	r3, r6, r3
20006648:	b29b      	uxth	r3, r3
2000664a:	e7b2      	b.n	200065b2 <tu_fifo_write_n+0xc6>
2000664c:	42b1      	cmp	r1, r6
2000664e:	ddba      	ble.n	200065c6 <tu_fifo_write_n+0xda>
20006650:	88eb      	ldrh	r3, [r5, #6]
20006652:	045b      	lsls	r3, r3, #17
20006654:	0c5b      	lsrs	r3, r3, #17
20006656:	4699      	mov	r9, r3
20006658:	e7be      	b.n	200065d8 <tu_fifo_write_n+0xec>
2000665a:	46c0      	nop			; (mov r8, r8)

2000665c <tu_fifo_clear>:
2000665c:	b510      	push	{r4, lr}
2000665e:	0004      	movs	r4, r0
20006660:	68c0      	ldr	r0, [r0, #12]
20006662:	2800      	cmp	r0, #0
20006664:	d003      	beq.n	2000666e <tu_fifo_clear+0x12>
20006666:	2101      	movs	r1, #1
20006668:	4249      	negs	r1, r1
2000666a:	f002 fbe1 	bl	20008e30 <mutex_enter_timeout_ms>
2000666e:	6920      	ldr	r0, [r4, #16]
20006670:	2800      	cmp	r0, #0
20006672:	d003      	beq.n	2000667c <tu_fifo_clear+0x20>
20006674:	2101      	movs	r1, #1
20006676:	4249      	negs	r1, r1
20006678:	f002 fbda 	bl	20008e30 <mutex_enter_timeout_ms>
2000667c:	2300      	movs	r3, #0
2000667e:	68e0      	ldr	r0, [r4, #12]
20006680:	8163      	strh	r3, [r4, #10]
20006682:	8123      	strh	r3, [r4, #8]
20006684:	2800      	cmp	r0, #0
20006686:	d001      	beq.n	2000668c <tu_fifo_clear+0x30>
20006688:	f002 fc0e 	bl	20008ea8 <mutex_exit>
2000668c:	6920      	ldr	r0, [r4, #16]
2000668e:	2800      	cmp	r0, #0
20006690:	d001      	beq.n	20006696 <tu_fifo_clear+0x3a>
20006692:	f002 fc09 	bl	20008ea8 <mutex_exit>
20006696:	2001      	movs	r0, #1
20006698:	bd10      	pop	{r4, pc}
2000669a:	46c0      	nop			; (mov r8, r8)

2000669c <tu_fifo_set_overwritable>:
2000669c:	b570      	push	{r4, r5, r6, lr}
2000669e:	0004      	movs	r4, r0
200066a0:	68c0      	ldr	r0, [r0, #12]
200066a2:	000d      	movs	r5, r1
200066a4:	2800      	cmp	r0, #0
200066a6:	d003      	beq.n	200066b0 <tu_fifo_set_overwritable+0x14>
200066a8:	2101      	movs	r1, #1
200066aa:	4249      	negs	r1, r1
200066ac:	f002 fbc0 	bl	20008e30 <mutex_enter_timeout_ms>
200066b0:	6920      	ldr	r0, [r4, #16]
200066b2:	2800      	cmp	r0, #0
200066b4:	d003      	beq.n	200066be <tu_fifo_set_overwritable+0x22>
200066b6:	2101      	movs	r1, #1
200066b8:	4249      	negs	r1, r1
200066ba:	f002 fbb9 	bl	20008e30 <mutex_enter_timeout_ms>
200066be:	217f      	movs	r1, #127	; 0x7f
200066c0:	79e3      	ldrb	r3, [r4, #7]
200066c2:	01ed      	lsls	r5, r5, #7
200066c4:	4019      	ands	r1, r3
200066c6:	68e0      	ldr	r0, [r4, #12]
200066c8:	4329      	orrs	r1, r5
200066ca:	71e1      	strb	r1, [r4, #7]
200066cc:	2800      	cmp	r0, #0
200066ce:	d001      	beq.n	200066d4 <tu_fifo_set_overwritable+0x38>
200066d0:	f002 fbea 	bl	20008ea8 <mutex_exit>
200066d4:	6920      	ldr	r0, [r4, #16]
200066d6:	2800      	cmp	r0, #0
200066d8:	d001      	beq.n	200066de <tu_fifo_set_overwritable+0x42>
200066da:	f002 fbe5 	bl	20008ea8 <mutex_exit>
200066de:	2001      	movs	r0, #1
200066e0:	bd70      	pop	{r4, r5, r6, pc}
200066e2:	46c0      	nop			; (mov r8, r8)

200066e4 <hw_enumeration_fix_force_ls_j_done>:
200066e4:	2180      	movs	r1, #128	; 0x80
200066e6:	4a0a      	ldr	r2, [pc, #40]	; (20006710 <hw_enumeration_fix_force_ls_j_done+0x2c>)
200066e8:	0249      	lsls	r1, r1, #9
200066ea:	6d13      	ldr	r3, [r2, #80]	; 0x50
200066ec:	420b      	tst	r3, r1
200066ee:	d0fc      	beq.n	200066ea <hw_enumeration_fix_force_ls_j_done+0x6>
200066f0:	2309      	movs	r3, #9
200066f2:	6753      	str	r3, [r2, #116]	; 0x74
200066f4:	2204      	movs	r2, #4
200066f6:	4b07      	ldr	r3, [pc, #28]	; (20006714 <hw_enumeration_fix_force_ls_j_done+0x30>)
200066f8:	2000      	movs	r0, #0
200066fa:	601a      	str	r2, [r3, #0]
200066fc:	4b06      	ldr	r3, [pc, #24]	; (20006718 <hw_enumeration_fix_force_ls_j_done+0x34>)
200066fe:	2100      	movs	r1, #0
20006700:	681a      	ldr	r2, [r3, #0]
20006702:	4b06      	ldr	r3, [pc, #24]	; (2000671c <hw_enumeration_fix_force_ls_j_done+0x38>)
20006704:	67da      	str	r2, [r3, #124]	; 0x7c
20006706:	4b06      	ldr	r3, [pc, #24]	; (20006720 <hw_enumeration_fix_force_ls_j_done+0x3c>)
20006708:	681a      	ldr	r2, [r3, #0]
2000670a:	4b06      	ldr	r3, [pc, #24]	; (20006724 <hw_enumeration_fix_force_ls_j_done+0x40>)
2000670c:	641a      	str	r2, [r3, #64]	; 0x40
2000670e:	4770      	bx	lr
20006710:	50110000 	.word	0x50110000
20006714:	50113080 	.word	0x50113080
20006718:	2000fd48 	.word	0x2000fd48
2000671c:	40014000 	.word	0x40014000
20006720:	20010158 	.word	0x20010158
20006724:	4001c000 	.word	0x4001c000

20006728 <hw_enumeration_fix_force_ls_j>:
20006728:	b570      	push	{r4, r5, r6, lr}
2000672a:	2010      	movs	r0, #16
2000672c:	b084      	sub	sp, #16
2000672e:	f7fc fd2f 	bl	20003190 <gpio_get_function>
20006732:	2808      	cmp	r0, #8
20006734:	d062      	beq.n	200067fc <hw_enumeration_fix_force_ls_j+0xd4>
20006736:	4b33      	ldr	r3, [pc, #204]	; (20006804 <hw_enumeration_fix_force_ls_j+0xdc>)
20006738:	4d33      	ldr	r5, [pc, #204]	; (20006808 <hw_enumeration_fix_force_ls_j+0xe0>)
2000673a:	6fdb      	ldr	r3, [r3, #124]	; 0x7c
2000673c:	4c33      	ldr	r4, [pc, #204]	; (2000680c <hw_enumeration_fix_force_ls_j+0xe4>)
2000673e:	602b      	str	r3, [r5, #0]
20006740:	4b33      	ldr	r3, [pc, #204]	; (20006810 <hw_enumeration_fix_force_ls_j+0xe8>)
20006742:	2201      	movs	r2, #1
20006744:	6c1b      	ldr	r3, [r3, #64]	; 0x40
20006746:	2101      	movs	r1, #1
20006748:	200f      	movs	r0, #15
2000674a:	6023      	str	r3, [r4, #0]
2000674c:	f7fc fd2a 	bl	200031a4 <gpio_set_pulls>
20006750:	2102      	movs	r1, #2
20006752:	200f      	movs	r0, #15
20006754:	f7fc fd4a 	bl	200031ec <gpio_set_oeover>
20006758:	4b2e      	ldr	r3, [pc, #184]	; (20006814 <hw_enumeration_fix_force_ls_j+0xec>)
2000675a:	2103      	movs	r1, #3
2000675c:	681a      	ldr	r2, [r3, #0]
2000675e:	2308      	movs	r3, #8
20006760:	405a      	eors	r2, r3
20006762:	3317      	adds	r3, #23
20006764:	4013      	ands	r3, r2
20006766:	4a2c      	ldr	r2, [pc, #176]	; (20006818 <hw_enumeration_fix_force_ls_j+0xf0>)
20006768:	200f      	movs	r0, #15
2000676a:	6013      	str	r3, [r2, #0]
2000676c:	f7fc fd2c 	bl	200031c8 <gpio_set_inover>
20006770:	2202      	movs	r2, #2
20006772:	2104      	movs	r1, #4
20006774:	4b29      	ldr	r3, [pc, #164]	; (2000681c <hw_enumeration_fix_force_ls_j+0xf4>)
20006776:	67da      	str	r2, [r3, #124]	; 0x7c
20006778:	327e      	adds	r2, #126	; 0x7e
2000677a:	5099      	str	r1, [r3, r2]
2000677c:	4b28      	ldr	r3, [pc, #160]	; (20006820 <hw_enumeration_fix_force_ls_j+0xf8>)
2000677e:	3a74      	subs	r2, #116	; 0x74
20006780:	675a      	str	r2, [r3, #116]	; 0x74
20006782:	6d1b      	ldr	r3, [r3, #80]	; 0x50
20006784:	071b      	lsls	r3, r3, #28
20006786:	0f9b      	lsrs	r3, r3, #30
20006788:	2b01      	cmp	r3, #1
2000678a:	d134      	bne.n	200067f6 <hw_enumeration_fix_force_ls_j+0xce>
2000678c:	f7fb fcfc 	bl	20002188 <alarm_pool_get_default>
20006790:	0006      	movs	r6, r0
20006792:	f7fb fea1 	bl	200024d8 <time_us_64>
20006796:	22fa      	movs	r2, #250	; 0xfa
20006798:	2300      	movs	r3, #0
2000679a:	0092      	lsls	r2, r2, #2
2000679c:	1812      	adds	r2, r2, r0
2000679e:	414b      	adcs	r3, r1
200067a0:	2180      	movs	r1, #128	; 0x80
200067a2:	0609      	lsls	r1, r1, #24
200067a4:	428b      	cmp	r3, r1
200067a6:	d302      	bcc.n	200067ae <hw_enumeration_fix_force_ls_j+0x86>
200067a8:	2201      	movs	r2, #1
200067aa:	4b1e      	ldr	r3, [pc, #120]	; (20006824 <hw_enumeration_fix_force_ls_j+0xfc>)
200067ac:	4252      	negs	r2, r2
200067ae:	2101      	movs	r1, #1
200067b0:	9102      	str	r1, [sp, #8]
200067b2:	2100      	movs	r1, #0
200067b4:	9101      	str	r1, [sp, #4]
200067b6:	491c      	ldr	r1, [pc, #112]	; (20006828 <hw_enumeration_fix_force_ls_j+0x100>)
200067b8:	0030      	movs	r0, r6
200067ba:	9100      	str	r1, [sp, #0]
200067bc:	f7fb fce8 	bl	20002190 <alarm_pool_add_alarm_at>
200067c0:	2800      	cmp	r0, #0
200067c2:	db01      	blt.n	200067c8 <hw_enumeration_fix_force_ls_j+0xa0>
200067c4:	b004      	add	sp, #16
200067c6:	bd70      	pop	{r4, r5, r6, pc}
200067c8:	20fa      	movs	r0, #250	; 0xfa
200067ca:	2100      	movs	r1, #0
200067cc:	0080      	lsls	r0, r0, #2
200067ce:	f7fb fe8d 	bl	200024ec <busy_wait_us>
200067d2:	2180      	movs	r1, #128	; 0x80
200067d4:	4a12      	ldr	r2, [pc, #72]	; (20006820 <hw_enumeration_fix_force_ls_j+0xf8>)
200067d6:	0249      	lsls	r1, r1, #9
200067d8:	6d13      	ldr	r3, [r2, #80]	; 0x50
200067da:	420b      	tst	r3, r1
200067dc:	d0fc      	beq.n	200067d8 <hw_enumeration_fix_force_ls_j+0xb0>
200067de:	2309      	movs	r3, #9
200067e0:	6753      	str	r3, [r2, #116]	; 0x74
200067e2:	2204      	movs	r2, #4
200067e4:	4b11      	ldr	r3, [pc, #68]	; (2000682c <hw_enumeration_fix_force_ls_j+0x104>)
200067e6:	601a      	str	r2, [r3, #0]
200067e8:	682a      	ldr	r2, [r5, #0]
200067ea:	4b06      	ldr	r3, [pc, #24]	; (20006804 <hw_enumeration_fix_force_ls_j+0xdc>)
200067ec:	67da      	str	r2, [r3, #124]	; 0x7c
200067ee:	6822      	ldr	r2, [r4, #0]
200067f0:	4b07      	ldr	r3, [pc, #28]	; (20006810 <hw_enumeration_fix_force_ls_j+0xe8>)
200067f2:	641a      	str	r2, [r3, #64]	; 0x40
200067f4:	e7e6      	b.n	200067c4 <hw_enumeration_fix_force_ls_j+0x9c>
200067f6:	f7fd f8df 	bl	200039b8 <hard_assertion_failure>
200067fa:	e7c7      	b.n	2000678c <hw_enumeration_fix_force_ls_j+0x64>
200067fc:	f7fd f8dc 	bl	200039b8 <hard_assertion_failure>
20006800:	e799      	b.n	20006736 <hw_enumeration_fix_force_ls_j+0xe>
20006802:	46c0      	nop			; (mov r8, r8)
20006804:	40014000 	.word	0x40014000
20006808:	2000fd48 	.word	0x2000fd48
2000680c:	20010158 	.word	0x20010158
20006810:	4001c000 	.word	0x4001c000
20006814:	4001407c 	.word	0x4001407c
20006818:	4001507c 	.word	0x4001507c
2000681c:	50112000 	.word	0x50112000
20006820:	50110000 	.word	0x50110000
20006824:	7fffffff 	.word	0x7fffffff
20006828:	200066e5 	.word	0x200066e5
2000682c:	50113080 	.word	0x50113080

20006830 <hw_enumeration_fix_wait_se0_callback>:
20006830:	4b07      	ldr	r3, [pc, #28]	; (20006850 <hw_enumeration_fix_wait_se0_callback+0x20>)
20006832:	b510      	push	{r4, lr}
20006834:	6d1b      	ldr	r3, [r3, #80]	; 0x50
20006836:	071b      	lsls	r3, r3, #28
20006838:	0f9b      	lsrs	r3, r3, #30
2000683a:	d103      	bne.n	20006844 <hw_enumeration_fix_wait_se0_callback+0x14>
2000683c:	20fa      	movs	r0, #250	; 0xfa
2000683e:	2100      	movs	r1, #0
20006840:	0080      	lsls	r0, r0, #2
20006842:	bd10      	pop	{r4, pc}
20006844:	f7ff ff70 	bl	20006728 <hw_enumeration_fix_force_ls_j>
20006848:	2000      	movs	r0, #0
2000684a:	2100      	movs	r1, #0
2000684c:	e7f9      	b.n	20006842 <hw_enumeration_fix_wait_se0_callback+0x12>
2000684e:	46c0      	nop			; (mov r8, r8)
20006850:	50110000 	.word	0x50110000

20006854 <rp2040_usb_device_enumeration_fix>:
20006854:	b510      	push	{r4, lr}
20006856:	b084      	sub	sp, #16
20006858:	f7fb ff50 	bl	200026fc <rp2040_chip_version>
2000685c:	2801      	cmp	r0, #1
2000685e:	d001      	beq.n	20006864 <rp2040_usb_device_enumeration_fix+0x10>
20006860:	b004      	add	sp, #16
20006862:	bd10      	pop	{r4, pc}
20006864:	f7fb fc90 	bl	20002188 <alarm_pool_get_default>
20006868:	0004      	movs	r4, r0
2000686a:	f7fb fe35 	bl	200024d8 <time_us_64>
2000686e:	22fa      	movs	r2, #250	; 0xfa
20006870:	2300      	movs	r3, #0
20006872:	0092      	lsls	r2, r2, #2
20006874:	1812      	adds	r2, r2, r0
20006876:	414b      	adcs	r3, r1
20006878:	2180      	movs	r1, #128	; 0x80
2000687a:	0609      	lsls	r1, r1, #24
2000687c:	428b      	cmp	r3, r1
2000687e:	d302      	bcc.n	20006886 <rp2040_usb_device_enumeration_fix+0x32>
20006880:	2201      	movs	r2, #1
20006882:	4b0b      	ldr	r3, [pc, #44]	; (200068b0 <rp2040_usb_device_enumeration_fix+0x5c>)
20006884:	4252      	negs	r2, r2
20006886:	2101      	movs	r1, #1
20006888:	9102      	str	r1, [sp, #8]
2000688a:	2100      	movs	r1, #0
2000688c:	9101      	str	r1, [sp, #4]
2000688e:	4909      	ldr	r1, [pc, #36]	; (200068b4 <rp2040_usb_device_enumeration_fix+0x60>)
20006890:	0020      	movs	r0, r4
20006892:	9100      	str	r1, [sp, #0]
20006894:	f7fb fc7c 	bl	20002190 <alarm_pool_add_alarm_at>
20006898:	2800      	cmp	r0, #0
2000689a:	dae1      	bge.n	20006860 <rp2040_usb_device_enumeration_fix+0xc>
2000689c:	2203      	movs	r2, #3
2000689e:	4906      	ldr	r1, [pc, #24]	; (200068b8 <rp2040_usb_device_enumeration_fix+0x64>)
200068a0:	6d0b      	ldr	r3, [r1, #80]	; 0x50
200068a2:	089b      	lsrs	r3, r3, #2
200068a4:	421a      	tst	r2, r3
200068a6:	d0fb      	beq.n	200068a0 <rp2040_usb_device_enumeration_fix+0x4c>
200068a8:	f7ff ff3e 	bl	20006728 <hw_enumeration_fix_force_ls_j>
200068ac:	e7d8      	b.n	20006860 <rp2040_usb_device_enumeration_fix+0xc>
200068ae:	46c0      	nop			; (mov r8, r8)
200068b0:	7fffffff 	.word	0x7fffffff
200068b4:	20006831 	.word	0x20006831
200068b8:	50110000 	.word	0x50110000

200068bc <board_init>:
200068bc:	b510      	push	{r4, lr}
200068be:	2019      	movs	r0, #25
200068c0:	f7fc fca6 	bl	20003210 <gpio_init>
200068c4:	23d0      	movs	r3, #208	; 0xd0
200068c6:	2280      	movs	r2, #128	; 0x80
200068c8:	21e1      	movs	r1, #225	; 0xe1
200068ca:	061b      	lsls	r3, r3, #24
200068cc:	0492      	lsls	r2, r2, #18
200068ce:	625a      	str	r2, [r3, #36]	; 0x24
200068d0:	4804      	ldr	r0, [pc, #16]	; (200068e4 <board_init+0x28>)
200068d2:	4b05      	ldr	r3, [pc, #20]	; (200068e8 <board_init+0x2c>)
200068d4:	2200      	movs	r2, #0
200068d6:	6018      	str	r0, [r3, #0]
200068d8:	0249      	lsls	r1, r1, #9
200068da:	2301      	movs	r3, #1
200068dc:	f7fd fe04 	bl	200044e8 <stdio_uart_init_full>
200068e0:	bd10      	pop	{r4, pc}
200068e2:	46c0      	nop			; (mov r8, r8)
200068e4:	40034000 	.word	0x40034000
200068e8:	2001048c 	.word	0x2001048c

200068ec <pio_add_program>:
200068ec:	b5f0      	push	{r4, r5, r6, r7, lr}
200068ee:	46de      	mov	lr, fp
200068f0:	4657      	mov	r7, sl
200068f2:	464e      	mov	r6, r9
200068f4:	4645      	mov	r5, r8
200068f6:	4688      	mov	r8, r1
200068f8:	b5e0      	push	{r5, r6, r7, lr}
200068fa:	b083      	sub	sp, #12
200068fc:	0006      	movs	r6, r0
200068fe:	2405      	movs	r4, #5
20006900:	f7fb ff02 	bl	20002708 <hw_claim_lock>
20006904:	4643      	mov	r3, r8
20006906:	791f      	ldrb	r7, [r3, #4]
20006908:	571c      	ldrsb	r4, [r3, r4]
2000690a:	4b31      	ldr	r3, [pc, #196]	; (200069d0 <pio_add_program+0xe4>)
2000690c:	4682      	mov	sl, r0
2000690e:	18f3      	adds	r3, r6, r3
20006910:	425a      	negs	r2, r3
20006912:	4153      	adcs	r3, r2
20006914:	009b      	lsls	r3, r3, #2
20006916:	469c      	mov	ip, r3
20006918:	4a2e      	ldr	r2, [pc, #184]	; (200069d4 <pio_add_program+0xe8>)
2000691a:	0013      	movs	r3, r2
2000691c:	4693      	mov	fp, r2
2000691e:	4662      	mov	r2, ip
20006920:	589b      	ldr	r3, [r3, r2]
20006922:	2201      	movs	r2, #1
20006924:	4699      	mov	r9, r3
20006926:	40ba      	lsls	r2, r7
20006928:	2320      	movs	r3, #32
2000692a:	3a01      	subs	r2, #1
2000692c:	1bdb      	subs	r3, r3, r7
2000692e:	2c00      	cmp	r4, #0
20006930:	db36      	blt.n	200069a0 <pio_add_program+0xb4>
20006932:	429c      	cmp	r4, r3
20006934:	dc46      	bgt.n	200069c4 <pio_add_program+0xd8>
20006936:	40a2      	lsls	r2, r4
20006938:	464b      	mov	r3, r9
2000693a:	4213      	tst	r3, r2
2000693c:	d142      	bne.n	200069c4 <pio_add_program+0xd8>
2000693e:	9201      	str	r2, [sp, #4]
20006940:	2f00      	cmp	r7, #0
20006942:	d01c      	beq.n	2000697e <pio_add_program+0x92>
20006944:	4642      	mov	r2, r8
20006946:	4643      	mov	r3, r8
20006948:	7852      	ldrb	r2, [r2, #1]
2000694a:	781b      	ldrb	r3, [r3, #0]
2000694c:	0212      	lsls	r2, r2, #8
2000694e:	431a      	orrs	r2, r3
20006950:	4643      	mov	r3, r8
20006952:	789b      	ldrb	r3, [r3, #2]
20006954:	2580      	movs	r5, #128	; 0x80
20006956:	041b      	lsls	r3, r3, #16
20006958:	4313      	orrs	r3, r2
2000695a:	4642      	mov	r2, r8
2000695c:	78d0      	ldrb	r0, [r2, #3]
2000695e:	2200      	movs	r2, #0
20006960:	0600      	lsls	r0, r0, #24
20006962:	4318      	orrs	r0, r3
20006964:	01ad      	lsls	r5, r5, #6
20006966:	0053      	lsls	r3, r2, #1
20006968:	5ac1      	ldrh	r1, [r0, r3]
2000696a:	42a9      	cmp	r1, r5
2000696c:	d200      	bcs.n	20006970 <pio_add_program+0x84>
2000696e:	1909      	adds	r1, r1, r4
20006970:	18a3      	adds	r3, r4, r2
20006972:	3312      	adds	r3, #18
20006974:	009b      	lsls	r3, r3, #2
20006976:	3201      	adds	r2, #1
20006978:	5199      	str	r1, [r3, r6]
2000697a:	42ba      	cmp	r2, r7
2000697c:	d3f3      	bcc.n	20006966 <pio_add_program+0x7a>
2000697e:	464d      	mov	r5, r9
20006980:	9b01      	ldr	r3, [sp, #4]
20006982:	4662      	mov	r2, ip
20006984:	431d      	orrs	r5, r3
20006986:	465b      	mov	r3, fp
20006988:	4650      	mov	r0, sl
2000698a:	509d      	str	r5, [r3, r2]
2000698c:	f7fb fec8 	bl	20002720 <hw_claim_unlock>
20006990:	0020      	movs	r0, r4
20006992:	b003      	add	sp, #12
20006994:	bcf0      	pop	{r4, r5, r6, r7}
20006996:	46bb      	mov	fp, r7
20006998:	46b2      	mov	sl, r6
2000699a:	46a9      	mov	r9, r5
2000699c:	46a0      	mov	r8, r4
2000699e:	bdf0      	pop	{r4, r5, r6, r7, pc}
200069a0:	2b00      	cmp	r3, #0
200069a2:	db0f      	blt.n	200069c4 <pio_add_program+0xd8>
200069a4:	0011      	movs	r1, r2
200069a6:	4648      	mov	r0, r9
200069a8:	4099      	lsls	r1, r3
200069aa:	001c      	movs	r4, r3
200069ac:	9101      	str	r1, [sp, #4]
200069ae:	4201      	tst	r1, r0
200069b0:	d106      	bne.n	200069c0 <pio_add_program+0xd4>
200069b2:	e7c5      	b.n	20006940 <pio_add_program+0x54>
200069b4:	0015      	movs	r5, r2
200069b6:	4649      	mov	r1, r9
200069b8:	409d      	lsls	r5, r3
200069ba:	001c      	movs	r4, r3
200069bc:	4229      	tst	r1, r5
200069be:	d004      	beq.n	200069ca <pio_add_program+0xde>
200069c0:	3b01      	subs	r3, #1
200069c2:	d2f7      	bcs.n	200069b4 <pio_add_program+0xc8>
200069c4:	4804      	ldr	r0, [pc, #16]	; (200069d8 <pio_add_program+0xec>)
200069c6:	f7fc ffd9 	bl	2000397c <panic>
200069ca:	9501      	str	r5, [sp, #4]
200069cc:	e7b8      	b.n	20006940 <pio_add_program+0x54>
200069ce:	46c0      	nop			; (mov r8, r8)
200069d0:	afd00000 	.word	0xafd00000
200069d4:	2000bb0c 	.word	0x2000bb0c
200069d8:	2000a020 	.word	0x2000a020

200069dc <pio_remove_program>:
200069dc:	b570      	push	{r4, r5, r6, lr}
200069de:	2501      	movs	r5, #1
200069e0:	790b      	ldrb	r3, [r1, #4]
200069e2:	0004      	movs	r4, r0
200069e4:	409d      	lsls	r5, r3
200069e6:	3d01      	subs	r5, #1
200069e8:	4095      	lsls	r5, r2
200069ea:	f7fb fe8d 	bl	20002708 <hw_claim_lock>
200069ee:	4b06      	ldr	r3, [pc, #24]	; (20006a08 <pio_remove_program+0x2c>)
200069f0:	4906      	ldr	r1, [pc, #24]	; (20006a0c <pio_remove_program+0x30>)
200069f2:	469c      	mov	ip, r3
200069f4:	4464      	add	r4, ip
200069f6:	4263      	negs	r3, r4
200069f8:	415c      	adcs	r4, r3
200069fa:	00a4      	lsls	r4, r4, #2
200069fc:	5862      	ldr	r2, [r4, r1]
200069fe:	43aa      	bics	r2, r5
20006a00:	5062      	str	r2, [r4, r1]
20006a02:	f7fb fe8d 	bl	20002720 <hw_claim_unlock>
20006a06:	bd70      	pop	{r4, r5, r6, pc}
20006a08:	afd00000 	.word	0xafd00000
20006a0c:	2000bb0c 	.word	0x2000bb0c

20006a10 <pio_sm_set_consecutive_pindirs>:
20006a10:	b5f0      	push	{r4, r5, r6, r7, lr}
20006a12:	4657      	mov	r7, sl
20006a14:	464e      	mov	r6, r9
20006a16:	4645      	mov	r5, r8
20006a18:	46de      	mov	lr, fp
20006a1a:	4689      	mov	r9, r1
20006a1c:	b5e0      	push	{r5, r6, r7, lr}
20006a1e:	b083      	sub	sp, #12
20006a20:	a90c      	add	r1, sp, #48	; 0x30
20006a22:	780d      	ldrb	r5, [r1, #0]
20006a24:	4649      	mov	r1, r9
20006a26:	0049      	lsls	r1, r1, #1
20006a28:	4688      	mov	r8, r1
20006a2a:	4449      	add	r1, r9
20006a2c:	00c9      	lsls	r1, r1, #3
20006a2e:	1846      	adds	r6, r0, r1
20006a30:	0037      	movs	r7, r6
20006a32:	0034      	movs	r4, r6
20006a34:	37dc      	adds	r7, #220	; 0xdc
20006a36:	4684      	mov	ip, r0
20006a38:	6838      	ldr	r0, [r7, #0]
20006a3a:	34cc      	adds	r4, #204	; 0xcc
20006a3c:	4683      	mov	fp, r0
20006a3e:	6820      	ldr	r0, [r4, #0]
20006a40:	24c0      	movs	r4, #192	; 0xc0
20006a42:	31cc      	adds	r1, #204	; 0xcc
20006a44:	01a4      	lsls	r4, r4, #6
20006a46:	4461      	add	r1, ip
20006a48:	4321      	orrs	r1, r4
20006a4a:	2480      	movs	r4, #128	; 0x80
20006a4c:	02a4      	lsls	r4, r4, #10
20006a4e:	600c      	str	r4, [r1, #0]
20006a50:	4269      	negs	r1, r5
20006a52:	414d      	adcs	r5, r1
20006a54:	211e      	movs	r1, #30
20006a56:	426d      	negs	r5, r5
20006a58:	438d      	bics	r5, r1
20006a5a:	4916      	ldr	r1, [pc, #88]	; (20006ab4 <pio_sm_set_consecutive_pindirs+0xa4>)
20006a5c:	9001      	str	r0, [sp, #4]
20006a5e:	468a      	mov	sl, r1
20006a60:	4455      	add	r5, sl
20006a62:	2b05      	cmp	r3, #5
20006a64:	d90c      	bls.n	20006a80 <pio_sm_set_consecutive_pindirs+0x70>
20006a66:	20a0      	movs	r0, #160	; 0xa0
20006a68:	211f      	movs	r1, #31
20006a6a:	0540      	lsls	r0, r0, #21
20006a6c:	36d8      	adds	r6, #216	; 0xd8
20006a6e:	0154      	lsls	r4, r2, #5
20006a70:	4304      	orrs	r4, r0
20006a72:	3205      	adds	r2, #5
20006a74:	3b05      	subs	r3, #5
20006a76:	603c      	str	r4, [r7, #0]
20006a78:	400a      	ands	r2, r1
20006a7a:	6035      	str	r5, [r6, #0]
20006a7c:	2b05      	cmp	r3, #5
20006a7e:	d8f6      	bhi.n	20006a6e <pio_sm_set_consecutive_pindirs+0x5e>
20006a80:	0152      	lsls	r2, r2, #5
20006a82:	069b      	lsls	r3, r3, #26
20006a84:	4313      	orrs	r3, r2
20006a86:	4642      	mov	r2, r8
20006a88:	444a      	add	r2, r9
20006a8a:	00d2      	lsls	r2, r2, #3
20006a8c:	4462      	add	r2, ip
20006a8e:	0010      	movs	r0, r2
20006a90:	32dc      	adds	r2, #220	; 0xdc
20006a92:	6013      	str	r3, [r2, #0]
20006a94:	0003      	movs	r3, r0
20006a96:	33d8      	adds	r3, #216	; 0xd8
20006a98:	601d      	str	r5, [r3, #0]
20006a9a:	465b      	mov	r3, fp
20006a9c:	6013      	str	r3, [r2, #0]
20006a9e:	9b01      	ldr	r3, [sp, #4]
20006aa0:	30cc      	adds	r0, #204	; 0xcc
20006aa2:	6003      	str	r3, [r0, #0]
20006aa4:	b003      	add	sp, #12
20006aa6:	bcf0      	pop	{r4, r5, r6, r7}
20006aa8:	46bb      	mov	fp, r7
20006aaa:	46b2      	mov	sl, r6
20006aac:	46a9      	mov	r9, r5
20006aae:	46a0      	mov	r8, r4
20006ab0:	bdf0      	pop	{r4, r5, r6, r7, pc}
20006ab2:	46c0      	nop			; (mov r8, r8)
20006ab4:	0000e09f 	.word	0x0000e09f

20006ab8 <pio_sm_init>:
20006ab8:	b5f0      	push	{r4, r5, r6, r7, lr}
20006aba:	2501      	movs	r5, #1
20006abc:	408d      	lsls	r5, r1
20006abe:	6804      	ldr	r4, [r0, #0]
20006ac0:	43ac      	bics	r4, r5
20006ac2:	6004      	str	r4, [r0, #0]
20006ac4:	2b00      	cmp	r3, #0
20006ac6:	d02e      	beq.n	20006b26 <pio_sm_init+0x6e>
20006ac8:	004d      	lsls	r5, r1, #1
20006aca:	186c      	adds	r4, r5, r1
20006acc:	00e4      	lsls	r4, r4, #3
20006ace:	1904      	adds	r4, r0, r4
20006ad0:	0026      	movs	r6, r4
20006ad2:	681f      	ldr	r7, [r3, #0]
20006ad4:	36c8      	adds	r6, #200	; 0xc8
20006ad6:	6037      	str	r7, [r6, #0]
20006ad8:	685f      	ldr	r7, [r3, #4]
20006ada:	34dc      	adds	r4, #220	; 0xdc
20006adc:	6077      	str	r7, [r6, #4]
20006ade:	689f      	ldr	r7, [r3, #8]
20006ae0:	68db      	ldr	r3, [r3, #12]
20006ae2:	60b7      	str	r7, [r6, #8]
20006ae4:	6023      	str	r3, [r4, #0]
20006ae6:	186b      	adds	r3, r5, r1
20006ae8:	00db      	lsls	r3, r3, #3
20006aea:	001d      	movs	r5, r3
20006aec:	2480      	movs	r4, #128	; 0x80
20006aee:	35d0      	adds	r5, #208	; 0xd0
20006af0:	1945      	adds	r5, r0, r5
20006af2:	0164      	lsls	r4, r4, #5
20006af4:	432c      	orrs	r4, r5
20006af6:	2580      	movs	r5, #128	; 0x80
20006af8:	062d      	lsls	r5, r5, #24
20006afa:	6025      	str	r5, [r4, #0]
20006afc:	6025      	str	r5, [r4, #0]
20006afe:	2501      	movs	r5, #1
20006b00:	4c12      	ldr	r4, [pc, #72]	; (20006b4c <pio_sm_init+0x94>)
20006b02:	002e      	movs	r6, r5
20006b04:	408c      	lsls	r4, r1
20006b06:	6084      	str	r4, [r0, #8]
20006b08:	1d0c      	adds	r4, r1, #4
20006b0a:	40a6      	lsls	r6, r4
20006b0c:	2480      	movs	r4, #128	; 0x80
20006b0e:	3108      	adds	r1, #8
20006b10:	408d      	lsls	r5, r1
20006b12:	211f      	movs	r1, #31
20006b14:	01a4      	lsls	r4, r4, #6
20006b16:	4304      	orrs	r4, r0
20006b18:	18c0      	adds	r0, r0, r3
20006b1a:	400a      	ands	r2, r1
20006b1c:	30d8      	adds	r0, #216	; 0xd8
20006b1e:	6026      	str	r6, [r4, #0]
20006b20:	6025      	str	r5, [r4, #0]
20006b22:	6002      	str	r2, [r0, #0]
20006b24:	bdf0      	pop	{r4, r5, r6, r7, pc}
20006b26:	004d      	lsls	r5, r1, #1
20006b28:	186c      	adds	r4, r5, r1
20006b2a:	00e4      	lsls	r4, r4, #3
20006b2c:	1904      	adds	r4, r0, r4
20006b2e:	0026      	movs	r6, r4
20006b30:	2780      	movs	r7, #128	; 0x80
20006b32:	36c8      	adds	r6, #200	; 0xc8
20006b34:	027f      	lsls	r7, r7, #9
20006b36:	6037      	str	r7, [r6, #0]
20006b38:	27f8      	movs	r7, #248	; 0xf8
20006b3a:	027f      	lsls	r7, r7, #9
20006b3c:	6077      	str	r7, [r6, #4]
20006b3e:	27c0      	movs	r7, #192	; 0xc0
20006b40:	34dc      	adds	r4, #220	; 0xdc
20006b42:	033f      	lsls	r7, r7, #12
20006b44:	60b7      	str	r7, [r6, #8]
20006b46:	6023      	str	r3, [r4, #0]
20006b48:	e7cd      	b.n	20006ae6 <pio_sm_init+0x2e>
20006b4a:	46c0      	nop			; (mov r8, r8)
20006b4c:	01010101 	.word	0x01010101

20006b50 <vPortSVCHandler>:
20006b50:	4770      	bx	lr
20006b52:	46c0      	nop			; (mov r8, r8)

20006b54 <vPortStartFirstTask>:
20006b54:	4a08      	ldr	r2, [pc, #32]	; (20006b78 <vPortStartFirstTask+0x24>)
20006b56:	6813      	ldr	r3, [r2, #0]
20006b58:	6818      	ldr	r0, [r3, #0]
20006b5a:	3020      	adds	r0, #32
20006b5c:	f380 8809 	msr	PSP, r0
20006b60:	2002      	movs	r0, #2
20006b62:	f380 8814 	msr	CONTROL, r0
20006b66:	f3bf 8f6f 	isb	sy
20006b6a:	bc3f      	pop	{r0, r1, r2, r3, r4, r5}
20006b6c:	46ae      	mov	lr, r5
20006b6e:	bc08      	pop	{r3}
20006b70:	bc04      	pop	{r2}
20006b72:	b662      	cpsie	i
20006b74:	4718      	bx	r3
20006b76:	0000      	.short	0x0000
20006b78:	2001017c 	.word	0x2001017c

20006b7c <xPortPendSVHandler>:
20006b7c:	f3ef 8009 	mrs	r0, PSP
20006b80:	4b15      	ldr	r3, [pc, #84]	; (20006bd8 <xPortPendSVHandler+0x5c>)
20006b82:	681a      	ldr	r2, [r3, #0]
20006b84:	3820      	subs	r0, #32
20006b86:	6010      	str	r0, [r2, #0]
20006b88:	c0f0      	stmia	r0!, {r4, r5, r6, r7}
20006b8a:	4644      	mov	r4, r8
20006b8c:	464d      	mov	r5, r9
20006b8e:	4656      	mov	r6, sl
20006b90:	465f      	mov	r7, fp
20006b92:	c0f0      	stmia	r0!, {r4, r5, r6, r7}
20006b94:	220d      	movs	r2, #13
20006b96:	0712      	lsls	r2, r2, #28
20006b98:	6e14      	ldr	r4, [r2, #96]	; 0x60
20006b9a:	6e55      	ldr	r5, [r2, #100]	; 0x64
20006b9c:	6f56      	ldr	r6, [r2, #116]	; 0x74
20006b9e:	6f17      	ldr	r7, [r2, #112]	; 0x70
20006ba0:	3830      	subs	r0, #48	; 0x30
20006ba2:	c0f0      	stmia	r0!, {r4, r5, r6, r7}
20006ba4:	b508      	push	{r3, lr}
20006ba6:	b672      	cpsid	i
20006ba8:	f001 fbc8 	bl	2000833c <vTaskSwitchContext>
20006bac:	b662      	cpsie	i
20006bae:	bc0c      	pop	{r2, r3}
20006bb0:	6811      	ldr	r1, [r2, #0]
20006bb2:	6808      	ldr	r0, [r1, #0]
20006bb4:	3010      	adds	r0, #16
20006bb6:	c8f0      	ldmia	r0!, {r4, r5, r6, r7}
20006bb8:	46a0      	mov	r8, r4
20006bba:	46a9      	mov	r9, r5
20006bbc:	46b2      	mov	sl, r6
20006bbe:	46bb      	mov	fp, r7
20006bc0:	f380 8809 	msr	PSP, r0
20006bc4:	220d      	movs	r2, #13
20006bc6:	0712      	lsls	r2, r2, #28
20006bc8:	3830      	subs	r0, #48	; 0x30
20006bca:	c8f0      	ldmia	r0!, {r4, r5, r6, r7}
20006bcc:	6614      	str	r4, [r2, #96]	; 0x60
20006bce:	6655      	str	r5, [r2, #100]	; 0x64
20006bd0:	6756      	str	r6, [r2, #116]	; 0x74
20006bd2:	6717      	str	r7, [r2, #112]	; 0x70
20006bd4:	c8f0      	ldmia	r0!, {r4, r5, r6, r7}
20006bd6:	4718      	bx	r3
20006bd8:	2001017c 	.word	0x2001017c

20006bdc <prvFIFOInterruptHandler>:
20006bdc:	23d0      	movs	r3, #208	; 0xd0
20006bde:	b500      	push	{lr}
20006be0:	061b      	lsls	r3, r3, #24
20006be2:	6d1a      	ldr	r2, [r3, #80]	; 0x50
20006be4:	b083      	sub	sp, #12
20006be6:	07d2      	lsls	r2, r2, #31
20006be8:	d504      	bpl.n	20006bf4 <prvFIFOInterruptHandler+0x18>
20006bea:	2101      	movs	r1, #1
20006bec:	6d9a      	ldr	r2, [r3, #88]	; 0x58
20006bee:	6d1a      	ldr	r2, [r3, #80]	; 0x50
20006bf0:	4211      	tst	r1, r2
20006bf2:	d1fb      	bne.n	20006bec <prvFIFOInterruptHandler+0x10>
20006bf4:	23d0      	movs	r3, #208	; 0xd0
20006bf6:	22ff      	movs	r2, #255	; 0xff
20006bf8:	061b      	lsls	r3, r3, #24
20006bfa:	651a      	str	r2, [r3, #80]	; 0x50
20006bfc:	2300      	movs	r3, #0
20006bfe:	4a11      	ldr	r2, [pc, #68]	; (20006c44 <prvFIFOInterruptHandler+0x68>)
20006c00:	9301      	str	r3, [sp, #4]
20006c02:	6811      	ldr	r1, [r2, #0]
20006c04:	f3ef 8c10 	mrs	ip, PRIMASK
20006c08:	b672      	cpsid	i
20006c0a:	680b      	ldr	r3, [r1, #0]
20006c0c:	2b00      	cmp	r3, #0
20006c0e:	d0fc      	beq.n	20006c0a <prvFIFOInterruptHandler+0x2e>
20006c10:	f3bf 8f5f 	dmb	sy
20006c14:	2300      	movs	r3, #0
20006c16:	480c      	ldr	r0, [pc, #48]	; (20006c48 <prvFIFOInterruptHandler+0x6c>)
20006c18:	6812      	ldr	r2, [r2, #0]
20006c1a:	6801      	ldr	r1, [r0, #0]
20006c1c:	6003      	str	r3, [r0, #0]
20006c1e:	f3bf 8f5f 	dmb	sy
20006c22:	6013      	str	r3, [r2, #0]
20006c24:	f38c 8810 	msr	PRIMASK, ip
20006c28:	4b08      	ldr	r3, [pc, #32]	; (20006c4c <prvFIFOInterruptHandler+0x70>)
20006c2a:	aa01      	add	r2, sp, #4
20006c2c:	6818      	ldr	r0, [r3, #0]
20006c2e:	f000 fad9 	bl	200071e4 <xEventGroupSetBitsFromISR>
20006c32:	9b01      	ldr	r3, [sp, #4]
20006c34:	2b00      	cmp	r3, #0
20006c36:	d003      	beq.n	20006c40 <prvFIFOInterruptHandler+0x64>
20006c38:	2280      	movs	r2, #128	; 0x80
20006c3a:	4b05      	ldr	r3, [pc, #20]	; (20006c50 <prvFIFOInterruptHandler+0x74>)
20006c3c:	0552      	lsls	r2, r2, #21
20006c3e:	601a      	str	r2, [r3, #0]
20006c40:	b003      	add	sp, #12
20006c42:	bd00      	pop	{pc}
20006c44:	20010178 	.word	0x20010178
20006c48:	200204b4 	.word	0x200204b4
20006c4c:	20020520 	.word	0x20020520
20006c50:	e000ed04 	.word	0xe000ed04

20006c54 <prvTaskExitError>:
20006c54:	b510      	push	{r4, lr}
20006c56:	f7fc fea9 	bl	200039ac <panic_unsupported>
20006c5a:	46c0      	nop			; (mov r8, r8)

20006c5c <pxPortInitialiseStack>:
20006c5c:	b510      	push	{r4, lr}
20006c5e:	2480      	movs	r4, #128	; 0x80
20006c60:	1f03      	subs	r3, r0, #4
20006c62:	0464      	lsls	r4, r4, #17
20006c64:	601c      	str	r4, [r3, #0]
20006c66:	3b04      	subs	r3, #4
20006c68:	6019      	str	r1, [r3, #0]
20006c6a:	4903      	ldr	r1, [pc, #12]	; (20006c78 <pxPortInitialiseStack+0x1c>)
20006c6c:	3b04      	subs	r3, #4
20006c6e:	6019      	str	r1, [r3, #0]
20006c70:	3b14      	subs	r3, #20
20006c72:	3840      	subs	r0, #64	; 0x40
20006c74:	601a      	str	r2, [r3, #0]
20006c76:	bd10      	pop	{r4, pc}
20006c78:	20006c55 	.word	0x20006c55

20006c7c <vPortYield>:
20006c7c:	2280      	movs	r2, #128	; 0x80
20006c7e:	4b04      	ldr	r3, [pc, #16]	; (20006c90 <vPortYield+0x14>)
20006c80:	0552      	lsls	r2, r2, #21
20006c82:	601a      	str	r2, [r3, #0]
20006c84:	f3bf 8f4f 	dsb	sy
20006c88:	f3bf 8f6f 	isb	sy
20006c8c:	4770      	bx	lr
20006c8e:	46c0      	nop			; (mov r8, r8)
20006c90:	e000ed04 	.word	0xe000ed04

20006c94 <vPortEnterCritical>:
20006c94:	b672      	cpsid	i
20006c96:	4a04      	ldr	r2, [pc, #16]	; (20006ca8 <vPortEnterCritical+0x14>)
20006c98:	6813      	ldr	r3, [r2, #0]
20006c9a:	3301      	adds	r3, #1
20006c9c:	6013      	str	r3, [r2, #0]
20006c9e:	f3bf 8f4f 	dsb	sy
20006ca2:	f3bf 8f6f 	isb	sy
20006ca6:	4770      	bx	lr
20006ca8:	200204b0 	.word	0x200204b0

20006cac <vPortExitCritical>:
20006cac:	4a09      	ldr	r2, [pc, #36]	; (20006cd4 <vPortExitCritical+0x28>)
20006cae:	6813      	ldr	r3, [r2, #0]
20006cb0:	3b01      	subs	r3, #1
20006cb2:	6013      	str	r3, [r2, #0]
20006cb4:	2b00      	cmp	r3, #0
20006cb6:	d10c      	bne.n	20006cd2 <vPortExitCritical+0x26>
20006cb8:	4a07      	ldr	r2, [pc, #28]	; (20006cd8 <vPortExitCritical+0x2c>)
20006cba:	6811      	ldr	r1, [r2, #0]
20006cbc:	2900      	cmp	r1, #0
20006cbe:	d007      	beq.n	20006cd0 <vPortExitCritical+0x24>
20006cc0:	4806      	ldr	r0, [pc, #24]	; (20006cdc <vPortExitCritical+0x30>)
20006cc2:	6800      	ldr	r0, [r0, #0]
20006cc4:	f3bf 8f5f 	dmb	sy
20006cc8:	600b      	str	r3, [r1, #0]
20006cca:	f380 8810 	msr	PRIMASK, r0
20006cce:	6013      	str	r3, [r2, #0]
20006cd0:	b662      	cpsie	i
20006cd2:	4770      	bx	lr
20006cd4:	200204b0 	.word	0x200204b0
20006cd8:	20010410 	.word	0x20010410
20006cdc:	20020498 	.word	0x20020498

20006ce0 <ulSetInterruptMaskFromISR>:
20006ce0:	f3ef 8010 	mrs	r0, PRIMASK
20006ce4:	b672      	cpsid	i
20006ce6:	4770      	bx	lr

20006ce8 <vClearInterruptMaskFromISR>:
20006ce8:	f380 8810 	msr	PRIMASK, r0
20006cec:	4770      	bx	lr
20006cee:	46c0      	nop			; (mov r8, r8)

20006cf0 <xPortSysTickHandler>:
20006cf0:	b510      	push	{r4, lr}
20006cf2:	f7ff fff5 	bl	20006ce0 <ulSetInterruptMaskFromISR>
20006cf6:	0004      	movs	r4, r0
20006cf8:	f001 f93e 	bl	20007f78 <xTaskIncrementTick>
20006cfc:	2800      	cmp	r0, #0
20006cfe:	d003      	beq.n	20006d08 <xPortSysTickHandler+0x18>
20006d00:	2280      	movs	r2, #128	; 0x80
20006d02:	4b03      	ldr	r3, [pc, #12]	; (20006d10 <xPortSysTickHandler+0x20>)
20006d04:	0552      	lsls	r2, r2, #21
20006d06:	601a      	str	r2, [r3, #0]
20006d08:	0020      	movs	r0, r4
20006d0a:	f7ff ffed 	bl	20006ce8 <vClearInterruptMaskFromISR>
20006d0e:	bd10      	pop	{r4, pc}
20006d10:	e000ed04 	.word	0xe000ed04

20006d14 <vPortSetupTimerInterrupt>:
20006d14:	2300      	movs	r3, #0
20006d16:	b510      	push	{r4, lr}
20006d18:	4a07      	ldr	r2, [pc, #28]	; (20006d38 <vPortSetupTimerInterrupt+0x24>)
20006d1a:	4c08      	ldr	r4, [pc, #32]	; (20006d3c <vPortSetupTimerInterrupt+0x28>)
20006d1c:	2005      	movs	r0, #5
20006d1e:	6023      	str	r3, [r4, #0]
20006d20:	6013      	str	r3, [r2, #0]
20006d22:	f7fc fd3b 	bl	2000379c <clock_get_hz>
20006d26:	4906      	ldr	r1, [pc, #24]	; (20006d40 <vPortSetupTimerInterrupt+0x2c>)
20006d28:	f7fc feac 	bl	20003a84 <__wrap___aeabi_uidiv>
20006d2c:	4b05      	ldr	r3, [pc, #20]	; (20006d44 <vPortSetupTimerInterrupt+0x30>)
20006d2e:	3801      	subs	r0, #1
20006d30:	6018      	str	r0, [r3, #0]
20006d32:	2307      	movs	r3, #7
20006d34:	6023      	str	r3, [r4, #0]
20006d36:	bd10      	pop	{r4, pc}
20006d38:	e000e018 	.word	0xe000e018
20006d3c:	e000e010 	.word	0xe000e010
20006d40:	00004e20 	.word	0x00004e20
20006d44:	e000e014 	.word	0xe000e014

20006d48 <xPortStartScheduler>:
20006d48:	22ff      	movs	r2, #255	; 0xff
20006d4a:	4b20      	ldr	r3, [pc, #128]	; (20006dcc <xPortStartScheduler+0x84>)
20006d4c:	0412      	lsls	r2, r2, #16
20006d4e:	6819      	ldr	r1, [r3, #0]
20006d50:	b510      	push	{r4, lr}
20006d52:	430a      	orrs	r2, r1
20006d54:	601a      	str	r2, [r3, #0]
20006d56:	22ff      	movs	r2, #255	; 0xff
20006d58:	2002      	movs	r0, #2
20006d5a:	6819      	ldr	r1, [r3, #0]
20006d5c:	0612      	lsls	r2, r2, #24
20006d5e:	430a      	orrs	r2, r1
20006d60:	601a      	str	r2, [r3, #0]
20006d62:	491b      	ldr	r1, [pc, #108]	; (20006dd0 <xPortStartScheduler+0x88>)
20006d64:	4240      	negs	r0, r0
20006d66:	f001 ff5d 	bl	20008c24 <exception_set_exclusive_handler>
20006d6a:	2001      	movs	r0, #1
20006d6c:	4919      	ldr	r1, [pc, #100]	; (20006dd4 <xPortStartScheduler+0x8c>)
20006d6e:	4240      	negs	r0, r0
20006d70:	f001 ff58 	bl	20008c24 <exception_set_exclusive_handler>
20006d74:	2005      	movs	r0, #5
20006d76:	4918      	ldr	r1, [pc, #96]	; (20006dd8 <xPortStartScheduler+0x90>)
20006d78:	4240      	negs	r0, r0
20006d7a:	f001 ff53 	bl	20008c24 <exception_set_exclusive_handler>
20006d7e:	f7ff ffc9 	bl	20006d14 <vPortSetupTimerInterrupt>
20006d82:	2200      	movs	r2, #0
20006d84:	4b15      	ldr	r3, [pc, #84]	; (20006ddc <xPortStartScheduler+0x94>)
20006d86:	601a      	str	r2, [r3, #0]
20006d88:	23d0      	movs	r3, #208	; 0xd0
20006d8a:	061b      	lsls	r3, r3, #24
20006d8c:	4a14      	ldr	r2, [pc, #80]	; (20006de0 <xPortStartScheduler+0x98>)
20006d8e:	681c      	ldr	r4, [r3, #0]
20006d90:	7014      	strb	r4, [r2, #0]
20006d92:	22ff      	movs	r2, #255	; 0xff
20006d94:	651a      	str	r2, [r3, #80]	; 0x50
20006d96:	6d1a      	ldr	r2, [r3, #80]	; 0x50
20006d98:	07d2      	lsls	r2, r2, #31
20006d9a:	d504      	bpl.n	20006da6 <xPortStartScheduler+0x5e>
20006d9c:	2101      	movs	r1, #1
20006d9e:	6d9a      	ldr	r2, [r3, #88]	; 0x58
20006da0:	6d1a      	ldr	r2, [r3, #80]	; 0x50
20006da2:	4211      	tst	r1, r2
20006da4:	d1fb      	bne.n	20006d9e <xPortStartScheduler+0x56>
20006da6:	340f      	adds	r4, #15
20006da8:	21ff      	movs	r1, #255	; 0xff
20006daa:	0020      	movs	r0, r4
20006dac:	f7fb ff7e 	bl	20002cac <irq_set_priority>
20006db0:	0020      	movs	r0, r4
20006db2:	490c      	ldr	r1, [pc, #48]	; (20006de4 <xPortStartScheduler+0x9c>)
20006db4:	f7fb fd74 	bl	200028a0 <irq_set_exclusive_handler>
20006db8:	2101      	movs	r1, #1
20006dba:	0020      	movs	r0, r4
20006dbc:	f7fb fd56 	bl	2000286c <irq_set_enabled>
20006dc0:	f7ff fec8 	bl	20006b54 <vPortStartFirstTask>
20006dc4:	f001 faba 	bl	2000833c <vTaskSwitchContext>
20006dc8:	f7fc fdf0 	bl	200039ac <panic_unsupported>
20006dcc:	e000ed20 	.word	0xe000ed20
20006dd0:	20006b7d 	.word	0x20006b7d
20006dd4:	20006cf1 	.word	0x20006cf1
20006dd8:	20006b51 	.word	0x20006b51
20006ddc:	200204b0 	.word	0x200204b0
20006de0:	2000a1cd 	.word	0x2000a1cd
20006de4:	20006bdd 	.word	0x20006bdd

20006de8 <ulPortLockGetCurrentOwnerId>:
20006de8:	23d0      	movs	r3, #208	; 0xd0
20006dea:	b510      	push	{r4, lr}
20006dec:	061b      	lsls	r3, r3, #24
20006dee:	6818      	ldr	r0, [r3, #0]
20006df0:	4b07      	ldr	r3, [pc, #28]	; (20006e10 <ulPortLockGetCurrentOwnerId+0x28>)
20006df2:	781b      	ldrb	r3, [r3, #0]
20006df4:	4283      	cmp	r3, r0
20006df6:	d000      	beq.n	20006dfa <ulPortLockGetCurrentOwnerId+0x12>
20006df8:	bd10      	pop	{r4, pc}
20006dfa:	f3ef 8305 	mrs	r3, IPSR
20006dfe:	2b00      	cmp	r3, #0
20006e00:	d002      	beq.n	20006e08 <ulPortLockGetCurrentOwnerId+0x20>
20006e02:	005b      	lsls	r3, r3, #1
20006e04:	18c0      	adds	r0, r0, r3
20006e06:	e7f7      	b.n	20006df8 <ulPortLockGetCurrentOwnerId+0x10>
20006e08:	f001 fcac 	bl	20008764 <xTaskGetCurrentTaskHandle>
20006e0c:	e7f4      	b.n	20006df8 <ulPortLockGetCurrentOwnerId+0x10>
20006e0e:	46c0      	nop			; (mov r8, r8)
20006e10:	2000a1cd 	.word	0x2000a1cd

20006e14 <vPortLockInternalSpinUnlockWithNotify>:
20006e14:	000a      	movs	r2, r1
20006e16:	492b      	ldr	r1, [pc, #172]	; (20006ec4 <vPortLockInternalSpinUnlockWithNotify+0xb0>)
20006e18:	6803      	ldr	r3, [r0, #0]
20006e1a:	468c      	mov	ip, r1
20006e1c:	2102      	movs	r1, #2
20006e1e:	b530      	push	{r4, r5, lr}
20006e20:	4463      	add	r3, ip
20006e22:	109b      	asrs	r3, r3, #2
20006e24:	31ff      	adds	r1, #255	; 0xff
20006e26:	4099      	lsls	r1, r3
20006e28:	4b27      	ldr	r3, [pc, #156]	; (20006ec8 <vPortLockInternalSpinUnlockWithNotify+0xb4>)
20006e2a:	b083      	sub	sp, #12
20006e2c:	781c      	ldrb	r4, [r3, #0]
20006e2e:	23d0      	movs	r3, #208	; 0xd0
20006e30:	061b      	lsls	r3, r3, #24
20006e32:	681b      	ldr	r3, [r3, #0]
20006e34:	0a09      	lsrs	r1, r1, #8
20006e36:	429c      	cmp	r4, r3
20006e38:	d01f      	beq.n	20006e7a <vPortLockInternalSpinUnlockWithNotify+0x66>
20006e3a:	bf40      	sev
20006e3c:	4d23      	ldr	r5, [pc, #140]	; (20006ecc <vPortLockInternalSpinUnlockWithNotify+0xb8>)
20006e3e:	6803      	ldr	r3, [r0, #0]
20006e40:	682c      	ldr	r4, [r5, #0]
20006e42:	42a3      	cmp	r3, r4
20006e44:	d034      	beq.n	20006eb0 <vPortLockInternalSpinUnlockWithNotify+0x9c>
20006e46:	6823      	ldr	r3, [r4, #0]
20006e48:	2b00      	cmp	r3, #0
20006e4a:	d0fc      	beq.n	20006e46 <vPortLockInternalSpinUnlockWithNotify+0x32>
20006e4c:	f3bf 8f5f 	dmb	sy
20006e50:	4c1f      	ldr	r4, [pc, #124]	; (20006ed0 <vPortLockInternalSpinUnlockWithNotify+0xbc>)
20006e52:	6823      	ldr	r3, [r4, #0]
20006e54:	430b      	orrs	r3, r1
20006e56:	6023      	str	r3, [r4, #0]
20006e58:	682b      	ldr	r3, [r5, #0]
20006e5a:	f3bf 8f5f 	dmb	sy
20006e5e:	2100      	movs	r1, #0
20006e60:	6019      	str	r1, [r3, #0]
20006e62:	6803      	ldr	r3, [r0, #0]
20006e64:	20d0      	movs	r0, #208	; 0xd0
20006e66:	2100      	movs	r1, #0
20006e68:	0600      	lsls	r0, r0, #24
20006e6a:	6541      	str	r1, [r0, #84]	; 0x54
20006e6c:	f3bf 8f5f 	dmb	sy
20006e70:	6019      	str	r1, [r3, #0]
20006e72:	f382 8810 	msr	PRIMASK, r2
20006e76:	b003      	add	sp, #12
20006e78:	bd30      	pop	{r4, r5, pc}
20006e7a:	bf40      	sev
20006e7c:	6803      	ldr	r3, [r0, #0]
20006e7e:	f3bf 8f5f 	dmb	sy
20006e82:	2000      	movs	r0, #0
20006e84:	6018      	str	r0, [r3, #0]
20006e86:	f382 8810 	msr	PRIMASK, r2
20006e8a:	f3ef 8305 	mrs	r3, IPSR
20006e8e:	b2db      	uxtb	r3, r3
20006e90:	2b00      	cmp	r3, #0
20006e92:	d012      	beq.n	20006eba <vPortLockInternalSpinUnlockWithNotify+0xa6>
20006e94:	4b0f      	ldr	r3, [pc, #60]	; (20006ed4 <vPortLockInternalSpinUnlockWithNotify+0xc0>)
20006e96:	9001      	str	r0, [sp, #4]
20006e98:	aa01      	add	r2, sp, #4
20006e9a:	6818      	ldr	r0, [r3, #0]
20006e9c:	f000 f9a2 	bl	200071e4 <xEventGroupSetBitsFromISR>
20006ea0:	9b01      	ldr	r3, [sp, #4]
20006ea2:	2b00      	cmp	r3, #0
20006ea4:	d0e7      	beq.n	20006e76 <vPortLockInternalSpinUnlockWithNotify+0x62>
20006ea6:	2280      	movs	r2, #128	; 0x80
20006ea8:	4b0b      	ldr	r3, [pc, #44]	; (20006ed8 <vPortLockInternalSpinUnlockWithNotify+0xc4>)
20006eaa:	0552      	lsls	r2, r2, #21
20006eac:	601a      	str	r2, [r3, #0]
20006eae:	e7e2      	b.n	20006e76 <vPortLockInternalSpinUnlockWithNotify+0x62>
20006eb0:	4c07      	ldr	r4, [pc, #28]	; (20006ed0 <vPortLockInternalSpinUnlockWithNotify+0xbc>)
20006eb2:	6820      	ldr	r0, [r4, #0]
20006eb4:	4308      	orrs	r0, r1
20006eb6:	6020      	str	r0, [r4, #0]
20006eb8:	e7d4      	b.n	20006e64 <vPortLockInternalSpinUnlockWithNotify+0x50>
20006eba:	4b06      	ldr	r3, [pc, #24]	; (20006ed4 <vPortLockInternalSpinUnlockWithNotify+0xc0>)
20006ebc:	6818      	ldr	r0, [r3, #0]
20006ebe:	f000 f949 	bl	20007154 <xEventGroupSetBits>
20006ec2:	e7d8      	b.n	20006e76 <vPortLockInternalSpinUnlockWithNotify+0x62>
20006ec4:	2fffff00 	.word	0x2fffff00
20006ec8:	2000a1cd 	.word	0x2000a1cd
20006ecc:	20010178 	.word	0x20010178
20006ed0:	200204b4 	.word	0x200204b4
20006ed4:	20020520 	.word	0x20020520
20006ed8:	e000ed04 	.word	0xe000ed04

20006edc <xPortLockInternalSpinUnlockWithBestEffortWaitOrTimeout>:
20006edc:	b5f0      	push	{r4, r5, r6, r7, lr}
20006ede:	46ce      	mov	lr, r9
20006ee0:	4647      	mov	r7, r8
20006ee2:	b580      	push	{r7, lr}
20006ee4:	001d      	movs	r5, r3
20006ee6:	4b33      	ldr	r3, [pc, #204]	; (20006fb4 <xPortLockInternalSpinUnlockWithBestEffortWaitOrTimeout+0xd8>)
20006ee8:	0014      	movs	r4, r2
20006eea:	781a      	ldrb	r2, [r3, #0]
20006eec:	23d0      	movs	r3, #208	; 0xd0
20006eee:	061b      	lsls	r3, r3, #24
20006ef0:	681b      	ldr	r3, [r3, #0]
20006ef2:	4681      	mov	r9, r0
20006ef4:	4688      	mov	r8, r1
20006ef6:	b083      	sub	sp, #12
20006ef8:	429a      	cmp	r2, r3
20006efa:	d00f      	beq.n	20006f1c <xPortLockInternalSpinUnlockWithBestEffortWaitOrTimeout+0x40>
20006efc:	6803      	ldr	r3, [r0, #0]
20006efe:	f3bf 8f5f 	dmb	sy
20006f02:	2200      	movs	r2, #0
20006f04:	601a      	str	r2, [r3, #0]
20006f06:	f381 8810 	msr	PRIMASK, r1
20006f0a:	0020      	movs	r0, r4
20006f0c:	0029      	movs	r1, r5
20006f0e:	f7fb fa03 	bl	20002318 <best_effort_wfe_or_timeout>
20006f12:	b003      	add	sp, #12
20006f14:	bcc0      	pop	{r6, r7}
20006f16:	46b9      	mov	r9, r7
20006f18:	46b0      	mov	r8, r6
20006f1a:	bdf0      	pop	{r4, r5, r6, r7, pc}
20006f1c:	f7fb fadc 	bl	200024d8 <time_us_64>
20006f20:	0022      	movs	r2, r4
20006f22:	002b      	movs	r3, r5
20006f24:	2632      	movs	r6, #50	; 0x32
20006f26:	4276      	negs	r6, r6
20006f28:	17f7      	asrs	r7, r6, #31
20006f2a:	1a12      	subs	r2, r2, r0
20006f2c:	418b      	sbcs	r3, r1
20006f2e:	18b6      	adds	r6, r6, r2
20006f30:	415f      	adcs	r7, r3
20006f32:	2f00      	cmp	r7, #0
20006f34:	dc1e      	bgt.n	20006f74 <xPortLockInternalSpinUnlockWithBestEffortWaitOrTimeout+0x98>
20006f36:	d01b      	beq.n	20006f70 <xPortLockInternalSpinUnlockWithBestEffortWaitOrTimeout+0x94>
20006f38:	464b      	mov	r3, r9
20006f3a:	681b      	ldr	r3, [r3, #0]
20006f3c:	f3bf 8f5f 	dmb	sy
20006f40:	2200      	movs	r2, #0
20006f42:	601a      	str	r2, [r3, #0]
20006f44:	f388 8810 	msr	PRIMASK, r8
20006f48:	4b1b      	ldr	r3, [pc, #108]	; (20006fb8 <xPortLockInternalSpinUnlockWithBestEffortWaitOrTimeout+0xdc>)
20006f4a:	6a5a      	ldr	r2, [r3, #36]	; 0x24
20006f4c:	4295      	cmp	r5, r2
20006f4e:	d805      	bhi.n	20006f5c <xPortLockInternalSpinUnlockWithBestEffortWaitOrTimeout+0x80>
20006f50:	6a9b      	ldr	r3, [r3, #40]	; 0x28
20006f52:	2001      	movs	r0, #1
20006f54:	42a3      	cmp	r3, r4
20006f56:	d2dc      	bcs.n	20006f12 <xPortLockInternalSpinUnlockWithBestEffortWaitOrTimeout+0x36>
20006f58:	4295      	cmp	r5, r2
20006f5a:	d1da      	bne.n	20006f12 <xPortLockInternalSpinUnlockWithBestEffortWaitOrTimeout+0x36>
20006f5c:	2280      	movs	r2, #128	; 0x80
20006f5e:	4b17      	ldr	r3, [pc, #92]	; (20006fbc <xPortLockInternalSpinUnlockWithBestEffortWaitOrTimeout+0xe0>)
20006f60:	0552      	lsls	r2, r2, #21
20006f62:	601a      	str	r2, [r3, #0]
20006f64:	f3bf 8f4f 	dsb	sy
20006f68:	f3bf 8f6f 	isb	sy
20006f6c:	2000      	movs	r0, #0
20006f6e:	e7d0      	b.n	20006f12 <xPortLockInternalSpinUnlockWithBestEffortWaitOrTimeout+0x36>
20006f70:	2e31      	cmp	r6, #49	; 0x31
20006f72:	d9e1      	bls.n	20006f38 <xPortLockInternalSpinUnlockWithBestEffortWaitOrTimeout+0x5c>
20006f74:	2300      	movs	r3, #0
20006f76:	2232      	movs	r2, #50	; 0x32
20006f78:	0030      	movs	r0, r6
20006f7a:	0039      	movs	r1, r7
20006f7c:	f7fc fda8 	bl	20003ad0 <__wrap___aeabi_ldivmod>
20006f80:	1e03      	subs	r3, r0, #0
20006f82:	d0d9      	beq.n	20006f38 <xPortLockInternalSpinUnlockWithBestEffortWaitOrTimeout+0x5c>
20006f84:	464a      	mov	r2, r9
20006f86:	4640      	mov	r0, r8
20006f88:	6812      	ldr	r2, [r2, #0]
20006f8a:	490d      	ldr	r1, [pc, #52]	; (20006fc0 <xPortLockInternalSpinUnlockWithBestEffortWaitOrTimeout+0xe4>)
20006f8c:	600a      	str	r2, [r1, #0]
20006f8e:	490d      	ldr	r1, [pc, #52]	; (20006fc4 <xPortLockInternalSpinUnlockWithBestEffortWaitOrTimeout+0xe8>)
20006f90:	6008      	str	r0, [r1, #0]
20006f92:	490d      	ldr	r1, [pc, #52]	; (20006fc8 <xPortLockInternalSpinUnlockWithBestEffortWaitOrTimeout+0xec>)
20006f94:	468c      	mov	ip, r1
20006f96:	2102      	movs	r1, #2
20006f98:	4462      	add	r2, ip
20006f9a:	1092      	asrs	r2, r2, #2
20006f9c:	31ff      	adds	r1, #255	; 0xff
20006f9e:	4091      	lsls	r1, r2
20006fa0:	4a0a      	ldr	r2, [pc, #40]	; (20006fcc <xPortLockInternalSpinUnlockWithBestEffortWaitOrTimeout+0xf0>)
20006fa2:	0a09      	lsrs	r1, r1, #8
20006fa4:	6810      	ldr	r0, [r2, #0]
20006fa6:	9300      	str	r3, [sp, #0]
20006fa8:	2201      	movs	r2, #1
20006faa:	2300      	movs	r3, #0
20006fac:	f000 f876 	bl	2000709c <xEventGroupWaitBits>
20006fb0:	e7ca      	b.n	20006f48 <xPortLockInternalSpinUnlockWithBestEffortWaitOrTimeout+0x6c>
20006fb2:	46c0      	nop			; (mov r8, r8)
20006fb4:	2000a1cd 	.word	0x2000a1cd
20006fb8:	40054000 	.word	0x40054000
20006fbc:	e000ed04 	.word	0xe000ed04
20006fc0:	20010410 	.word	0x20010410
20006fc4:	20020498 	.word	0x20020498
20006fc8:	2fffff00 	.word	0x2fffff00
20006fcc:	20020520 	.word	0x20020520

20006fd0 <prvRuntimeInitializer>:
20006fd0:	b510      	push	{r4, lr}
20006fd2:	f7fb fc2d 	bl	20002830 <next_striped_spin_lock_num>
20006fd6:	4a05      	ldr	r2, [pc, #20]	; (20006fec <prvRuntimeInitializer+0x1c>)
20006fd8:	4b05      	ldr	r3, [pc, #20]	; (20006ff0 <prvRuntimeInitializer+0x20>)
20006fda:	4694      	mov	ip, r2
20006fdc:	4460      	add	r0, ip
20006fde:	0080      	lsls	r0, r0, #2
20006fe0:	6018      	str	r0, [r3, #0]
20006fe2:	f000 f84f 	bl	20007084 <xEventGroupCreate>
20006fe6:	4b03      	ldr	r3, [pc, #12]	; (20006ff4 <prvRuntimeInitializer+0x24>)
20006fe8:	6018      	str	r0, [r3, #0]
20006fea:	bd10      	pop	{r4, pc}
20006fec:	34000040 	.word	0x34000040
20006ff0:	20010178 	.word	0x20010178
20006ff4:	20020520 	.word	0x20020520

20006ff8 <vEventGroupSetBitsCallback>:
20006ff8:	b5f8      	push	{r3, r4, r5, r6, r7, lr}
20006ffa:	46de      	mov	lr, fp
20006ffc:	4657      	mov	r7, sl
20006ffe:	464e      	mov	r6, r9
20007000:	4645      	mov	r5, r8
20007002:	b5e0      	push	{r5, r6, r7, lr}
20007004:	0005      	movs	r5, r0
20007006:	000f      	movs	r7, r1
20007008:	0006      	movs	r6, r0
2000700a:	f000 ffa1 	bl	20007f50 <vTaskSuspendAll>
2000700e:	6829      	ldr	r1, [r5, #0]
20007010:	692c      	ldr	r4, [r5, #16]
20007012:	4339      	orrs	r1, r7
20007014:	360c      	adds	r6, #12
20007016:	6029      	str	r1, [r5, #0]
20007018:	42a6      	cmp	r6, r4
2000701a:	d02a      	beq.n	20007072 <vEventGroupSetBitsCallback+0x7a>
2000701c:	2300      	movs	r3, #0
2000701e:	4698      	mov	r8, r3
20007020:	2380      	movs	r3, #128	; 0x80
20007022:	04db      	lsls	r3, r3, #19
20007024:	469b      	mov	fp, r3
20007026:	2380      	movs	r3, #128	; 0x80
20007028:	045b      	lsls	r3, r3, #17
2000702a:	469a      	mov	sl, r3
2000702c:	2380      	movs	r3, #128	; 0x80
2000702e:	049b      	lsls	r3, r3, #18
20007030:	4699      	mov	r9, r3
20007032:	e00e      	b.n	20007052 <vEventGroupSetBitsCallback+0x5a>
20007034:	4219      	tst	r1, r3
20007036:	d00a      	beq.n	2000704e <vEventGroupSetBitsCallback+0x56>
20007038:	4657      	mov	r7, sl
2000703a:	423a      	tst	r2, r7
2000703c:	d002      	beq.n	20007044 <vEventGroupSetBitsCallback+0x4c>
2000703e:	4642      	mov	r2, r8
20007040:	431a      	orrs	r2, r3
20007042:	4690      	mov	r8, r2
20007044:	464b      	mov	r3, r9
20007046:	4319      	orrs	r1, r3
20007048:	f001 faf6 	bl	20008638 <vTaskRemoveFromUnorderedEventList>
2000704c:	6829      	ldr	r1, [r5, #0]
2000704e:	42a6      	cmp	r6, r4
20007050:	d00d      	beq.n	2000706e <vEventGroupSetBitsCallback+0x76>
20007052:	0020      	movs	r0, r4
20007054:	465f      	mov	r7, fp
20007056:	6802      	ldr	r2, [r0, #0]
20007058:	6864      	ldr	r4, [r4, #4]
2000705a:	0213      	lsls	r3, r2, #8
2000705c:	0a1b      	lsrs	r3, r3, #8
2000705e:	423a      	tst	r2, r7
20007060:	d0e8      	beq.n	20007034 <vEventGroupSetBitsCallback+0x3c>
20007062:	000f      	movs	r7, r1
20007064:	401f      	ands	r7, r3
20007066:	42bb      	cmp	r3, r7
20007068:	d0e6      	beq.n	20007038 <vEventGroupSetBitsCallback+0x40>
2000706a:	42a6      	cmp	r6, r4
2000706c:	d1f1      	bne.n	20007052 <vEventGroupSetBitsCallback+0x5a>
2000706e:	4643      	mov	r3, r8
20007070:	4399      	bics	r1, r3
20007072:	6029      	str	r1, [r5, #0]
20007074:	f001 f860 	bl	20008138 <xTaskResumeAll>
20007078:	bcf0      	pop	{r4, r5, r6, r7}
2000707a:	46bb      	mov	fp, r7
2000707c:	46b2      	mov	sl, r6
2000707e:	46a9      	mov	r9, r5
20007080:	46a0      	mov	r8, r4
20007082:	bdf8      	pop	{r3, r4, r5, r6, r7, pc}

20007084 <xEventGroupCreate>:
20007084:	b510      	push	{r4, lr}
20007086:	201c      	movs	r0, #28
20007088:	f001 fdf0 	bl	20008c6c <pvPortMalloc>
2000708c:	1e04      	subs	r4, r0, #0
2000708e:	d003      	beq.n	20007098 <xEventGroupCreate+0x14>
20007090:	2300      	movs	r3, #0
20007092:	c008      	stmia	r0!, {r3}
20007094:	f000 f8b2 	bl	200071fc <vListInitialise>
20007098:	0020      	movs	r0, r4
2000709a:	bd10      	pop	{r4, pc}

2000709c <xEventGroupWaitBits>:
2000709c:	b5f0      	push	{r4, r5, r6, r7, lr}
2000709e:	46c6      	mov	lr, r8
200070a0:	0006      	movs	r6, r0
200070a2:	b500      	push	{lr}
200070a4:	000d      	movs	r5, r1
200070a6:	4690      	mov	r8, r2
200070a8:	001f      	movs	r7, r3
200070aa:	f000 ff51 	bl	20007f50 <vTaskSuspendAll>
200070ae:	6834      	ldr	r4, [r6, #0]
200070b0:	2f00      	cmp	r7, #0
200070b2:	d113      	bne.n	200070dc <xEventGroupWaitBits+0x40>
200070b4:	4225      	tst	r5, r4
200070b6:	d00b      	beq.n	200070d0 <xEventGroupWaitBits+0x34>
200070b8:	4643      	mov	r3, r8
200070ba:	2b00      	cmp	r3, #0
200070bc:	d00b      	beq.n	200070d6 <xEventGroupWaitBits+0x3a>
200070be:	0023      	movs	r3, r4
200070c0:	43ab      	bics	r3, r5
200070c2:	6033      	str	r3, [r6, #0]
200070c4:	f001 f838 	bl	20008138 <xTaskResumeAll>
200070c8:	0020      	movs	r0, r4
200070ca:	bc80      	pop	{r7}
200070cc:	46b8      	mov	r8, r7
200070ce:	bdf0      	pop	{r4, r5, r6, r7, pc}
200070d0:	9b06      	ldr	r3, [sp, #24]
200070d2:	2b00      	cmp	r3, #0
200070d4:	d121      	bne.n	2000711a <xEventGroupWaitBits+0x7e>
200070d6:	f001 f82f 	bl	20008138 <xTaskResumeAll>
200070da:	e7f5      	b.n	200070c8 <xEventGroupWaitBits+0x2c>
200070dc:	002b      	movs	r3, r5
200070de:	4023      	ands	r3, r4
200070e0:	429d      	cmp	r5, r3
200070e2:	d0e9      	beq.n	200070b8 <xEventGroupWaitBits+0x1c>
200070e4:	9b06      	ldr	r3, [sp, #24]
200070e6:	2b00      	cmp	r3, #0
200070e8:	d0f5      	beq.n	200070d6 <xEventGroupWaitBits+0x3a>
200070ea:	4643      	mov	r3, r8
200070ec:	2180      	movs	r1, #128	; 0x80
200070ee:	1e5a      	subs	r2, r3, #1
200070f0:	4193      	sbcs	r3, r2
200070f2:	04c9      	lsls	r1, r1, #19
200070f4:	061b      	lsls	r3, r3, #24
200070f6:	4319      	orrs	r1, r3
200070f8:	9a06      	ldr	r2, [sp, #24]
200070fa:	4329      	orrs	r1, r5
200070fc:	1d30      	adds	r0, r6, #4
200070fe:	f001 f977 	bl	200083f0 <vTaskPlaceOnUnorderedEventList>
20007102:	f001 f819 	bl	20008138 <xTaskResumeAll>
20007106:	2800      	cmp	r0, #0
20007108:	d01c      	beq.n	20007144 <xEventGroupWaitBits+0xa8>
2000710a:	f001 fb63 	bl	200087d4 <uxTaskResetEventItemValue>
2000710e:	0004      	movs	r4, r0
20007110:	0183      	lsls	r3, r0, #6
20007112:	d507      	bpl.n	20007124 <xEventGroupWaitBits+0x88>
20007114:	0224      	lsls	r4, r4, #8
20007116:	0a24      	lsrs	r4, r4, #8
20007118:	e7d6      	b.n	200070c8 <xEventGroupWaitBits+0x2c>
2000711a:	4641      	mov	r1, r8
2000711c:	1e4b      	subs	r3, r1, #1
2000711e:	4199      	sbcs	r1, r3
20007120:	0609      	lsls	r1, r1, #24
20007122:	e7e9      	b.n	200070f8 <xEventGroupWaitBits+0x5c>
20007124:	f7ff fdb6 	bl	20006c94 <vPortEnterCritical>
20007128:	6834      	ldr	r4, [r6, #0]
2000712a:	2f00      	cmp	r7, #0
2000712c:	d10d      	bne.n	2000714a <xEventGroupWaitBits+0xae>
2000712e:	422c      	tst	r4, r5
20007130:	d005      	beq.n	2000713e <xEventGroupWaitBits+0xa2>
20007132:	4643      	mov	r3, r8
20007134:	2b00      	cmp	r3, #0
20007136:	d002      	beq.n	2000713e <xEventGroupWaitBits+0xa2>
20007138:	0023      	movs	r3, r4
2000713a:	43ab      	bics	r3, r5
2000713c:	6033      	str	r3, [r6, #0]
2000713e:	f7ff fdb5 	bl	20006cac <vPortExitCritical>
20007142:	e7e7      	b.n	20007114 <xEventGroupWaitBits+0x78>
20007144:	f7ff fd9a 	bl	20006c7c <vPortYield>
20007148:	e7df      	b.n	2000710a <xEventGroupWaitBits+0x6e>
2000714a:	0023      	movs	r3, r4
2000714c:	402b      	ands	r3, r5
2000714e:	429d      	cmp	r5, r3
20007150:	d1f5      	bne.n	2000713e <xEventGroupWaitBits+0xa2>
20007152:	e7ee      	b.n	20007132 <xEventGroupWaitBits+0x96>

20007154 <xEventGroupSetBits>:
20007154:	b5f8      	push	{r3, r4, r5, r6, r7, lr}
20007156:	46de      	mov	lr, fp
20007158:	4657      	mov	r7, sl
2000715a:	464e      	mov	r6, r9
2000715c:	4645      	mov	r5, r8
2000715e:	b5e0      	push	{r5, r6, r7, lr}
20007160:	0005      	movs	r5, r0
20007162:	000f      	movs	r7, r1
20007164:	0006      	movs	r6, r0
20007166:	f000 fef3 	bl	20007f50 <vTaskSuspendAll>
2000716a:	6829      	ldr	r1, [r5, #0]
2000716c:	692c      	ldr	r4, [r5, #16]
2000716e:	4339      	orrs	r1, r7
20007170:	360c      	adds	r6, #12
20007172:	6029      	str	r1, [r5, #0]
20007174:	42a6      	cmp	r6, r4
20007176:	d02a      	beq.n	200071ce <xEventGroupSetBits+0x7a>
20007178:	2300      	movs	r3, #0
2000717a:	4698      	mov	r8, r3
2000717c:	2380      	movs	r3, #128	; 0x80
2000717e:	04db      	lsls	r3, r3, #19
20007180:	469b      	mov	fp, r3
20007182:	2380      	movs	r3, #128	; 0x80
20007184:	045b      	lsls	r3, r3, #17
20007186:	469a      	mov	sl, r3
20007188:	2380      	movs	r3, #128	; 0x80
2000718a:	049b      	lsls	r3, r3, #18
2000718c:	4699      	mov	r9, r3
2000718e:	e00e      	b.n	200071ae <xEventGroupSetBits+0x5a>
20007190:	4219      	tst	r1, r3
20007192:	d00a      	beq.n	200071aa <xEventGroupSetBits+0x56>
20007194:	4657      	mov	r7, sl
20007196:	423a      	tst	r2, r7
20007198:	d002      	beq.n	200071a0 <xEventGroupSetBits+0x4c>
2000719a:	4642      	mov	r2, r8
2000719c:	431a      	orrs	r2, r3
2000719e:	4690      	mov	r8, r2
200071a0:	464b      	mov	r3, r9
200071a2:	4319      	orrs	r1, r3
200071a4:	f001 fa48 	bl	20008638 <vTaskRemoveFromUnorderedEventList>
200071a8:	6829      	ldr	r1, [r5, #0]
200071aa:	42a6      	cmp	r6, r4
200071ac:	d00d      	beq.n	200071ca <xEventGroupSetBits+0x76>
200071ae:	0020      	movs	r0, r4
200071b0:	465f      	mov	r7, fp
200071b2:	6802      	ldr	r2, [r0, #0]
200071b4:	6864      	ldr	r4, [r4, #4]
200071b6:	0213      	lsls	r3, r2, #8
200071b8:	0a1b      	lsrs	r3, r3, #8
200071ba:	423a      	tst	r2, r7
200071bc:	d0e8      	beq.n	20007190 <xEventGroupSetBits+0x3c>
200071be:	000f      	movs	r7, r1
200071c0:	401f      	ands	r7, r3
200071c2:	429f      	cmp	r7, r3
200071c4:	d0e6      	beq.n	20007194 <xEventGroupSetBits+0x40>
200071c6:	42a6      	cmp	r6, r4
200071c8:	d1f1      	bne.n	200071ae <xEventGroupSetBits+0x5a>
200071ca:	4643      	mov	r3, r8
200071cc:	4399      	bics	r1, r3
200071ce:	6029      	str	r1, [r5, #0]
200071d0:	f000 ffb2 	bl	20008138 <xTaskResumeAll>
200071d4:	6828      	ldr	r0, [r5, #0]
200071d6:	bcf0      	pop	{r4, r5, r6, r7}
200071d8:	46bb      	mov	fp, r7
200071da:	46b2      	mov	sl, r6
200071dc:	46a9      	mov	r9, r5
200071de:	46a0      	mov	r8, r4
200071e0:	bdf8      	pop	{r3, r4, r5, r6, r7, pc}
200071e2:	46c0      	nop			; (mov r8, r8)

200071e4 <xEventGroupSetBitsFromISR>:
200071e4:	b510      	push	{r4, lr}
200071e6:	4c04      	ldr	r4, [pc, #16]	; (200071f8 <xEventGroupSetBitsFromISR+0x14>)
200071e8:	0013      	movs	r3, r2
200071ea:	000a      	movs	r2, r1
200071ec:	0001      	movs	r1, r0
200071ee:	0020      	movs	r0, r4
200071f0:	f001 fd04 	bl	20008bfc <xTimerPendFunctionCallFromISR>
200071f4:	bd10      	pop	{r4, pc}
200071f6:	46c0      	nop			; (mov r8, r8)
200071f8:	20006ff9 	.word	0x20006ff9

200071fc <vListInitialise>:
200071fc:	0003      	movs	r3, r0
200071fe:	3308      	adds	r3, #8
20007200:	2201      	movs	r2, #1
20007202:	6043      	str	r3, [r0, #4]
20007204:	60c3      	str	r3, [r0, #12]
20007206:	6103      	str	r3, [r0, #16]
20007208:	2300      	movs	r3, #0
2000720a:	4252      	negs	r2, r2
2000720c:	6082      	str	r2, [r0, #8]
2000720e:	6003      	str	r3, [r0, #0]
20007210:	4770      	bx	lr
20007212:	46c0      	nop			; (mov r8, r8)

20007214 <vListInitialiseItem>:
20007214:	2300      	movs	r3, #0
20007216:	6103      	str	r3, [r0, #16]
20007218:	4770      	bx	lr
2000721a:	46c0      	nop			; (mov r8, r8)

2000721c <vListInsertEnd>:
2000721c:	6843      	ldr	r3, [r0, #4]
2000721e:	689a      	ldr	r2, [r3, #8]
20007220:	604b      	str	r3, [r1, #4]
20007222:	608a      	str	r2, [r1, #8]
20007224:	6051      	str	r1, [r2, #4]
20007226:	6099      	str	r1, [r3, #8]
20007228:	6803      	ldr	r3, [r0, #0]
2000722a:	6108      	str	r0, [r1, #16]
2000722c:	3301      	adds	r3, #1
2000722e:	6003      	str	r3, [r0, #0]
20007230:	4770      	bx	lr
20007232:	46c0      	nop			; (mov r8, r8)

20007234 <vListInsert>:
20007234:	0003      	movs	r3, r0
20007236:	b530      	push	{r4, r5, lr}
20007238:	680d      	ldr	r5, [r1, #0]
2000723a:	3308      	adds	r3, #8
2000723c:	1c6a      	adds	r2, r5, #1
2000723e:	d00d      	beq.n	2000725c <vListInsert+0x28>
20007240:	001c      	movs	r4, r3
20007242:	685b      	ldr	r3, [r3, #4]
20007244:	681a      	ldr	r2, [r3, #0]
20007246:	42aa      	cmp	r2, r5
20007248:	d9fa      	bls.n	20007240 <vListInsert+0xc>
2000724a:	604b      	str	r3, [r1, #4]
2000724c:	6099      	str	r1, [r3, #8]
2000724e:	6803      	ldr	r3, [r0, #0]
20007250:	608c      	str	r4, [r1, #8]
20007252:	3301      	adds	r3, #1
20007254:	6061      	str	r1, [r4, #4]
20007256:	6108      	str	r0, [r1, #16]
20007258:	6003      	str	r3, [r0, #0]
2000725a:	bd30      	pop	{r4, r5, pc}
2000725c:	6904      	ldr	r4, [r0, #16]
2000725e:	6863      	ldr	r3, [r4, #4]
20007260:	e7f3      	b.n	2000724a <vListInsert+0x16>
20007262:	46c0      	nop			; (mov r8, r8)

20007264 <uxListRemove>:
20007264:	6903      	ldr	r3, [r0, #16]
20007266:	6841      	ldr	r1, [r0, #4]
20007268:	6882      	ldr	r2, [r0, #8]
2000726a:	608a      	str	r2, [r1, #8]
2000726c:	6051      	str	r1, [r2, #4]
2000726e:	6859      	ldr	r1, [r3, #4]
20007270:	4281      	cmp	r1, r0
20007272:	d006      	beq.n	20007282 <uxListRemove+0x1e>
20007274:	2200      	movs	r2, #0
20007276:	6102      	str	r2, [r0, #16]
20007278:	681a      	ldr	r2, [r3, #0]
2000727a:	3a01      	subs	r2, #1
2000727c:	601a      	str	r2, [r3, #0]
2000727e:	6818      	ldr	r0, [r3, #0]
20007280:	4770      	bx	lr
20007282:	605a      	str	r2, [r3, #4]
20007284:	e7f6      	b.n	20007274 <uxListRemove+0x10>
20007286:	46c0      	nop			; (mov r8, r8)

20007288 <prvUnlockQueue>:
20007288:	b5f0      	push	{r4, r5, r6, r7, lr}
2000728a:	46de      	mov	lr, fp
2000728c:	464e      	mov	r6, r9
2000728e:	4657      	mov	r7, sl
20007290:	4645      	mov	r5, r8
20007292:	b5e0      	push	{r5, r6, r7, lr}
20007294:	b085      	sub	sp, #20
20007296:	0006      	movs	r6, r0
20007298:	f7ff fcfc 	bl	20006c94 <vPortEnterCritical>
2000729c:	2345      	movs	r3, #69	; 0x45
2000729e:	5cf4      	ldrb	r4, [r6, r3]
200072a0:	b264      	sxtb	r4, r4
200072a2:	2c00      	cmp	r4, #0
200072a4:	dd21      	ble.n	200072ea <prvUnlockQueue+0x62>
200072a6:	3b21      	subs	r3, #33	; 0x21
200072a8:	4699      	mov	r9, r3
200072aa:	3321      	adds	r3, #33	; 0x21
200072ac:	469a      	mov	sl, r3
200072ae:	44b1      	add	r9, r6
200072b0:	e009      	b.n	200072c6 <prvUnlockQueue+0x3e>
200072b2:	6baa      	ldr	r2, [r5, #56]	; 0x38
200072b4:	6beb      	ldr	r3, [r5, #60]	; 0x3c
200072b6:	9603      	str	r6, [sp, #12]
200072b8:	429a      	cmp	r2, r3
200072ba:	d345      	bcc.n	20007348 <prvUnlockQueue+0xc0>
200072bc:	3c01      	subs	r4, #1
200072be:	b2e3      	uxtb	r3, r4
200072c0:	b264      	sxtb	r4, r4
200072c2:	2b00      	cmp	r3, #0
200072c4:	d011      	beq.n	200072ea <prvUnlockQueue+0x62>
200072c6:	6cb5      	ldr	r5, [r6, #72]	; 0x48
200072c8:	2d00      	cmp	r5, #0
200072ca:	d1f2      	bne.n	200072b2 <prvUnlockQueue+0x2a>
200072cc:	6a73      	ldr	r3, [r6, #36]	; 0x24
200072ce:	2b00      	cmp	r3, #0
200072d0:	d00b      	beq.n	200072ea <prvUnlockQueue+0x62>
200072d2:	4648      	mov	r0, r9
200072d4:	f001 f948 	bl	20008568 <xTaskRemoveFromEventList>
200072d8:	2800      	cmp	r0, #0
200072da:	d0ef      	beq.n	200072bc <prvUnlockQueue+0x34>
200072dc:	f001 fa3c 	bl	20008758 <vTaskMissedYield>
200072e0:	3c01      	subs	r4, #1
200072e2:	b2e3      	uxtb	r3, r4
200072e4:	b264      	sxtb	r4, r4
200072e6:	2b00      	cmp	r3, #0
200072e8:	d1ed      	bne.n	200072c6 <prvUnlockQueue+0x3e>
200072ea:	2345      	movs	r3, #69	; 0x45
200072ec:	22ff      	movs	r2, #255	; 0xff
200072ee:	54f2      	strb	r2, [r6, r3]
200072f0:	f7ff fcdc 	bl	20006cac <vPortExitCritical>
200072f4:	f7ff fcce 	bl	20006c94 <vPortEnterCritical>
200072f8:	2344      	movs	r3, #68	; 0x44
200072fa:	5cf4      	ldrb	r4, [r6, r3]
200072fc:	b264      	sxtb	r4, r4
200072fe:	2c00      	cmp	r4, #0
20007300:	dd16      	ble.n	20007330 <prvUnlockQueue+0xa8>
20007302:	0035      	movs	r5, r6
20007304:	3510      	adds	r5, #16
20007306:	e004      	b.n	20007312 <prvUnlockQueue+0x8a>
20007308:	3c01      	subs	r4, #1
2000730a:	b2e2      	uxtb	r2, r4
2000730c:	b264      	sxtb	r4, r4
2000730e:	2a00      	cmp	r2, #0
20007310:	d00e      	beq.n	20007330 <prvUnlockQueue+0xa8>
20007312:	6933      	ldr	r3, [r6, #16]
20007314:	2b00      	cmp	r3, #0
20007316:	d00b      	beq.n	20007330 <prvUnlockQueue+0xa8>
20007318:	0028      	movs	r0, r5
2000731a:	f001 f925 	bl	20008568 <xTaskRemoveFromEventList>
2000731e:	2800      	cmp	r0, #0
20007320:	d0f2      	beq.n	20007308 <prvUnlockQueue+0x80>
20007322:	3c01      	subs	r4, #1
20007324:	f001 fa18 	bl	20008758 <vTaskMissedYield>
20007328:	b2e2      	uxtb	r2, r4
2000732a:	b264      	sxtb	r4, r4
2000732c:	2a00      	cmp	r2, #0
2000732e:	d1f0      	bne.n	20007312 <prvUnlockQueue+0x8a>
20007330:	2344      	movs	r3, #68	; 0x44
20007332:	22ff      	movs	r2, #255	; 0xff
20007334:	54f2      	strb	r2, [r6, r3]
20007336:	f7ff fcb9 	bl	20006cac <vPortExitCritical>
2000733a:	b005      	add	sp, #20
2000733c:	bcf0      	pop	{r4, r5, r6, r7}
2000733e:	46bb      	mov	fp, r7
20007340:	46b2      	mov	sl, r6
20007342:	46a9      	mov	r9, r5
20007344:	46a0      	mov	r8, r4
20007346:	bdf0      	pop	{r4, r5, r6, r7, pc}
20007348:	4653      	mov	r3, sl
2000734a:	6c2a      	ldr	r2, [r5, #64]	; 0x40
2000734c:	5cef      	ldrb	r7, [r5, r3]
2000734e:	6bab      	ldr	r3, [r5, #56]	; 0x38
20007350:	b27f      	sxtb	r7, r7
20007352:	4698      	mov	r8, r3
20007354:	2a00      	cmp	r2, #0
20007356:	d114      	bne.n	20007382 <prvUnlockQueue+0xfa>
20007358:	682b      	ldr	r3, [r5, #0]
2000735a:	469b      	mov	fp, r3
2000735c:	2b00      	cmp	r3, #0
2000735e:	d02c      	beq.n	200073ba <prvUnlockQueue+0x132>
20007360:	4643      	mov	r3, r8
20007362:	3301      	adds	r3, #1
20007364:	63ab      	str	r3, [r5, #56]	; 0x38
20007366:	1c7b      	adds	r3, r7, #1
20007368:	d11d      	bne.n	200073a6 <prvUnlockQueue+0x11e>
2000736a:	6a6b      	ldr	r3, [r5, #36]	; 0x24
2000736c:	2b00      	cmp	r3, #0
2000736e:	d0a5      	beq.n	200072bc <prvUnlockQueue+0x34>
20007370:	0028      	movs	r0, r5
20007372:	3024      	adds	r0, #36	; 0x24
20007374:	f001 f8f8 	bl	20008568 <xTaskRemoveFromEventList>
20007378:	2800      	cmp	r0, #0
2000737a:	d09f      	beq.n	200072bc <prvUnlockQueue+0x34>
2000737c:	f001 f9ec 	bl	20008758 <vTaskMissedYield>
20007380:	e7ae      	b.n	200072e0 <prvUnlockQueue+0x58>
20007382:	6868      	ldr	r0, [r5, #4]
20007384:	a903      	add	r1, sp, #12
20007386:	f7fc fe87 	bl	20004098 <__wrap___aeabi_memcpy>
2000738a:	686b      	ldr	r3, [r5, #4]
2000738c:	6c2a      	ldr	r2, [r5, #64]	; 0x40
2000738e:	189b      	adds	r3, r3, r2
20007390:	68aa      	ldr	r2, [r5, #8]
20007392:	606b      	str	r3, [r5, #4]
20007394:	4293      	cmp	r3, r2
20007396:	d3e3      	bcc.n	20007360 <prvUnlockQueue+0xd8>
20007398:	682b      	ldr	r3, [r5, #0]
2000739a:	606b      	str	r3, [r5, #4]
2000739c:	4643      	mov	r3, r8
2000739e:	3301      	adds	r3, #1
200073a0:	63ab      	str	r3, [r5, #56]	; 0x38
200073a2:	1c7b      	adds	r3, r7, #1
200073a4:	d0e1      	beq.n	2000736a <prvUnlockQueue+0xe2>
200073a6:	f000 fde1 	bl	20007f6c <uxTaskGetNumberOfTasks>
200073aa:	42b8      	cmp	r0, r7
200073ac:	d800      	bhi.n	200073b0 <prvUnlockQueue+0x128>
200073ae:	e785      	b.n	200072bc <prvUnlockQueue+0x34>
200073b0:	2345      	movs	r3, #69	; 0x45
200073b2:	3701      	adds	r7, #1
200073b4:	b27f      	sxtb	r7, r7
200073b6:	54ef      	strb	r7, [r5, r3]
200073b8:	e780      	b.n	200072bc <prvUnlockQueue+0x34>
200073ba:	68a8      	ldr	r0, [r5, #8]
200073bc:	f001 f9d8 	bl	20008770 <xTaskPriorityDisinherit>
200073c0:	465b      	mov	r3, fp
200073c2:	60ab      	str	r3, [r5, #8]
200073c4:	4643      	mov	r3, r8
200073c6:	3301      	adds	r3, #1
200073c8:	9001      	str	r0, [sp, #4]
200073ca:	63ab      	str	r3, [r5, #56]	; 0x38
200073cc:	1c7b      	adds	r3, r7, #1
200073ce:	d109      	bne.n	200073e4 <prvUnlockQueue+0x15c>
200073d0:	6a6b      	ldr	r3, [r5, #36]	; 0x24
200073d2:	2b00      	cmp	r3, #0
200073d4:	d10f      	bne.n	200073f6 <prvUnlockQueue+0x16e>
200073d6:	9b01      	ldr	r3, [sp, #4]
200073d8:	2b00      	cmp	r3, #0
200073da:	d100      	bne.n	200073de <prvUnlockQueue+0x156>
200073dc:	e76e      	b.n	200072bc <prvUnlockQueue+0x34>
200073de:	f001 f9bb 	bl	20008758 <vTaskMissedYield>
200073e2:	e77d      	b.n	200072e0 <prvUnlockQueue+0x58>
200073e4:	f000 fdc2 	bl	20007f6c <uxTaskGetNumberOfTasks>
200073e8:	42b8      	cmp	r0, r7
200073ea:	d9f4      	bls.n	200073d6 <prvUnlockQueue+0x14e>
200073ec:	4653      	mov	r3, sl
200073ee:	3701      	adds	r7, #1
200073f0:	b27f      	sxtb	r7, r7
200073f2:	54ef      	strb	r7, [r5, r3]
200073f4:	e7ef      	b.n	200073d6 <prvUnlockQueue+0x14e>
200073f6:	0028      	movs	r0, r5
200073f8:	3024      	adds	r0, #36	; 0x24
200073fa:	f001 f8b5 	bl	20008568 <xTaskRemoveFromEventList>
200073fe:	2800      	cmp	r0, #0
20007400:	d0e9      	beq.n	200073d6 <prvUnlockQueue+0x14e>
20007402:	e76b      	b.n	200072dc <prvUnlockQueue+0x54>

20007404 <prvNotifyQueueSetContainer>:
20007404:	b5f0      	push	{r4, r5, r6, r7, lr}
20007406:	46c6      	mov	lr, r8
20007408:	b500      	push	{lr}
2000740a:	6c84      	ldr	r4, [r0, #72]	; 0x48
2000740c:	b082      	sub	sp, #8
2000740e:	6ba2      	ldr	r2, [r4, #56]	; 0x38
20007410:	6be3      	ldr	r3, [r4, #60]	; 0x3c
20007412:	2500      	movs	r5, #0
20007414:	9001      	str	r0, [sp, #4]
20007416:	429a      	cmp	r2, r3
20007418:	d304      	bcc.n	20007424 <prvNotifyQueueSetContainer+0x20>
2000741a:	0028      	movs	r0, r5
2000741c:	b002      	add	sp, #8
2000741e:	bc80      	pop	{r7}
20007420:	46b8      	mov	r8, r7
20007422:	bdf0      	pop	{r4, r5, r6, r7, pc}
20007424:	2345      	movs	r3, #69	; 0x45
20007426:	6c22      	ldr	r2, [r4, #64]	; 0x40
20007428:	5ce6      	ldrb	r6, [r4, r3]
2000742a:	6ba7      	ldr	r7, [r4, #56]	; 0x38
2000742c:	b276      	sxtb	r6, r6
2000742e:	2a00      	cmp	r2, #0
20007430:	d01c      	beq.n	2000746c <prvNotifyQueueSetContainer+0x68>
20007432:	6860      	ldr	r0, [r4, #4]
20007434:	a901      	add	r1, sp, #4
20007436:	f7fc fe2f 	bl	20004098 <__wrap___aeabi_memcpy>
2000743a:	6863      	ldr	r3, [r4, #4]
2000743c:	6c22      	ldr	r2, [r4, #64]	; 0x40
2000743e:	189b      	adds	r3, r3, r2
20007440:	68a2      	ldr	r2, [r4, #8]
20007442:	6063      	str	r3, [r4, #4]
20007444:	4293      	cmp	r3, r2
20007446:	d301      	bcc.n	2000744c <prvNotifyQueueSetContainer+0x48>
20007448:	6823      	ldr	r3, [r4, #0]
2000744a:	6063      	str	r3, [r4, #4]
2000744c:	2500      	movs	r5, #0
2000744e:	3701      	adds	r7, #1
20007450:	63a7      	str	r7, [r4, #56]	; 0x38
20007452:	1c73      	adds	r3, r6, #1
20007454:	d115      	bne.n	20007482 <prvNotifyQueueSetContainer+0x7e>
20007456:	6a63      	ldr	r3, [r4, #36]	; 0x24
20007458:	2b00      	cmp	r3, #0
2000745a:	d0de      	beq.n	2000741a <prvNotifyQueueSetContainer+0x16>
2000745c:	0020      	movs	r0, r4
2000745e:	3024      	adds	r0, #36	; 0x24
20007460:	f001 f882 	bl	20008568 <xTaskRemoveFromEventList>
20007464:	2800      	cmp	r0, #0
20007466:	d0d8      	beq.n	2000741a <prvNotifyQueueSetContainer+0x16>
20007468:	2501      	movs	r5, #1
2000746a:	e7d6      	b.n	2000741a <prvNotifyQueueSetContainer+0x16>
2000746c:	6823      	ldr	r3, [r4, #0]
2000746e:	4698      	mov	r8, r3
20007470:	2b00      	cmp	r3, #0
20007472:	d1eb      	bne.n	2000744c <prvNotifyQueueSetContainer+0x48>
20007474:	68a0      	ldr	r0, [r4, #8]
20007476:	f001 f97b 	bl	20008770 <xTaskPriorityDisinherit>
2000747a:	4643      	mov	r3, r8
2000747c:	0005      	movs	r5, r0
2000747e:	60a3      	str	r3, [r4, #8]
20007480:	e7e5      	b.n	2000744e <prvNotifyQueueSetContainer+0x4a>
20007482:	f000 fd73 	bl	20007f6c <uxTaskGetNumberOfTasks>
20007486:	4286      	cmp	r6, r0
20007488:	d2c7      	bcs.n	2000741a <prvNotifyQueueSetContainer+0x16>
2000748a:	2345      	movs	r3, #69	; 0x45
2000748c:	3601      	adds	r6, #1
2000748e:	b276      	sxtb	r6, r6
20007490:	54e6      	strb	r6, [r4, r3]
20007492:	e7c2      	b.n	2000741a <prvNotifyQueueSetContainer+0x16>

20007494 <xQueueGenericCreate>:
20007494:	b5f8      	push	{r3, r4, r5, r6, r7, lr}
20007496:	0005      	movs	r5, r0
20007498:	000e      	movs	r6, r1
2000749a:	0017      	movs	r7, r2
2000749c:	2800      	cmp	r0, #0
2000749e:	d041      	beq.n	20007524 <xQueueGenericCreate+0x90>
200074a0:	0c03      	lsrs	r3, r0, #16
200074a2:	0c0a      	lsrs	r2, r1, #16
200074a4:	2b00      	cmp	r3, #0
200074a6:	d142      	bne.n	2000752e <xQueueGenericCreate+0x9a>
200074a8:	2a00      	cmp	r2, #0
200074aa:	d130      	bne.n	2000750e <xQueueGenericCreate+0x7a>
200074ac:	0030      	movs	r0, r6
200074ae:	4368      	muls	r0, r5
200074b0:	0003      	movs	r3, r0
200074b2:	3355      	adds	r3, #85	; 0x55
200074b4:	d836      	bhi.n	20007524 <xQueueGenericCreate+0x90>
200074b6:	3054      	adds	r0, #84	; 0x54
200074b8:	f001 fbd8 	bl	20008c6c <pvPortMalloc>
200074bc:	1e04      	subs	r4, r0, #0
200074be:	d031      	beq.n	20007524 <xQueueGenericCreate+0x90>
200074c0:	0003      	movs	r3, r0
200074c2:	2e00      	cmp	r6, #0
200074c4:	d131      	bne.n	2000752a <xQueueGenericCreate+0x96>
200074c6:	6023      	str	r3, [r4, #0]
200074c8:	63e5      	str	r5, [r4, #60]	; 0x3c
200074ca:	6426      	str	r6, [r4, #64]	; 0x40
200074cc:	f7ff fbe2 	bl	20006c94 <vPortEnterCritical>
200074d0:	6c21      	ldr	r1, [r4, #64]	; 0x40
200074d2:	6be3      	ldr	r3, [r4, #60]	; 0x3c
200074d4:	6822      	ldr	r2, [r4, #0]
200074d6:	434b      	muls	r3, r1
200074d8:	18d0      	adds	r0, r2, r3
200074da:	1a5b      	subs	r3, r3, r1
200074dc:	6062      	str	r2, [r4, #4]
200074de:	18d2      	adds	r2, r2, r3
200074e0:	60e2      	str	r2, [r4, #12]
200074e2:	23ff      	movs	r3, #255	; 0xff
200074e4:	2500      	movs	r5, #0
200074e6:	2244      	movs	r2, #68	; 0x44
200074e8:	60a0      	str	r0, [r4, #8]
200074ea:	0020      	movs	r0, r4
200074ec:	63a5      	str	r5, [r4, #56]	; 0x38
200074ee:	54a3      	strb	r3, [r4, r2]
200074f0:	3201      	adds	r2, #1
200074f2:	54a3      	strb	r3, [r4, r2]
200074f4:	3010      	adds	r0, #16
200074f6:	f7ff fe81 	bl	200071fc <vListInitialise>
200074fa:	0020      	movs	r0, r4
200074fc:	3024      	adds	r0, #36	; 0x24
200074fe:	f7ff fe7d 	bl	200071fc <vListInitialise>
20007502:	f7ff fbd3 	bl	20006cac <vPortExitCritical>
20007506:	2350      	movs	r3, #80	; 0x50
20007508:	54e7      	strb	r7, [r4, r3]
2000750a:	64a5      	str	r5, [r4, #72]	; 0x48
2000750c:	e00b      	b.n	20007526 <xQueueGenericCreate+0x92>
2000750e:	1c13      	adds	r3, r2, #0
20007510:	b2a9      	uxth	r1, r5
20007512:	b2b2      	uxth	r2, r6
20007514:	434a      	muls	r2, r1
20007516:	b280      	uxth	r0, r0
20007518:	b29b      	uxth	r3, r3
2000751a:	4343      	muls	r3, r0
2000751c:	0c12      	lsrs	r2, r2, #16
2000751e:	189b      	adds	r3, r3, r2
20007520:	0c1b      	lsrs	r3, r3, #16
20007522:	d0c3      	beq.n	200074ac <xQueueGenericCreate+0x18>
20007524:	2400      	movs	r4, #0
20007526:	0020      	movs	r0, r4
20007528:	bdf8      	pop	{r3, r4, r5, r6, r7, pc}
2000752a:	3354      	adds	r3, #84	; 0x54
2000752c:	e7cb      	b.n	200074c6 <xQueueGenericCreate+0x32>
2000752e:	2a00      	cmp	r2, #0
20007530:	d1f8      	bne.n	20007524 <xQueueGenericCreate+0x90>
20007532:	1c30      	adds	r0, r6, #0
20007534:	e7ec      	b.n	20007510 <xQueueGenericCreate+0x7c>
20007536:	46c0      	nop			; (mov r8, r8)

20007538 <xQueueGenericSendFromISR>:
20007538:	b5f8      	push	{r3, r4, r5, r6, r7, lr}
2000753a:	464e      	mov	r6, r9
2000753c:	46de      	mov	lr, fp
2000753e:	4657      	mov	r7, sl
20007540:	4645      	mov	r5, r8
20007542:	0004      	movs	r4, r0
20007544:	b5e0      	push	{r5, r6, r7, lr}
20007546:	4691      	mov	r9, r2
20007548:	001d      	movs	r5, r3
2000754a:	000f      	movs	r7, r1
2000754c:	f7ff fbc8 	bl	20006ce0 <ulSetInterruptMaskFromISR>
20007550:	6ba2      	ldr	r2, [r4, #56]	; 0x38
20007552:	6be3      	ldr	r3, [r4, #60]	; 0x3c
20007554:	0006      	movs	r6, r0
20007556:	429a      	cmp	r2, r3
20007558:	d32c      	bcc.n	200075b4 <xQueueGenericSendFromISR+0x7c>
2000755a:	2300      	movs	r3, #0
2000755c:	4698      	mov	r8, r3
2000755e:	2d02      	cmp	r5, #2
20007560:	d009      	beq.n	20007576 <xQueueGenericSendFromISR+0x3e>
20007562:	0030      	movs	r0, r6
20007564:	f7ff fbc0 	bl	20006ce8 <vClearInterruptMaskFromISR>
20007568:	4640      	mov	r0, r8
2000756a:	bcf0      	pop	{r4, r5, r6, r7}
2000756c:	46bb      	mov	fp, r7
2000756e:	46b2      	mov	sl, r6
20007570:	46a9      	mov	r9, r5
20007572:	46a0      	mov	r8, r4
20007574:	bdf8      	pop	{r3, r4, r5, r6, r7, pc}
20007576:	3345      	adds	r3, #69	; 0x45
20007578:	5ce3      	ldrb	r3, [r4, r3]
2000757a:	6c22      	ldr	r2, [r4, #64]	; 0x40
2000757c:	b25b      	sxtb	r3, r3
2000757e:	4698      	mov	r8, r3
20007580:	6ba3      	ldr	r3, [r4, #56]	; 0x38
20007582:	469a      	mov	sl, r3
20007584:	6ba3      	ldr	r3, [r4, #56]	; 0x38
20007586:	469b      	mov	fp, r3
20007588:	2a00      	cmp	r2, #0
2000758a:	d13a      	bne.n	20007602 <xQueueGenericSendFromISR+0xca>
2000758c:	6827      	ldr	r7, [r4, #0]
2000758e:	2f00      	cmp	r7, #0
20007590:	d065      	beq.n	2000765e <xQueueGenericSendFromISR+0x126>
20007592:	465b      	mov	r3, fp
20007594:	3301      	adds	r3, #1
20007596:	63a3      	str	r3, [r4, #56]	; 0x38
20007598:	4643      	mov	r3, r8
2000759a:	3301      	adds	r3, #1
2000759c:	d127      	bne.n	200075ee <xQueueGenericSendFromISR+0xb6>
2000759e:	6ca3      	ldr	r3, [r4, #72]	; 0x48
200075a0:	2b00      	cmp	r3, #0
200075a2:	d042      	beq.n	2000762a <xQueueGenericSendFromISR+0xf2>
200075a4:	2d02      	cmp	r5, #2
200075a6:	d14a      	bne.n	2000763e <xQueueGenericSendFromISR+0x106>
200075a8:	4653      	mov	r3, sl
200075aa:	2b00      	cmp	r3, #0
200075ac:	d047      	beq.n	2000763e <xQueueGenericSendFromISR+0x106>
200075ae:	2301      	movs	r3, #1
200075b0:	4698      	mov	r8, r3
200075b2:	e7d6      	b.n	20007562 <xQueueGenericSendFromISR+0x2a>
200075b4:	2345      	movs	r3, #69	; 0x45
200075b6:	5ce3      	ldrb	r3, [r4, r3]
200075b8:	6c22      	ldr	r2, [r4, #64]	; 0x40
200075ba:	b25b      	sxtb	r3, r3
200075bc:	4698      	mov	r8, r3
200075be:	6ba3      	ldr	r3, [r4, #56]	; 0x38
200075c0:	469a      	mov	sl, r3
200075c2:	6ba3      	ldr	r3, [r4, #56]	; 0x38
200075c4:	469b      	mov	fp, r3
200075c6:	2a00      	cmp	r2, #0
200075c8:	d0e0      	beq.n	2000758c <xQueueGenericSendFromISR+0x54>
200075ca:	2d00      	cmp	r5, #0
200075cc:	d119      	bne.n	20007602 <xQueueGenericSendFromISR+0xca>
200075ce:	0039      	movs	r1, r7
200075d0:	6860      	ldr	r0, [r4, #4]
200075d2:	f7fc fd61 	bl	20004098 <__wrap___aeabi_memcpy>
200075d6:	6863      	ldr	r3, [r4, #4]
200075d8:	6c22      	ldr	r2, [r4, #64]	; 0x40
200075da:	189b      	adds	r3, r3, r2
200075dc:	68a2      	ldr	r2, [r4, #8]
200075de:	6063      	str	r3, [r4, #4]
200075e0:	4293      	cmp	r3, r2
200075e2:	d3d6      	bcc.n	20007592 <xQueueGenericSendFromISR+0x5a>
200075e4:	6823      	ldr	r3, [r4, #0]
200075e6:	6063      	str	r3, [r4, #4]
200075e8:	465b      	mov	r3, fp
200075ea:	3301      	adds	r3, #1
200075ec:	e7d3      	b.n	20007596 <xQueueGenericSendFromISR+0x5e>
200075ee:	f000 fcbd 	bl	20007f6c <uxTaskGetNumberOfTasks>
200075f2:	4580      	cmp	r8, r0
200075f4:	d2db      	bcs.n	200075ae <xQueueGenericSendFromISR+0x76>
200075f6:	4643      	mov	r3, r8
200075f8:	2245      	movs	r2, #69	; 0x45
200075fa:	3301      	adds	r3, #1
200075fc:	b25b      	sxtb	r3, r3
200075fe:	54a3      	strb	r3, [r4, r2]
20007600:	e7d5      	b.n	200075ae <xQueueGenericSendFromISR+0x76>
20007602:	0039      	movs	r1, r7
20007604:	68e0      	ldr	r0, [r4, #12]
20007606:	f7fc fd47 	bl	20004098 <__wrap___aeabi_memcpy>
2000760a:	6c22      	ldr	r2, [r4, #64]	; 0x40
2000760c:	68e3      	ldr	r3, [r4, #12]
2000760e:	4251      	negs	r1, r2
20007610:	1a9b      	subs	r3, r3, r2
20007612:	6822      	ldr	r2, [r4, #0]
20007614:	60e3      	str	r3, [r4, #12]
20007616:	4293      	cmp	r3, r2
20007618:	d202      	bcs.n	20007620 <xQueueGenericSendFromISR+0xe8>
2000761a:	68a3      	ldr	r3, [r4, #8]
2000761c:	185b      	adds	r3, r3, r1
2000761e:	60e3      	str	r3, [r4, #12]
20007620:	465b      	mov	r3, fp
20007622:	2d02      	cmp	r5, #2
20007624:	d017      	beq.n	20007656 <xQueueGenericSendFromISR+0x11e>
20007626:	3301      	adds	r3, #1
20007628:	e7b5      	b.n	20007596 <xQueueGenericSendFromISR+0x5e>
2000762a:	6a63      	ldr	r3, [r4, #36]	; 0x24
2000762c:	2b00      	cmp	r3, #0
2000762e:	d0be      	beq.n	200075ae <xQueueGenericSendFromISR+0x76>
20007630:	0020      	movs	r0, r4
20007632:	3024      	adds	r0, #36	; 0x24
20007634:	f000 ff98 	bl	20008568 <xTaskRemoveFromEventList>
20007638:	2800      	cmp	r0, #0
2000763a:	d105      	bne.n	20007648 <xQueueGenericSendFromISR+0x110>
2000763c:	e7b7      	b.n	200075ae <xQueueGenericSendFromISR+0x76>
2000763e:	0020      	movs	r0, r4
20007640:	f7ff fee0 	bl	20007404 <prvNotifyQueueSetContainer>
20007644:	2800      	cmp	r0, #0
20007646:	d0b2      	beq.n	200075ae <xQueueGenericSendFromISR+0x76>
20007648:	464b      	mov	r3, r9
2000764a:	2b00      	cmp	r3, #0
2000764c:	d0af      	beq.n	200075ae <xQueueGenericSendFromISR+0x76>
2000764e:	2301      	movs	r3, #1
20007650:	464a      	mov	r2, r9
20007652:	6013      	str	r3, [r2, #0]
20007654:	e7ab      	b.n	200075ae <xQueueGenericSendFromISR+0x76>
20007656:	2b00      	cmp	r3, #0
20007658:	d19d      	bne.n	20007596 <xQueueGenericSendFromISR+0x5e>
2000765a:	3301      	adds	r3, #1
2000765c:	e79b      	b.n	20007596 <xQueueGenericSendFromISR+0x5e>
2000765e:	68a0      	ldr	r0, [r4, #8]
20007660:	f001 f886 	bl	20008770 <xTaskPriorityDisinherit>
20007664:	60a7      	str	r7, [r4, #8]
20007666:	e794      	b.n	20007592 <xQueueGenericSendFromISR+0x5a>

20007668 <xQueueReceive>:
20007668:	b5f0      	push	{r4, r5, r6, r7, lr}
2000766a:	4647      	mov	r7, r8
2000766c:	46ce      	mov	lr, r9
2000766e:	0004      	movs	r4, r0
20007670:	b580      	push	{r7, lr}
20007672:	b085      	sub	sp, #20
20007674:	4688      	mov	r8, r1
20007676:	9201      	str	r2, [sp, #4]
20007678:	f7ff fb0c 	bl	20006c94 <vPortEnterCritical>
2000767c:	6ba7      	ldr	r7, [r4, #56]	; 0x38
2000767e:	2f00      	cmp	r7, #0
20007680:	d15f      	bne.n	20007742 <xQueueReceive+0xda>
20007682:	9b01      	ldr	r3, [sp, #4]
20007684:	2b00      	cmp	r3, #0
20007686:	d03b      	beq.n	20007700 <xQueueReceive+0x98>
20007688:	a802      	add	r0, sp, #8
2000768a:	f001 f81f 	bl	200086cc <vTaskInternalSetTimeOutState>
2000768e:	2300      	movs	r3, #0
20007690:	2644      	movs	r6, #68	; 0x44
20007692:	4699      	mov	r9, r3
20007694:	2545      	movs	r5, #69	; 0x45
20007696:	f7ff fb09 	bl	20006cac <vPortExitCritical>
2000769a:	f000 fc59 	bl	20007f50 <vTaskSuspendAll>
2000769e:	f7ff faf9 	bl	20006c94 <vPortEnterCritical>
200076a2:	5da3      	ldrb	r3, [r4, r6]
200076a4:	b25b      	sxtb	r3, r3
200076a6:	3301      	adds	r3, #1
200076a8:	d101      	bne.n	200076ae <xQueueReceive+0x46>
200076aa:	464b      	mov	r3, r9
200076ac:	55a3      	strb	r3, [r4, r6]
200076ae:	5d63      	ldrb	r3, [r4, r5]
200076b0:	b25b      	sxtb	r3, r3
200076b2:	3301      	adds	r3, #1
200076b4:	d101      	bne.n	200076ba <xQueueReceive+0x52>
200076b6:	464b      	mov	r3, r9
200076b8:	5563      	strb	r3, [r4, r5]
200076ba:	f7ff faf7 	bl	20006cac <vPortExitCritical>
200076be:	a901      	add	r1, sp, #4
200076c0:	a802      	add	r0, sp, #8
200076c2:	f001 f80f 	bl	200086e4 <xTaskCheckForTimeOut>
200076c6:	2800      	cmp	r0, #0
200076c8:	d122      	bne.n	20007710 <xQueueReceive+0xa8>
200076ca:	f7ff fae3 	bl	20006c94 <vPortEnterCritical>
200076ce:	6ba3      	ldr	r3, [r4, #56]	; 0x38
200076d0:	2b00      	cmp	r3, #0
200076d2:	d12a      	bne.n	2000772a <xQueueReceive+0xc2>
200076d4:	f7ff faea 	bl	20006cac <vPortExitCritical>
200076d8:	0020      	movs	r0, r4
200076da:	9901      	ldr	r1, [sp, #4]
200076dc:	3024      	adds	r0, #36	; 0x24
200076de:	f000 fe3d 	bl	2000835c <vTaskPlaceOnEventList>
200076e2:	0020      	movs	r0, r4
200076e4:	f7ff fdd0 	bl	20007288 <prvUnlockQueue>
200076e8:	f000 fd26 	bl	20008138 <xTaskResumeAll>
200076ec:	2800      	cmp	r0, #0
200076ee:	d03d      	beq.n	2000776c <xQueueReceive+0x104>
200076f0:	f7ff fad0 	bl	20006c94 <vPortEnterCritical>
200076f4:	6ba7      	ldr	r7, [r4, #56]	; 0x38
200076f6:	2f00      	cmp	r7, #0
200076f8:	d123      	bne.n	20007742 <xQueueReceive+0xda>
200076fa:	9b01      	ldr	r3, [sp, #4]
200076fc:	2b00      	cmp	r3, #0
200076fe:	d1ca      	bne.n	20007696 <xQueueReceive+0x2e>
20007700:	f7ff fad4 	bl	20006cac <vPortExitCritical>
20007704:	2000      	movs	r0, #0
20007706:	b005      	add	sp, #20
20007708:	bcc0      	pop	{r6, r7}
2000770a:	46b9      	mov	r9, r7
2000770c:	46b0      	mov	r8, r6
2000770e:	bdf0      	pop	{r4, r5, r6, r7, pc}
20007710:	0020      	movs	r0, r4
20007712:	f7ff fdb9 	bl	20007288 <prvUnlockQueue>
20007716:	f000 fd0f 	bl	20008138 <xTaskResumeAll>
2000771a:	f7ff fabb 	bl	20006c94 <vPortEnterCritical>
2000771e:	6ba3      	ldr	r3, [r4, #56]	; 0x38
20007720:	2b00      	cmp	r3, #0
20007722:	d0ed      	beq.n	20007700 <xQueueReceive+0x98>
20007724:	f7ff fac2 	bl	20006cac <vPortExitCritical>
20007728:	e7e2      	b.n	200076f0 <xQueueReceive+0x88>
2000772a:	f7ff fabf 	bl	20006cac <vPortExitCritical>
2000772e:	0020      	movs	r0, r4
20007730:	f7ff fdaa 	bl	20007288 <prvUnlockQueue>
20007734:	f000 fd00 	bl	20008138 <xTaskResumeAll>
20007738:	f7ff faac 	bl	20006c94 <vPortEnterCritical>
2000773c:	6ba7      	ldr	r7, [r4, #56]	; 0x38
2000773e:	2f00      	cmp	r7, #0
20007740:	d0db      	beq.n	200076fa <xQueueReceive+0x92>
20007742:	6c22      	ldr	r2, [r4, #64]	; 0x40
20007744:	2a00      	cmp	r2, #0
20007746:	d008      	beq.n	2000775a <xQueueReceive+0xf2>
20007748:	68e1      	ldr	r1, [r4, #12]
2000774a:	68a3      	ldr	r3, [r4, #8]
2000774c:	1889      	adds	r1, r1, r2
2000774e:	60e1      	str	r1, [r4, #12]
20007750:	4299      	cmp	r1, r3
20007752:	d20e      	bcs.n	20007772 <xQueueReceive+0x10a>
20007754:	4640      	mov	r0, r8
20007756:	f7fc fc9f 	bl	20004098 <__wrap___aeabi_memcpy>
2000775a:	3f01      	subs	r7, #1
2000775c:	63a7      	str	r7, [r4, #56]	; 0x38
2000775e:	6923      	ldr	r3, [r4, #16]
20007760:	2b00      	cmp	r3, #0
20007762:	d109      	bne.n	20007778 <xQueueReceive+0x110>
20007764:	f7ff faa2 	bl	20006cac <vPortExitCritical>
20007768:	2001      	movs	r0, #1
2000776a:	e7cc      	b.n	20007706 <xQueueReceive+0x9e>
2000776c:	f7ff fa86 	bl	20006c7c <vPortYield>
20007770:	e7be      	b.n	200076f0 <xQueueReceive+0x88>
20007772:	6821      	ldr	r1, [r4, #0]
20007774:	60e1      	str	r1, [r4, #12]
20007776:	e7ed      	b.n	20007754 <xQueueReceive+0xec>
20007778:	0020      	movs	r0, r4
2000777a:	3010      	adds	r0, #16
2000777c:	f000 fef4 	bl	20008568 <xTaskRemoveFromEventList>
20007780:	2800      	cmp	r0, #0
20007782:	d0ef      	beq.n	20007764 <xQueueReceive+0xfc>
20007784:	f7ff fa7a 	bl	20006c7c <vPortYield>
20007788:	e7ec      	b.n	20007764 <xQueueReceive+0xfc>
2000778a:	46c0      	nop			; (mov r8, r8)

2000778c <vQueueAddToRegistry>:
2000778c:	b510      	push	{r4, lr}
2000778e:	2900      	cmp	r1, #0
20007790:	d033      	beq.n	200077fa <vQueueAddToRegistry+0x6e>
20007792:	4b42      	ldr	r3, [pc, #264]	; (2000789c <vQueueAddToRegistry+0x110>)
20007794:	685a      	ldr	r2, [r3, #4]
20007796:	4290      	cmp	r0, r2
20007798:	d100      	bne.n	2000779c <vQueueAddToRegistry+0x10>
2000779a:	e073      	b.n	20007884 <vQueueAddToRegistry+0xf8>
2000779c:	681a      	ldr	r2, [r3, #0]
2000779e:	2a00      	cmp	r2, #0
200077a0:	d02c      	beq.n	200077fc <vQueueAddToRegistry+0x70>
200077a2:	68da      	ldr	r2, [r3, #12]
200077a4:	4290      	cmp	r0, r2
200077a6:	d100      	bne.n	200077aa <vQueueAddToRegistry+0x1e>
200077a8:	e076      	b.n	20007898 <vQueueAddToRegistry+0x10c>
200077aa:	689a      	ldr	r2, [r3, #8]
200077ac:	2a00      	cmp	r2, #0
200077ae:	d03e      	beq.n	2000782e <vQueueAddToRegistry+0xa2>
200077b0:	695a      	ldr	r2, [r3, #20]
200077b2:	4290      	cmp	r0, r2
200077b4:	d100      	bne.n	200077b8 <vQueueAddToRegistry+0x2c>
200077b6:	e06d      	b.n	20007894 <vQueueAddToRegistry+0x108>
200077b8:	691a      	ldr	r2, [r3, #16]
200077ba:	2a00      	cmp	r2, #0
200077bc:	d03d      	beq.n	2000783a <vQueueAddToRegistry+0xae>
200077be:	69da      	ldr	r2, [r3, #28]
200077c0:	4290      	cmp	r0, r2
200077c2:	d061      	beq.n	20007888 <vQueueAddToRegistry+0xfc>
200077c4:	699a      	ldr	r2, [r3, #24]
200077c6:	2a00      	cmp	r2, #0
200077c8:	d03d      	beq.n	20007846 <vQueueAddToRegistry+0xba>
200077ca:	6a5a      	ldr	r2, [r3, #36]	; 0x24
200077cc:	4290      	cmp	r0, r2
200077ce:	d042      	beq.n	20007856 <vQueueAddToRegistry+0xca>
200077d0:	6a1a      	ldr	r2, [r3, #32]
200077d2:	2a00      	cmp	r2, #0
200077d4:	d043      	beq.n	2000785e <vQueueAddToRegistry+0xd2>
200077d6:	6ada      	ldr	r2, [r3, #44]	; 0x2c
200077d8:	4290      	cmp	r0, r2
200077da:	d057      	beq.n	2000788c <vQueueAddToRegistry+0x100>
200077dc:	6a9a      	ldr	r2, [r3, #40]	; 0x28
200077de:	2a00      	cmp	r2, #0
200077e0:	d043      	beq.n	2000786a <vQueueAddToRegistry+0xde>
200077e2:	6b5a      	ldr	r2, [r3, #52]	; 0x34
200077e4:	4290      	cmp	r0, r2
200077e6:	d053      	beq.n	20007890 <vQueueAddToRegistry+0x104>
200077e8:	6b1a      	ldr	r2, [r3, #48]	; 0x30
200077ea:	2a00      	cmp	r2, #0
200077ec:	d043      	beq.n	20007876 <vQueueAddToRegistry+0xea>
200077ee:	6bda      	ldr	r2, [r3, #60]	; 0x3c
200077f0:	4290      	cmp	r0, r2
200077f2:	d045      	beq.n	20007880 <vQueueAddToRegistry+0xf4>
200077f4:	6b9a      	ldr	r2, [r3, #56]	; 0x38
200077f6:	2a00      	cmp	r2, #0
200077f8:	d02a      	beq.n	20007850 <vQueueAddToRegistry+0xc4>
200077fa:	bd10      	pop	{r4, pc}
200077fc:	68da      	ldr	r2, [r3, #12]
200077fe:	4290      	cmp	r0, r2
20007800:	d04a      	beq.n	20007898 <vQueueAddToRegistry+0x10c>
20007802:	695a      	ldr	r2, [r3, #20]
20007804:	4290      	cmp	r0, r2
20007806:	d045      	beq.n	20007894 <vQueueAddToRegistry+0x108>
20007808:	001a      	movs	r2, r3
2000780a:	69dc      	ldr	r4, [r3, #28]
2000780c:	42a0      	cmp	r0, r4
2000780e:	d03b      	beq.n	20007888 <vQueueAddToRegistry+0xfc>
20007810:	6a5c      	ldr	r4, [r3, #36]	; 0x24
20007812:	42a0      	cmp	r0, r4
20007814:	d01f      	beq.n	20007856 <vQueueAddToRegistry+0xca>
20007816:	6adc      	ldr	r4, [r3, #44]	; 0x2c
20007818:	42a0      	cmp	r0, r4
2000781a:	d037      	beq.n	2000788c <vQueueAddToRegistry+0x100>
2000781c:	6b5c      	ldr	r4, [r3, #52]	; 0x34
2000781e:	42a0      	cmp	r0, r4
20007820:	d036      	beq.n	20007890 <vQueueAddToRegistry+0x104>
20007822:	6bdc      	ldr	r4, [r3, #60]	; 0x3c
20007824:	42a0      	cmp	r0, r4
20007826:	d02b      	beq.n	20007880 <vQueueAddToRegistry+0xf4>
20007828:	6011      	str	r1, [r2, #0]
2000782a:	6050      	str	r0, [r2, #4]
2000782c:	e7e5      	b.n	200077fa <vQueueAddToRegistry+0x6e>
2000782e:	695a      	ldr	r2, [r3, #20]
20007830:	4290      	cmp	r0, r2
20007832:	d02f      	beq.n	20007894 <vQueueAddToRegistry+0x108>
20007834:	001a      	movs	r2, r3
20007836:	3208      	adds	r2, #8
20007838:	e7e7      	b.n	2000780a <vQueueAddToRegistry+0x7e>
2000783a:	69da      	ldr	r2, [r3, #28]
2000783c:	4290      	cmp	r0, r2
2000783e:	d023      	beq.n	20007888 <vQueueAddToRegistry+0xfc>
20007840:	001a      	movs	r2, r3
20007842:	3210      	adds	r2, #16
20007844:	e7e4      	b.n	20007810 <vQueueAddToRegistry+0x84>
20007846:	6a5a      	ldr	r2, [r3, #36]	; 0x24
20007848:	4290      	cmp	r0, r2
2000784a:	d004      	beq.n	20007856 <vQueueAddToRegistry+0xca>
2000784c:	4a14      	ldr	r2, [pc, #80]	; (200078a0 <vQueueAddToRegistry+0x114>)
2000784e:	e7e2      	b.n	20007816 <vQueueAddToRegistry+0x8a>
20007850:	3338      	adds	r3, #56	; 0x38
20007852:	001a      	movs	r2, r3
20007854:	e7e8      	b.n	20007828 <vQueueAddToRegistry+0x9c>
20007856:	2204      	movs	r2, #4
20007858:	00d2      	lsls	r2, r2, #3
2000785a:	189a      	adds	r2, r3, r2
2000785c:	e7e4      	b.n	20007828 <vQueueAddToRegistry+0x9c>
2000785e:	6ada      	ldr	r2, [r3, #44]	; 0x2c
20007860:	4290      	cmp	r0, r2
20007862:	d013      	beq.n	2000788c <vQueueAddToRegistry+0x100>
20007864:	001a      	movs	r2, r3
20007866:	3220      	adds	r2, #32
20007868:	e7d8      	b.n	2000781c <vQueueAddToRegistry+0x90>
2000786a:	6b5a      	ldr	r2, [r3, #52]	; 0x34
2000786c:	4290      	cmp	r0, r2
2000786e:	d00f      	beq.n	20007890 <vQueueAddToRegistry+0x104>
20007870:	001a      	movs	r2, r3
20007872:	3228      	adds	r2, #40	; 0x28
20007874:	e7d5      	b.n	20007822 <vQueueAddToRegistry+0x96>
20007876:	001a      	movs	r2, r3
20007878:	6bdc      	ldr	r4, [r3, #60]	; 0x3c
2000787a:	3230      	adds	r2, #48	; 0x30
2000787c:	42a0      	cmp	r0, r4
2000787e:	d1d3      	bne.n	20007828 <vQueueAddToRegistry+0x9c>
20007880:	2207      	movs	r2, #7
20007882:	e7e9      	b.n	20007858 <vQueueAddToRegistry+0xcc>
20007884:	2200      	movs	r2, #0
20007886:	e7e7      	b.n	20007858 <vQueueAddToRegistry+0xcc>
20007888:	2203      	movs	r2, #3
2000788a:	e7e5      	b.n	20007858 <vQueueAddToRegistry+0xcc>
2000788c:	2205      	movs	r2, #5
2000788e:	e7e3      	b.n	20007858 <vQueueAddToRegistry+0xcc>
20007890:	2206      	movs	r2, #6
20007892:	e7e1      	b.n	20007858 <vQueueAddToRegistry+0xcc>
20007894:	2202      	movs	r2, #2
20007896:	e7df      	b.n	20007858 <vQueueAddToRegistry+0xcc>
20007898:	2201      	movs	r2, #1
2000789a:	e7dd      	b.n	20007858 <vQueueAddToRegistry+0xcc>
2000789c:	2000a528 	.word	0x2000a528
200078a0:	2000a540 	.word	0x2000a540

200078a4 <vQueueWaitForMessageRestricted>:
200078a4:	b570      	push	{r4, r5, r6, lr}
200078a6:	0004      	movs	r4, r0
200078a8:	0016      	movs	r6, r2
200078aa:	000d      	movs	r5, r1
200078ac:	f7ff f9f2 	bl	20006c94 <vPortEnterCritical>
200078b0:	2244      	movs	r2, #68	; 0x44
200078b2:	5ca3      	ldrb	r3, [r4, r2]
200078b4:	b25b      	sxtb	r3, r3
200078b6:	3301      	adds	r3, #1
200078b8:	d101      	bne.n	200078be <vQueueWaitForMessageRestricted+0x1a>
200078ba:	2300      	movs	r3, #0
200078bc:	54a3      	strb	r3, [r4, r2]
200078be:	2245      	movs	r2, #69	; 0x45
200078c0:	5ca3      	ldrb	r3, [r4, r2]
200078c2:	b25b      	sxtb	r3, r3
200078c4:	3301      	adds	r3, #1
200078c6:	d101      	bne.n	200078cc <vQueueWaitForMessageRestricted+0x28>
200078c8:	2300      	movs	r3, #0
200078ca:	54a3      	strb	r3, [r4, r2]
200078cc:	f7ff f9ee 	bl	20006cac <vPortExitCritical>
200078d0:	6ba3      	ldr	r3, [r4, #56]	; 0x38
200078d2:	2b00      	cmp	r3, #0
200078d4:	d003      	beq.n	200078de <vQueueWaitForMessageRestricted+0x3a>
200078d6:	0020      	movs	r0, r4
200078d8:	f7ff fcd6 	bl	20007288 <prvUnlockQueue>
200078dc:	bd70      	pop	{r4, r5, r6, pc}
200078de:	0020      	movs	r0, r4
200078e0:	0032      	movs	r2, r6
200078e2:	0029      	movs	r1, r5
200078e4:	3024      	adds	r0, #36	; 0x24
200078e6:	f000 fddf 	bl	200084a8 <vTaskPlaceOnEventListRestricted>
200078ea:	e7f4      	b.n	200078d6 <vQueueWaitForMessageRestricted+0x32>

200078ec <prvIdleTask>:
200078ec:	b5f0      	push	{r4, r5, r6, r7, lr}
200078ee:	46c6      	mov	lr, r8
200078f0:	4b12      	ldr	r3, [pc, #72]	; (2000793c <prvIdleTask+0x50>)
200078f2:	b500      	push	{lr}
200078f4:	4698      	mov	r8, r3
200078f6:	4d12      	ldr	r5, [pc, #72]	; (20007940 <prvIdleTask+0x54>)
200078f8:	4f12      	ldr	r7, [pc, #72]	; (20007944 <prvIdleTask+0x58>)
200078fa:	4e13      	ldr	r6, [pc, #76]	; (20007948 <prvIdleTask+0x5c>)
200078fc:	e014      	b.n	20007928 <prvIdleTask+0x3c>
200078fe:	f7ff f9c9 	bl	20006c94 <vPortEnterCritical>
20007902:	68fb      	ldr	r3, [r7, #12]
20007904:	68dc      	ldr	r4, [r3, #12]
20007906:	1d20      	adds	r0, r4, #4
20007908:	f7ff fcac 	bl	20007264 <uxListRemove>
2000790c:	6833      	ldr	r3, [r6, #0]
2000790e:	3b01      	subs	r3, #1
20007910:	6033      	str	r3, [r6, #0]
20007912:	682b      	ldr	r3, [r5, #0]
20007914:	3b01      	subs	r3, #1
20007916:	602b      	str	r3, [r5, #0]
20007918:	f7ff f9c8 	bl	20006cac <vPortExitCritical>
2000791c:	6b20      	ldr	r0, [r4, #48]	; 0x30
2000791e:	f001 f9ef 	bl	20008d00 <vPortFree>
20007922:	0020      	movs	r0, r4
20007924:	f001 f9ec 	bl	20008d00 <vPortFree>
20007928:	682b      	ldr	r3, [r5, #0]
2000792a:	2b00      	cmp	r3, #0
2000792c:	d1e7      	bne.n	200078fe <prvIdleTask+0x12>
2000792e:	4643      	mov	r3, r8
20007930:	681b      	ldr	r3, [r3, #0]
20007932:	2b01      	cmp	r3, #1
20007934:	d9f8      	bls.n	20007928 <prvIdleTask+0x3c>
20007936:	f7ff f9a1 	bl	20006c7c <vPortYield>
2000793a:	e7f5      	b.n	20007928 <prvIdleTask+0x3c>
2000793c:	20010190 	.word	0x20010190
20007940:	200204bc 	.word	0x200204bc
20007944:	20020568 	.word	0x20020568
20007948:	200204b8 	.word	0x200204b8

2000794c <vTaskSwitchContext.part.0>:
2000794c:	2200      	movs	r2, #0
2000794e:	4b1a      	ldr	r3, [pc, #104]	; (200079b8 <vTaskSwitchContext.part.0+0x6c>)
20007950:	b570      	push	{r4, r5, r6, lr}
20007952:	4c1a      	ldr	r4, [pc, #104]	; (200079bc <vTaskSwitchContext.part.0+0x70>)
20007954:	601a      	str	r2, [r3, #0]
20007956:	6823      	ldr	r3, [r4, #0]
20007958:	4919      	ldr	r1, [pc, #100]	; (200079c0 <vTaskSwitchContext.part.0+0x74>)
2000795a:	6b1b      	ldr	r3, [r3, #48]	; 0x30
2000795c:	681a      	ldr	r2, [r3, #0]
2000795e:	428a      	cmp	r2, r1
20007960:	d102      	bne.n	20007968 <vTaskSwitchContext.part.0+0x1c>
20007962:	6859      	ldr	r1, [r3, #4]
20007964:	4291      	cmp	r1, r2
20007966:	d020      	beq.n	200079aa <vTaskSwitchContext.part.0+0x5e>
20007968:	6820      	ldr	r0, [r4, #0]
2000796a:	6821      	ldr	r1, [r4, #0]
2000796c:	3134      	adds	r1, #52	; 0x34
2000796e:	f7f8 fccd 	bl	2000030c <vApplicationStackOverflowHook>
20007972:	4d14      	ldr	r5, [pc, #80]	; (200079c4 <vTaskSwitchContext.part.0+0x78>)
20007974:	4814      	ldr	r0, [pc, #80]	; (200079c8 <vTaskSwitchContext.part.0+0x7c>)
20007976:	682b      	ldr	r3, [r5, #0]
20007978:	e000      	b.n	2000797c <vTaskSwitchContext.part.0+0x30>
2000797a:	3b01      	subs	r3, #1
2000797c:	0099      	lsls	r1, r3, #2
2000797e:	18ca      	adds	r2, r1, r3
20007980:	0092      	lsls	r2, r2, #2
20007982:	5882      	ldr	r2, [r0, r2]
20007984:	2a00      	cmp	r2, #0
20007986:	d0f8      	beq.n	2000797a <vTaskSwitchContext.part.0+0x2e>
20007988:	18c9      	adds	r1, r1, r3
2000798a:	0089      	lsls	r1, r1, #2
2000798c:	1846      	adds	r6, r0, r1
2000798e:	6872      	ldr	r2, [r6, #4]
20007990:	3108      	adds	r1, #8
20007992:	6852      	ldr	r2, [r2, #4]
20007994:	1840      	adds	r0, r0, r1
20007996:	6072      	str	r2, [r6, #4]
20007998:	4282      	cmp	r2, r0
2000799a:	d003      	beq.n	200079a4 <vTaskSwitchContext.part.0+0x58>
2000799c:	68d2      	ldr	r2, [r2, #12]
2000799e:	6022      	str	r2, [r4, #0]
200079a0:	602b      	str	r3, [r5, #0]
200079a2:	bd70      	pop	{r4, r5, r6, pc}
200079a4:	6852      	ldr	r2, [r2, #4]
200079a6:	6072      	str	r2, [r6, #4]
200079a8:	e7f8      	b.n	2000799c <vTaskSwitchContext.part.0+0x50>
200079aa:	689a      	ldr	r2, [r3, #8]
200079ac:	428a      	cmp	r2, r1
200079ae:	d1db      	bne.n	20007968 <vTaskSwitchContext.part.0+0x1c>
200079b0:	68db      	ldr	r3, [r3, #12]
200079b2:	4293      	cmp	r3, r2
200079b4:	d1d8      	bne.n	20007968 <vTaskSwitchContext.part.0+0x1c>
200079b6:	e7dc      	b.n	20007972 <vTaskSwitchContext.part.0+0x26>
200079b8:	20020588 	.word	0x20020588
200079bc:	2001017c 	.word	0x2001017c
200079c0:	a5a5a5a5 	.word	0xa5a5a5a5
200079c4:	200204c8 	.word	0x200204c8
200079c8:	20010190 	.word	0x20010190

200079cc <xTaskCreate>:
200079cc:	b5f8      	push	{r3, r4, r5, r6, r7, lr}
200079ce:	46ce      	mov	lr, r9
200079d0:	4647      	mov	r7, r8
200079d2:	0096      	lsls	r6, r2, #2
200079d4:	b580      	push	{r7, lr}
200079d6:	4680      	mov	r8, r0
200079d8:	0030      	movs	r0, r6
200079da:	000d      	movs	r5, r1
200079dc:	4699      	mov	r9, r3
200079de:	f001 f945 	bl	20008c6c <pvPortMalloc>
200079e2:	1e07      	subs	r7, r0, #0
200079e4:	d100      	bne.n	200079e8 <xTaskCreate+0x1c>
200079e6:	e0b7      	b.n	20007b58 <xTaskCreate+0x18c>
200079e8:	2070      	movs	r0, #112	; 0x70
200079ea:	f001 f93f 	bl	20008c6c <pvPortMalloc>
200079ee:	1e04      	subs	r4, r0, #0
200079f0:	d100      	bne.n	200079f4 <xTaskCreate+0x28>
200079f2:	e0ae      	b.n	20007b52 <xTaskCreate+0x186>
200079f4:	2270      	movs	r2, #112	; 0x70
200079f6:	2100      	movs	r1, #0
200079f8:	f7fc fb48 	bl	2000408c <__wrap_memset>
200079fc:	0032      	movs	r2, r6
200079fe:	0038      	movs	r0, r7
20007a00:	6327      	str	r7, [r4, #48]	; 0x30
20007a02:	21a5      	movs	r1, #165	; 0xa5
20007a04:	f7fc fb42 	bl	2000408c <__wrap_memset>
20007a08:	2307      	movs	r3, #7
20007a0a:	6b27      	ldr	r7, [r4, #48]	; 0x30
20007a0c:	3e04      	subs	r6, #4
20007a0e:	19bf      	adds	r7, r7, r6
20007a10:	439f      	bics	r7, r3
20007a12:	2d00      	cmp	r5, #0
20007a14:	d04b      	beq.n	20007aae <xTaskCreate+0xe2>
20007a16:	2234      	movs	r2, #52	; 0x34
20007a18:	782b      	ldrb	r3, [r5, #0]
20007a1a:	54a3      	strb	r3, [r4, r2]
20007a1c:	2b00      	cmp	r3, #0
20007a1e:	d043      	beq.n	20007aa8 <xTaskCreate+0xdc>
20007a20:	786b      	ldrb	r3, [r5, #1]
20007a22:	3201      	adds	r2, #1
20007a24:	54a3      	strb	r3, [r4, r2]
20007a26:	2b00      	cmp	r3, #0
20007a28:	d03e      	beq.n	20007aa8 <xTaskCreate+0xdc>
20007a2a:	78ab      	ldrb	r3, [r5, #2]
20007a2c:	3201      	adds	r2, #1
20007a2e:	54a3      	strb	r3, [r4, r2]
20007a30:	2b00      	cmp	r3, #0
20007a32:	d039      	beq.n	20007aa8 <xTaskCreate+0xdc>
20007a34:	78eb      	ldrb	r3, [r5, #3]
20007a36:	3201      	adds	r2, #1
20007a38:	54a3      	strb	r3, [r4, r2]
20007a3a:	2b00      	cmp	r3, #0
20007a3c:	d034      	beq.n	20007aa8 <xTaskCreate+0xdc>
20007a3e:	792b      	ldrb	r3, [r5, #4]
20007a40:	3201      	adds	r2, #1
20007a42:	54a3      	strb	r3, [r4, r2]
20007a44:	2b00      	cmp	r3, #0
20007a46:	d02f      	beq.n	20007aa8 <xTaskCreate+0xdc>
20007a48:	796b      	ldrb	r3, [r5, #5]
20007a4a:	3201      	adds	r2, #1
20007a4c:	54a3      	strb	r3, [r4, r2]
20007a4e:	2b00      	cmp	r3, #0
20007a50:	d02a      	beq.n	20007aa8 <xTaskCreate+0xdc>
20007a52:	79ab      	ldrb	r3, [r5, #6]
20007a54:	3201      	adds	r2, #1
20007a56:	54a3      	strb	r3, [r4, r2]
20007a58:	2b00      	cmp	r3, #0
20007a5a:	d025      	beq.n	20007aa8 <xTaskCreate+0xdc>
20007a5c:	79eb      	ldrb	r3, [r5, #7]
20007a5e:	3201      	adds	r2, #1
20007a60:	54a3      	strb	r3, [r4, r2]
20007a62:	2b00      	cmp	r3, #0
20007a64:	d020      	beq.n	20007aa8 <xTaskCreate+0xdc>
20007a66:	7a2b      	ldrb	r3, [r5, #8]
20007a68:	3201      	adds	r2, #1
20007a6a:	54a3      	strb	r3, [r4, r2]
20007a6c:	2b00      	cmp	r3, #0
20007a6e:	d01b      	beq.n	20007aa8 <xTaskCreate+0xdc>
20007a70:	7a6b      	ldrb	r3, [r5, #9]
20007a72:	3201      	adds	r2, #1
20007a74:	54a3      	strb	r3, [r4, r2]
20007a76:	2b00      	cmp	r3, #0
20007a78:	d016      	beq.n	20007aa8 <xTaskCreate+0xdc>
20007a7a:	7aab      	ldrb	r3, [r5, #10]
20007a7c:	3201      	adds	r2, #1
20007a7e:	54a3      	strb	r3, [r4, r2]
20007a80:	2b00      	cmp	r3, #0
20007a82:	d011      	beq.n	20007aa8 <xTaskCreate+0xdc>
20007a84:	7aeb      	ldrb	r3, [r5, #11]
20007a86:	3201      	adds	r2, #1
20007a88:	54a3      	strb	r3, [r4, r2]
20007a8a:	2b00      	cmp	r3, #0
20007a8c:	d00c      	beq.n	20007aa8 <xTaskCreate+0xdc>
20007a8e:	7b2b      	ldrb	r3, [r5, #12]
20007a90:	3201      	adds	r2, #1
20007a92:	54a3      	strb	r3, [r4, r2]
20007a94:	2b00      	cmp	r3, #0
20007a96:	d007      	beq.n	20007aa8 <xTaskCreate+0xdc>
20007a98:	7b6b      	ldrb	r3, [r5, #13]
20007a9a:	3201      	adds	r2, #1
20007a9c:	54a3      	strb	r3, [r4, r2]
20007a9e:	2b00      	cmp	r3, #0
20007aa0:	d002      	beq.n	20007aa8 <xTaskCreate+0xdc>
20007aa2:	2342      	movs	r3, #66	; 0x42
20007aa4:	7baa      	ldrb	r2, [r5, #14]
20007aa6:	54e2      	strb	r2, [r4, r3]
20007aa8:	2343      	movs	r3, #67	; 0x43
20007aaa:	2200      	movs	r2, #0
20007aac:	54e2      	strb	r2, [r4, r3]
20007aae:	9d08      	ldr	r5, [sp, #32]
20007ab0:	2d1f      	cmp	r5, #31
20007ab2:	d857      	bhi.n	20007b64 <xTaskCreate+0x198>
20007ab4:	1d26      	adds	r6, r4, #4
20007ab6:	0030      	movs	r0, r6
20007ab8:	62e5      	str	r5, [r4, #44]	; 0x2c
20007aba:	64e5      	str	r5, [r4, #76]	; 0x4c
20007abc:	f7ff fbaa 	bl	20007214 <vListInitialiseItem>
20007ac0:	0020      	movs	r0, r4
20007ac2:	3018      	adds	r0, #24
20007ac4:	f7ff fba6 	bl	20007214 <vListInitialiseItem>
20007ac8:	2320      	movs	r3, #32
20007aca:	1b5b      	subs	r3, r3, r5
20007acc:	61a3      	str	r3, [r4, #24]
20007ace:	464a      	mov	r2, r9
20007ad0:	4641      	mov	r1, r8
20007ad2:	0038      	movs	r0, r7
20007ad4:	6124      	str	r4, [r4, #16]
20007ad6:	6264      	str	r4, [r4, #36]	; 0x24
20007ad8:	f7ff f8c0 	bl	20006c5c <pxPortInitialiseStack>
20007adc:	9b09      	ldr	r3, [sp, #36]	; 0x24
20007ade:	6020      	str	r0, [r4, #0]
20007ae0:	2b00      	cmp	r3, #0
20007ae2:	d000      	beq.n	20007ae6 <xTaskCreate+0x11a>
20007ae4:	601c      	str	r4, [r3, #0]
20007ae6:	f7ff f8d5 	bl	20006c94 <vPortEnterCritical>
20007aea:	4a3e      	ldr	r2, [pc, #248]	; (20007be4 <xTaskCreate+0x218>)
20007aec:	6813      	ldr	r3, [r2, #0]
20007aee:	3301      	adds	r3, #1
20007af0:	6013      	str	r3, [r2, #0]
20007af2:	4b3d      	ldr	r3, [pc, #244]	; (20007be8 <xTaskCreate+0x21c>)
20007af4:	4698      	mov	r8, r3
20007af6:	681b      	ldr	r3, [r3, #0]
20007af8:	2b00      	cmp	r3, #0
20007afa:	d043      	beq.n	20007b84 <xTaskCreate+0x1b8>
20007afc:	4d3b      	ldr	r5, [pc, #236]	; (20007bec <xTaskCreate+0x220>)
20007afe:	682b      	ldr	r3, [r5, #0]
20007b00:	2b00      	cmp	r3, #0
20007b02:	d031      	beq.n	20007b68 <xTaskCreate+0x19c>
20007b04:	6ae2      	ldr	r2, [r4, #44]	; 0x2c
20007b06:	4f3a      	ldr	r7, [pc, #232]	; (20007bf0 <xTaskCreate+0x224>)
20007b08:	493a      	ldr	r1, [pc, #232]	; (20007bf4 <xTaskCreate+0x228>)
20007b0a:	680b      	ldr	r3, [r1, #0]
20007b0c:	3301      	adds	r3, #1
20007b0e:	600b      	str	r3, [r1, #0]
20007b10:	6463      	str	r3, [r4, #68]	; 0x44
20007b12:	4b39      	ldr	r3, [pc, #228]	; (20007bf8 <xTaskCreate+0x22c>)
20007b14:	6819      	ldr	r1, [r3, #0]
20007b16:	4291      	cmp	r1, r2
20007b18:	d200      	bcs.n	20007b1c <xTaskCreate+0x150>
20007b1a:	601a      	str	r2, [r3, #0]
20007b1c:	0093      	lsls	r3, r2, #2
20007b1e:	189b      	adds	r3, r3, r2
20007b20:	009b      	lsls	r3, r3, #2
20007b22:	18f9      	adds	r1, r7, r3
20007b24:	684a      	ldr	r2, [r1, #4]
20007b26:	6890      	ldr	r0, [r2, #8]
20007b28:	60a2      	str	r2, [r4, #8]
20007b2a:	60e0      	str	r0, [r4, #12]
20007b2c:	6046      	str	r6, [r0, #4]
20007b2e:	6096      	str	r6, [r2, #8]
20007b30:	58fa      	ldr	r2, [r7, r3]
20007b32:	6161      	str	r1, [r4, #20]
20007b34:	3201      	adds	r2, #1
20007b36:	50fa      	str	r2, [r7, r3]
20007b38:	f7ff f8b8 	bl	20006cac <vPortExitCritical>
20007b3c:	682b      	ldr	r3, [r5, #0]
20007b3e:	2b00      	cmp	r3, #0
20007b40:	d005      	beq.n	20007b4e <xTaskCreate+0x182>
20007b42:	4643      	mov	r3, r8
20007b44:	681b      	ldr	r3, [r3, #0]
20007b46:	6ada      	ldr	r2, [r3, #44]	; 0x2c
20007b48:	6ae3      	ldr	r3, [r4, #44]	; 0x2c
20007b4a:	429a      	cmp	r2, r3
20007b4c:	d316      	bcc.n	20007b7c <xTaskCreate+0x1b0>
20007b4e:	2001      	movs	r0, #1
20007b50:	e004      	b.n	20007b5c <xTaskCreate+0x190>
20007b52:	0038      	movs	r0, r7
20007b54:	f001 f8d4 	bl	20008d00 <vPortFree>
20007b58:	2001      	movs	r0, #1
20007b5a:	4240      	negs	r0, r0
20007b5c:	bcc0      	pop	{r6, r7}
20007b5e:	46b9      	mov	r9, r7
20007b60:	46b0      	mov	r8, r6
20007b62:	bdf8      	pop	{r3, r4, r5, r6, r7, pc}
20007b64:	251f      	movs	r5, #31
20007b66:	e7a5      	b.n	20007ab4 <xTaskCreate+0xe8>
20007b68:	4643      	mov	r3, r8
20007b6a:	681b      	ldr	r3, [r3, #0]
20007b6c:	6ae2      	ldr	r2, [r4, #44]	; 0x2c
20007b6e:	6adb      	ldr	r3, [r3, #44]	; 0x2c
20007b70:	4293      	cmp	r3, r2
20007b72:	d801      	bhi.n	20007b78 <xTaskCreate+0x1ac>
20007b74:	4643      	mov	r3, r8
20007b76:	601c      	str	r4, [r3, #0]
20007b78:	4f1d      	ldr	r7, [pc, #116]	; (20007bf0 <xTaskCreate+0x224>)
20007b7a:	e7c5      	b.n	20007b08 <xTaskCreate+0x13c>
20007b7c:	f7ff f87e 	bl	20006c7c <vPortYield>
20007b80:	2001      	movs	r0, #1
20007b82:	e7eb      	b.n	20007b5c <xTaskCreate+0x190>
20007b84:	4643      	mov	r3, r8
20007b86:	601c      	str	r4, [r3, #0]
20007b88:	6813      	ldr	r3, [r2, #0]
20007b8a:	2b01      	cmp	r3, #1
20007b8c:	d003      	beq.n	20007b96 <xTaskCreate+0x1ca>
20007b8e:	6ae2      	ldr	r2, [r4, #44]	; 0x2c
20007b90:	4f17      	ldr	r7, [pc, #92]	; (20007bf0 <xTaskCreate+0x224>)
20007b92:	4d16      	ldr	r5, [pc, #88]	; (20007bec <xTaskCreate+0x220>)
20007b94:	e7b8      	b.n	20007b08 <xTaskCreate+0x13c>
20007b96:	23a0      	movs	r3, #160	; 0xa0
20007b98:	4f15      	ldr	r7, [pc, #84]	; (20007bf0 <xTaskCreate+0x224>)
20007b9a:	009b      	lsls	r3, r3, #2
20007b9c:	4699      	mov	r9, r3
20007b9e:	003d      	movs	r5, r7
20007ba0:	44b9      	add	r9, r7
20007ba2:	0028      	movs	r0, r5
20007ba4:	3514      	adds	r5, #20
20007ba6:	f7ff fb29 	bl	200071fc <vListInitialise>
20007baa:	45a9      	cmp	r9, r5
20007bac:	d1f9      	bne.n	20007ba2 <xTaskCreate+0x1d6>
20007bae:	4b13      	ldr	r3, [pc, #76]	; (20007bfc <xTaskCreate+0x230>)
20007bb0:	4699      	mov	r9, r3
20007bb2:	0018      	movs	r0, r3
20007bb4:	f7ff fb22 	bl	200071fc <vListInitialise>
20007bb8:	4d11      	ldr	r5, [pc, #68]	; (20007c00 <xTaskCreate+0x234>)
20007bba:	0028      	movs	r0, r5
20007bbc:	f7ff fb1e 	bl	200071fc <vListInitialise>
20007bc0:	4810      	ldr	r0, [pc, #64]	; (20007c04 <xTaskCreate+0x238>)
20007bc2:	f7ff fb1b 	bl	200071fc <vListInitialise>
20007bc6:	4810      	ldr	r0, [pc, #64]	; (20007c08 <xTaskCreate+0x23c>)
20007bc8:	f7ff fb18 	bl	200071fc <vListInitialise>
20007bcc:	480f      	ldr	r0, [pc, #60]	; (20007c0c <xTaskCreate+0x240>)
20007bce:	f7ff fb15 	bl	200071fc <vListInitialise>
20007bd2:	464a      	mov	r2, r9
20007bd4:	4b0e      	ldr	r3, [pc, #56]	; (20007c10 <xTaskCreate+0x244>)
20007bd6:	601a      	str	r2, [r3, #0]
20007bd8:	4b0e      	ldr	r3, [pc, #56]	; (20007c14 <xTaskCreate+0x248>)
20007bda:	6ae2      	ldr	r2, [r4, #44]	; 0x2c
20007bdc:	601d      	str	r5, [r3, #0]
20007bde:	4d03      	ldr	r5, [pc, #12]	; (20007bec <xTaskCreate+0x220>)
20007be0:	e792      	b.n	20007b08 <xTaskCreate+0x13c>
20007be2:	46c0      	nop			; (mov r8, r8)
20007be4:	200204b8 	.word	0x200204b8
20007be8:	2001017c 	.word	0x2001017c
20007bec:	20020550 	.word	0x20020550
20007bf0:	20010190 	.word	0x20010190
20007bf4:	200204c4 	.word	0x200204c4
20007bf8:	200204c8 	.word	0x200204c8
20007bfc:	200204f8 	.word	0x200204f8
20007c00:	2002050c 	.word	0x2002050c
20007c04:	2002053c 	.word	0x2002053c
20007c08:	20020568 	.word	0x20020568
20007c0c:	20020554 	.word	0x20020554
20007c10:	20010184 	.word	0x20010184
20007c14:	20010188 	.word	0x20010188

20007c18 <vTaskSuspend>:
20007c18:	b5f8      	push	{r3, r4, r5, r6, r7, lr}
20007c1a:	0004      	movs	r4, r0
20007c1c:	f7ff f83a 	bl	20006c94 <vPortEnterCritical>
20007c20:	4e28      	ldr	r6, [pc, #160]	; (20007cc4 <vTaskSuspend+0xac>)
20007c22:	2c00      	cmp	r4, #0
20007c24:	d040      	beq.n	20007ca8 <vTaskSuspend+0x90>
20007c26:	1d25      	adds	r5, r4, #4
20007c28:	0028      	movs	r0, r5
20007c2a:	f7ff fb1b 	bl	20007264 <uxListRemove>
20007c2e:	6aa3      	ldr	r3, [r4, #40]	; 0x28
20007c30:	2b00      	cmp	r3, #0
20007c32:	d003      	beq.n	20007c3c <vTaskSuspend+0x24>
20007c34:	0020      	movs	r0, r4
20007c36:	3018      	adds	r0, #24
20007c38:	f7ff fb14 	bl	20007264 <uxListRemove>
20007c3c:	4f22      	ldr	r7, [pc, #136]	; (20007cc8 <vTaskSuspend+0xb0>)
20007c3e:	0029      	movs	r1, r5
20007c40:	0038      	movs	r0, r7
20007c42:	f7ff faeb 	bl	2000721c <vListInsertEnd>
20007c46:	226c      	movs	r2, #108	; 0x6c
20007c48:	5ca3      	ldrb	r3, [r4, r2]
20007c4a:	2b01      	cmp	r3, #1
20007c4c:	d101      	bne.n	20007c52 <vTaskSuspend+0x3a>
20007c4e:	2300      	movs	r3, #0
20007c50:	54a3      	strb	r3, [r4, r2]
20007c52:	f7ff f82b 	bl	20006cac <vPortExitCritical>
20007c56:	4d1d      	ldr	r5, [pc, #116]	; (20007ccc <vTaskSuspend+0xb4>)
20007c58:	682b      	ldr	r3, [r5, #0]
20007c5a:	2b00      	cmp	r3, #0
20007c5c:	d103      	bne.n	20007c66 <vTaskSuspend+0x4e>
20007c5e:	6833      	ldr	r3, [r6, #0]
20007c60:	42a3      	cmp	r3, r4
20007c62:	d011      	beq.n	20007c88 <vTaskSuspend+0x70>
20007c64:	bdf8      	pop	{r3, r4, r5, r6, r7, pc}
20007c66:	f7ff f815 	bl	20006c94 <vPortEnterCritical>
20007c6a:	4b19      	ldr	r3, [pc, #100]	; (20007cd0 <vTaskSuspend+0xb8>)
20007c6c:	681a      	ldr	r2, [r3, #0]
20007c6e:	6812      	ldr	r2, [r2, #0]
20007c70:	2a00      	cmp	r2, #0
20007c72:	d01b      	beq.n	20007cac <vTaskSuspend+0x94>
20007c74:	681b      	ldr	r3, [r3, #0]
20007c76:	68db      	ldr	r3, [r3, #12]
20007c78:	681a      	ldr	r2, [r3, #0]
20007c7a:	4b16      	ldr	r3, [pc, #88]	; (20007cd4 <vTaskSuspend+0xbc>)
20007c7c:	601a      	str	r2, [r3, #0]
20007c7e:	f7ff f815 	bl	20006cac <vPortExitCritical>
20007c82:	6833      	ldr	r3, [r6, #0]
20007c84:	42a3      	cmp	r3, r4
20007c86:	d1ed      	bne.n	20007c64 <vTaskSuspend+0x4c>
20007c88:	682b      	ldr	r3, [r5, #0]
20007c8a:	2b00      	cmp	r3, #0
20007c8c:	d114      	bne.n	20007cb8 <vTaskSuspend+0xa0>
20007c8e:	4a12      	ldr	r2, [pc, #72]	; (20007cd8 <vTaskSuspend+0xc0>)
20007c90:	6839      	ldr	r1, [r7, #0]
20007c92:	6812      	ldr	r2, [r2, #0]
20007c94:	4291      	cmp	r1, r2
20007c96:	d00d      	beq.n	20007cb4 <vTaskSuspend+0x9c>
20007c98:	4b10      	ldr	r3, [pc, #64]	; (20007cdc <vTaskSuspend+0xc4>)
20007c9a:	681b      	ldr	r3, [r3, #0]
20007c9c:	2b00      	cmp	r3, #0
20007c9e:	d00e      	beq.n	20007cbe <vTaskSuspend+0xa6>
20007ca0:	2201      	movs	r2, #1
20007ca2:	4b0f      	ldr	r3, [pc, #60]	; (20007ce0 <vTaskSuspend+0xc8>)
20007ca4:	601a      	str	r2, [r3, #0]
20007ca6:	e7dd      	b.n	20007c64 <vTaskSuspend+0x4c>
20007ca8:	6834      	ldr	r4, [r6, #0]
20007caa:	e7bc      	b.n	20007c26 <vTaskSuspend+0xe>
20007cac:	4b09      	ldr	r3, [pc, #36]	; (20007cd4 <vTaskSuspend+0xbc>)
20007cae:	3a01      	subs	r2, #1
20007cb0:	601a      	str	r2, [r3, #0]
20007cb2:	e7e4      	b.n	20007c7e <vTaskSuspend+0x66>
20007cb4:	6033      	str	r3, [r6, #0]
20007cb6:	e7d5      	b.n	20007c64 <vTaskSuspend+0x4c>
20007cb8:	f7fe ffe0 	bl	20006c7c <vPortYield>
20007cbc:	e7d2      	b.n	20007c64 <vTaskSuspend+0x4c>
20007cbe:	f7ff fe45 	bl	2000794c <vTaskSwitchContext.part.0>
20007cc2:	e7cf      	b.n	20007c64 <vTaskSuspend+0x4c>
20007cc4:	2001017c 	.word	0x2001017c
20007cc8:	20020554 	.word	0x20020554
20007ccc:	20020550 	.word	0x20020550
20007cd0:	20010184 	.word	0x20010184
20007cd4:	20020530 	.word	0x20020530
20007cd8:	200204b8 	.word	0x200204b8
20007cdc:	200204c0 	.word	0x200204c0
20007ce0:	20020588 	.word	0x20020588

20007ce4 <vTaskResume>:
20007ce4:	b5f0      	push	{r4, r5, r6, r7, lr}
20007ce6:	46c6      	mov	lr, r8
20007ce8:	4d1d      	ldr	r5, [pc, #116]	; (20007d60 <vTaskResume+0x7c>)
20007cea:	0004      	movs	r4, r0
20007cec:	682b      	ldr	r3, [r5, #0]
20007cee:	b500      	push	{lr}
20007cf0:	4283      	cmp	r3, r0
20007cf2:	d009      	beq.n	20007d08 <vTaskResume+0x24>
20007cf4:	2800      	cmp	r0, #0
20007cf6:	d007      	beq.n	20007d08 <vTaskResume+0x24>
20007cf8:	f7fe ffcc 	bl	20006c94 <vPortEnterCritical>
20007cfc:	4b19      	ldr	r3, [pc, #100]	; (20007d64 <vTaskResume+0x80>)
20007cfe:	6962      	ldr	r2, [r4, #20]
20007d00:	429a      	cmp	r2, r3
20007d02:	d004      	beq.n	20007d0e <vTaskResume+0x2a>
20007d04:	f7fe ffd2 	bl	20006cac <vPortExitCritical>
20007d08:	bc80      	pop	{r7}
20007d0a:	46b8      	mov	r8, r7
20007d0c:	bdf0      	pop	{r4, r5, r6, r7, pc}
20007d0e:	6aa3      	ldr	r3, [r4, #40]	; 0x28
20007d10:	4a15      	ldr	r2, [pc, #84]	; (20007d68 <vTaskResume+0x84>)
20007d12:	4293      	cmp	r3, r2
20007d14:	d0f6      	beq.n	20007d04 <vTaskResume+0x20>
20007d16:	2b00      	cmp	r3, #0
20007d18:	d1f4      	bne.n	20007d04 <vTaskResume+0x20>
20007d1a:	1d26      	adds	r6, r4, #4
20007d1c:	0030      	movs	r0, r6
20007d1e:	f7ff faa1 	bl	20007264 <uxListRemove>
20007d22:	4b12      	ldr	r3, [pc, #72]	; (20007d6c <vTaskResume+0x88>)
20007d24:	6ae1      	ldr	r1, [r4, #44]	; 0x2c
20007d26:	681a      	ldr	r2, [r3, #0]
20007d28:	4291      	cmp	r1, r2
20007d2a:	d900      	bls.n	20007d2e <vTaskResume+0x4a>
20007d2c:	6019      	str	r1, [r3, #0]
20007d2e:	008b      	lsls	r3, r1, #2
20007d30:	4a0f      	ldr	r2, [pc, #60]	; (20007d70 <vTaskResume+0x8c>)
20007d32:	185b      	adds	r3, r3, r1
20007d34:	009b      	lsls	r3, r3, #2
20007d36:	18d0      	adds	r0, r2, r3
20007d38:	4680      	mov	r8, r0
20007d3a:	6840      	ldr	r0, [r0, #4]
20007d3c:	6887      	ldr	r7, [r0, #8]
20007d3e:	60a0      	str	r0, [r4, #8]
20007d40:	60e7      	str	r7, [r4, #12]
20007d42:	607e      	str	r6, [r7, #4]
20007d44:	6086      	str	r6, [r0, #8]
20007d46:	4640      	mov	r0, r8
20007d48:	6160      	str	r0, [r4, #20]
20007d4a:	58d0      	ldr	r0, [r2, r3]
20007d4c:	3001      	adds	r0, #1
20007d4e:	50d0      	str	r0, [r2, r3]
20007d50:	682b      	ldr	r3, [r5, #0]
20007d52:	6adb      	ldr	r3, [r3, #44]	; 0x2c
20007d54:	4299      	cmp	r1, r3
20007d56:	d3d5      	bcc.n	20007d04 <vTaskResume+0x20>
20007d58:	f7fe ff90 	bl	20006c7c <vPortYield>
20007d5c:	e7d2      	b.n	20007d04 <vTaskResume+0x20>
20007d5e:	46c0      	nop			; (mov r8, r8)
20007d60:	2001017c 	.word	0x2001017c
20007d64:	20020554 	.word	0x20020554
20007d68:	2002053c 	.word	0x2002053c
20007d6c:	200204c8 	.word	0x200204c8
20007d70:	20010190 	.word	0x20010190

20007d74 <vTaskStartScheduler>:
20007d74:	b5f8      	push	{r3, r4, r5, r6, r7, lr}
20007d76:	2080      	movs	r0, #128	; 0x80
20007d78:	46ce      	mov	lr, r9
20007d7a:	4647      	mov	r7, r8
20007d7c:	00c0      	lsls	r0, r0, #3
20007d7e:	b580      	push	{r7, lr}
20007d80:	f000 ff74 	bl	20008c6c <pvPortMalloc>
20007d84:	1e05      	subs	r5, r0, #0
20007d86:	d06b      	beq.n	20007e60 <vTaskStartScheduler+0xec>
20007d88:	2070      	movs	r0, #112	; 0x70
20007d8a:	f000 ff6f 	bl	20008c6c <pvPortMalloc>
20007d8e:	1e04      	subs	r4, r0, #0
20007d90:	d06c      	beq.n	20007e6c <vTaskStartScheduler+0xf8>
20007d92:	2270      	movs	r2, #112	; 0x70
20007d94:	2100      	movs	r1, #0
20007d96:	f7fc f979 	bl	2000408c <__wrap_memset>
20007d9a:	2280      	movs	r2, #128	; 0x80
20007d9c:	21a5      	movs	r1, #165	; 0xa5
20007d9e:	0028      	movs	r0, r5
20007da0:	6325      	str	r5, [r4, #48]	; 0x30
20007da2:	00d2      	lsls	r2, r2, #3
20007da4:	f7fc f972 	bl	2000408c <__wrap_memset>
20007da8:	23ff      	movs	r3, #255	; 0xff
20007daa:	009b      	lsls	r3, r3, #2
20007dac:	469c      	mov	ip, r3
20007dae:	2307      	movs	r3, #7
20007db0:	6b25      	ldr	r5, [r4, #48]	; 0x30
20007db2:	2238      	movs	r2, #56	; 0x38
20007db4:	4465      	add	r5, ip
20007db6:	439d      	bics	r5, r3
20007db8:	4b52      	ldr	r3, [pc, #328]	; (20007f04 <vTaskStartScheduler+0x190>)
20007dba:	1d27      	adds	r7, r4, #4
20007dbc:	6363      	str	r3, [r4, #52]	; 0x34
20007dbe:	2300      	movs	r3, #0
20007dc0:	54a3      	strb	r3, [r4, r2]
20007dc2:	320b      	adds	r2, #11
20007dc4:	54a3      	strb	r3, [r4, r2]
20007dc6:	0038      	movs	r0, r7
20007dc8:	62e3      	str	r3, [r4, #44]	; 0x2c
20007dca:	64e3      	str	r3, [r4, #76]	; 0x4c
20007dcc:	f7ff fa22 	bl	20007214 <vListInitialiseItem>
20007dd0:	0020      	movs	r0, r4
20007dd2:	3018      	adds	r0, #24
20007dd4:	f7ff fa1e 	bl	20007214 <vListInitialiseItem>
20007dd8:	2320      	movs	r3, #32
20007dda:	2200      	movs	r2, #0
20007ddc:	494a      	ldr	r1, [pc, #296]	; (20007f08 <vTaskStartScheduler+0x194>)
20007dde:	61a3      	str	r3, [r4, #24]
20007de0:	0028      	movs	r0, r5
20007de2:	6124      	str	r4, [r4, #16]
20007de4:	6264      	str	r4, [r4, #36]	; 0x24
20007de6:	f7fe ff39 	bl	20006c5c <pxPortInitialiseStack>
20007dea:	4b48      	ldr	r3, [pc, #288]	; (20007f0c <vTaskStartScheduler+0x198>)
20007dec:	6020      	str	r0, [r4, #0]
20007dee:	601c      	str	r4, [r3, #0]
20007df0:	f7fe ff50 	bl	20006c94 <vPortEnterCritical>
20007df4:	4a46      	ldr	r2, [pc, #280]	; (20007f10 <vTaskStartScheduler+0x19c>)
20007df6:	6813      	ldr	r3, [r2, #0]
20007df8:	3301      	adds	r3, #1
20007dfa:	6013      	str	r3, [r2, #0]
20007dfc:	4b45      	ldr	r3, [pc, #276]	; (20007f14 <vTaskStartScheduler+0x1a0>)
20007dfe:	4698      	mov	r8, r3
20007e00:	681b      	ldr	r3, [r3, #0]
20007e02:	2b00      	cmp	r3, #0
20007e04:	d040      	beq.n	20007e88 <vTaskStartScheduler+0x114>
20007e06:	4d44      	ldr	r5, [pc, #272]	; (20007f18 <vTaskStartScheduler+0x1a4>)
20007e08:	682b      	ldr	r3, [r5, #0]
20007e0a:	2b00      	cmp	r3, #0
20007e0c:	d032      	beq.n	20007e74 <vTaskStartScheduler+0x100>
20007e0e:	6ae2      	ldr	r2, [r4, #44]	; 0x2c
20007e10:	4e42      	ldr	r6, [pc, #264]	; (20007f1c <vTaskStartScheduler+0x1a8>)
20007e12:	4943      	ldr	r1, [pc, #268]	; (20007f20 <vTaskStartScheduler+0x1ac>)
20007e14:	680b      	ldr	r3, [r1, #0]
20007e16:	3301      	adds	r3, #1
20007e18:	600b      	str	r3, [r1, #0]
20007e1a:	6463      	str	r3, [r4, #68]	; 0x44
20007e1c:	4b41      	ldr	r3, [pc, #260]	; (20007f24 <vTaskStartScheduler+0x1b0>)
20007e1e:	6819      	ldr	r1, [r3, #0]
20007e20:	4291      	cmp	r1, r2
20007e22:	d200      	bcs.n	20007e26 <vTaskStartScheduler+0xb2>
20007e24:	601a      	str	r2, [r3, #0]
20007e26:	0093      	lsls	r3, r2, #2
20007e28:	189b      	adds	r3, r3, r2
20007e2a:	009b      	lsls	r3, r3, #2
20007e2c:	18f1      	adds	r1, r6, r3
20007e2e:	684a      	ldr	r2, [r1, #4]
20007e30:	6890      	ldr	r0, [r2, #8]
20007e32:	60a2      	str	r2, [r4, #8]
20007e34:	60e0      	str	r0, [r4, #12]
20007e36:	6047      	str	r7, [r0, #4]
20007e38:	6097      	str	r7, [r2, #8]
20007e3a:	58f2      	ldr	r2, [r6, r3]
20007e3c:	6161      	str	r1, [r4, #20]
20007e3e:	3201      	adds	r2, #1
20007e40:	50f2      	str	r2, [r6, r3]
20007e42:	f7fe ff33 	bl	20006cac <vPortExitCritical>
20007e46:	682b      	ldr	r3, [r5, #0]
20007e48:	2b00      	cmp	r3, #0
20007e4a:	d005      	beq.n	20007e58 <vTaskStartScheduler+0xe4>
20007e4c:	4643      	mov	r3, r8
20007e4e:	681b      	ldr	r3, [r3, #0]
20007e50:	6ada      	ldr	r2, [r3, #44]	; 0x2c
20007e52:	6ae3      	ldr	r3, [r4, #44]	; 0x2c
20007e54:	429a      	cmp	r2, r3
20007e56:	d320      	bcc.n	20007e9a <vTaskStartScheduler+0x126>
20007e58:	f000 fe8a 	bl	20008b70 <xTimerCreateTimerTask>
20007e5c:	2801      	cmp	r0, #1
20007e5e:	d01f      	beq.n	20007ea0 <vTaskStartScheduler+0x12c>
20007e60:	4b31      	ldr	r3, [pc, #196]	; (20007f28 <vTaskStartScheduler+0x1b4>)
20007e62:	681b      	ldr	r3, [r3, #0]
20007e64:	bcc0      	pop	{r6, r7}
20007e66:	46b9      	mov	r9, r7
20007e68:	46b0      	mov	r8, r6
20007e6a:	bdf8      	pop	{r3, r4, r5, r6, r7, pc}
20007e6c:	0028      	movs	r0, r5
20007e6e:	f000 ff47 	bl	20008d00 <vPortFree>
20007e72:	e7f5      	b.n	20007e60 <vTaskStartScheduler+0xec>
20007e74:	4643      	mov	r3, r8
20007e76:	681b      	ldr	r3, [r3, #0]
20007e78:	6ae2      	ldr	r2, [r4, #44]	; 0x2c
20007e7a:	6adb      	ldr	r3, [r3, #44]	; 0x2c
20007e7c:	4293      	cmp	r3, r2
20007e7e:	d801      	bhi.n	20007e84 <vTaskStartScheduler+0x110>
20007e80:	4643      	mov	r3, r8
20007e82:	601c      	str	r4, [r3, #0]
20007e84:	4e25      	ldr	r6, [pc, #148]	; (20007f1c <vTaskStartScheduler+0x1a8>)
20007e86:	e7c4      	b.n	20007e12 <vTaskStartScheduler+0x9e>
20007e88:	4643      	mov	r3, r8
20007e8a:	601c      	str	r4, [r3, #0]
20007e8c:	6813      	ldr	r3, [r2, #0]
20007e8e:	2b01      	cmp	r3, #1
20007e90:	d012      	beq.n	20007eb8 <vTaskStartScheduler+0x144>
20007e92:	6ae2      	ldr	r2, [r4, #44]	; 0x2c
20007e94:	4e21      	ldr	r6, [pc, #132]	; (20007f1c <vTaskStartScheduler+0x1a8>)
20007e96:	4d20      	ldr	r5, [pc, #128]	; (20007f18 <vTaskStartScheduler+0x1a4>)
20007e98:	e7bb      	b.n	20007e12 <vTaskStartScheduler+0x9e>
20007e9a:	f7fe feef 	bl	20006c7c <vPortYield>
20007e9e:	e7db      	b.n	20007e58 <vTaskStartScheduler+0xe4>
20007ea0:	b672      	cpsid	i
20007ea2:	2201      	movs	r2, #1
20007ea4:	4b21      	ldr	r3, [pc, #132]	; (20007f2c <vTaskStartScheduler+0x1b8>)
20007ea6:	4252      	negs	r2, r2
20007ea8:	601a      	str	r2, [r3, #0]
20007eaa:	2200      	movs	r2, #0
20007eac:	4b20      	ldr	r3, [pc, #128]	; (20007f30 <vTaskStartScheduler+0x1bc>)
20007eae:	6028      	str	r0, [r5, #0]
20007eb0:	601a      	str	r2, [r3, #0]
20007eb2:	f7fe ff49 	bl	20006d48 <xPortStartScheduler>
20007eb6:	e7d3      	b.n	20007e60 <vTaskStartScheduler+0xec>
20007eb8:	23a0      	movs	r3, #160	; 0xa0
20007eba:	4e18      	ldr	r6, [pc, #96]	; (20007f1c <vTaskStartScheduler+0x1a8>)
20007ebc:	009b      	lsls	r3, r3, #2
20007ebe:	4699      	mov	r9, r3
20007ec0:	0035      	movs	r5, r6
20007ec2:	44b1      	add	r9, r6
20007ec4:	0028      	movs	r0, r5
20007ec6:	3514      	adds	r5, #20
20007ec8:	f7ff f998 	bl	200071fc <vListInitialise>
20007ecc:	454d      	cmp	r5, r9
20007ece:	d1f9      	bne.n	20007ec4 <vTaskStartScheduler+0x150>
20007ed0:	4b18      	ldr	r3, [pc, #96]	; (20007f34 <vTaskStartScheduler+0x1c0>)
20007ed2:	4699      	mov	r9, r3
20007ed4:	0018      	movs	r0, r3
20007ed6:	f7ff f991 	bl	200071fc <vListInitialise>
20007eda:	4d17      	ldr	r5, [pc, #92]	; (20007f38 <vTaskStartScheduler+0x1c4>)
20007edc:	0028      	movs	r0, r5
20007ede:	f7ff f98d 	bl	200071fc <vListInitialise>
20007ee2:	4816      	ldr	r0, [pc, #88]	; (20007f3c <vTaskStartScheduler+0x1c8>)
20007ee4:	f7ff f98a 	bl	200071fc <vListInitialise>
20007ee8:	4815      	ldr	r0, [pc, #84]	; (20007f40 <vTaskStartScheduler+0x1cc>)
20007eea:	f7ff f987 	bl	200071fc <vListInitialise>
20007eee:	4815      	ldr	r0, [pc, #84]	; (20007f44 <vTaskStartScheduler+0x1d0>)
20007ef0:	f7ff f984 	bl	200071fc <vListInitialise>
20007ef4:	464a      	mov	r2, r9
20007ef6:	4b14      	ldr	r3, [pc, #80]	; (20007f48 <vTaskStartScheduler+0x1d4>)
20007ef8:	601a      	str	r2, [r3, #0]
20007efa:	4b14      	ldr	r3, [pc, #80]	; (20007f4c <vTaskStartScheduler+0x1d8>)
20007efc:	6ae2      	ldr	r2, [r4, #44]	; 0x2c
20007efe:	601d      	str	r5, [r3, #0]
20007f00:	4d05      	ldr	r5, [pc, #20]	; (20007f18 <vTaskStartScheduler+0x1a4>)
20007f02:	e786      	b.n	20007e12 <vTaskStartScheduler+0x9e>
20007f04:	454c4449 	.word	0x454c4449
20007f08:	200078ed 	.word	0x200078ed
20007f0c:	20020524 	.word	0x20020524
20007f10:	200204b8 	.word	0x200204b8
20007f14:	2001017c 	.word	0x2001017c
20007f18:	20020550 	.word	0x20020550
20007f1c:	20010190 	.word	0x20010190
20007f20:	200204c4 	.word	0x200204c4
20007f24:	200204c8 	.word	0x200204c8
20007f28:	2000a1d0 	.word	0x2000a1d0
20007f2c:	20020530 	.word	0x20020530
20007f30:	2002057c 	.word	0x2002057c
20007f34:	200204f8 	.word	0x200204f8
20007f38:	2002050c 	.word	0x2002050c
20007f3c:	2002053c 	.word	0x2002053c
20007f40:	20020568 	.word	0x20020568
20007f44:	20020554 	.word	0x20020554
20007f48:	20010184 	.word	0x20010184
20007f4c:	20010188 	.word	0x20010188

20007f50 <vTaskSuspendAll>:
20007f50:	4a02      	ldr	r2, [pc, #8]	; (20007f5c <vTaskSuspendAll+0xc>)
20007f52:	6813      	ldr	r3, [r2, #0]
20007f54:	3301      	adds	r3, #1
20007f56:	6013      	str	r3, [r2, #0]
20007f58:	4770      	bx	lr
20007f5a:	46c0      	nop			; (mov r8, r8)
20007f5c:	200204c0 	.word	0x200204c0

20007f60 <xTaskGetTickCount>:
20007f60:	4b01      	ldr	r3, [pc, #4]	; (20007f68 <xTaskGetTickCount+0x8>)
20007f62:	6818      	ldr	r0, [r3, #0]
20007f64:	4770      	bx	lr
20007f66:	46c0      	nop			; (mov r8, r8)
20007f68:	2002057c 	.word	0x2002057c

20007f6c <uxTaskGetNumberOfTasks>:
20007f6c:	4b01      	ldr	r3, [pc, #4]	; (20007f74 <uxTaskGetNumberOfTasks+0x8>)
20007f6e:	6818      	ldr	r0, [r3, #0]
20007f70:	4770      	bx	lr
20007f72:	46c0      	nop			; (mov r8, r8)
20007f74:	200204b8 	.word	0x200204b8

20007f78 <xTaskIncrementTick>:
20007f78:	b5f0      	push	{r4, r5, r6, r7, lr}
20007f7a:	46de      	mov	lr, fp
20007f7c:	4657      	mov	r7, sl
20007f7e:	464e      	mov	r6, r9
20007f80:	4645      	mov	r5, r8
20007f82:	b5e0      	push	{r5, r6, r7, lr}
20007f84:	4b61      	ldr	r3, [pc, #388]	; (2000810c <xTaskIncrementTick+0x194>)
20007f86:	b083      	sub	sp, #12
20007f88:	681b      	ldr	r3, [r3, #0]
20007f8a:	2b00      	cmp	r3, #0
20007f8c:	d000      	beq.n	20007f90 <xTaskIncrementTick+0x18>
20007f8e:	e09d      	b.n	200080cc <xTaskIncrementTick+0x154>
20007f90:	4b5f      	ldr	r3, [pc, #380]	; (20008110 <xTaskIncrementTick+0x198>)
20007f92:	681a      	ldr	r2, [r3, #0]
20007f94:	3201      	adds	r2, #1
20007f96:	4694      	mov	ip, r2
20007f98:	601a      	str	r2, [r3, #0]
20007f9a:	2a00      	cmp	r2, #0
20007f9c:	d05e      	beq.n	2000805c <xTaskIncrementTick+0xe4>
20007f9e:	4b5d      	ldr	r3, [pc, #372]	; (20008114 <xTaskIncrementTick+0x19c>)
20007fa0:	681a      	ldr	r2, [r3, #0]
20007fa2:	4594      	cmp	ip, r2
20007fa4:	d36e      	bcc.n	20008084 <xTaskIncrementTick+0x10c>
20007fa6:	4a5c      	ldr	r2, [pc, #368]	; (20008118 <xTaskIncrementTick+0x1a0>)
20007fa8:	4690      	mov	r8, r2
20007faa:	6812      	ldr	r2, [r2, #0]
20007fac:	6812      	ldr	r2, [r2, #0]
20007fae:	2a00      	cmp	r2, #0
20007fb0:	d100      	bne.n	20007fb4 <xTaskIncrementTick+0x3c>
20007fb2:	e0a5      	b.n	20008100 <xTaskIncrementTick+0x188>
20007fb4:	2200      	movs	r2, #0
20007fb6:	9200      	str	r2, [sp, #0]
20007fb8:	4a58      	ldr	r2, [pc, #352]	; (2000811c <xTaskIncrementTick+0x1a4>)
20007fba:	4d59      	ldr	r5, [pc, #356]	; (20008120 <xTaskIncrementTick+0x1a8>)
20007fbc:	4693      	mov	fp, r2
20007fbe:	2200      	movs	r2, #0
20007fc0:	4691      	mov	r9, r2
20007fc2:	4a58      	ldr	r2, [pc, #352]	; (20008124 <xTaskIncrementTick+0x1ac>)
20007fc4:	9301      	str	r3, [sp, #4]
20007fc6:	4692      	mov	sl, r2
20007fc8:	e036      	b.n	20008038 <xTaskIncrementTick+0xc0>
20007fca:	4649      	mov	r1, r9
20007fcc:	6159      	str	r1, [r3, #20]
20007fce:	6811      	ldr	r1, [r2, #0]
20007fd0:	3901      	subs	r1, #1
20007fd2:	6011      	str	r1, [r2, #0]
20007fd4:	6a9a      	ldr	r2, [r3, #40]	; 0x28
20007fd6:	2a00      	cmp	r2, #0
20007fd8:	d00d      	beq.n	20007ff6 <xTaskIncrementTick+0x7e>
20007fda:	69d9      	ldr	r1, [r3, #28]
20007fdc:	6a18      	ldr	r0, [r3, #32]
20007fde:	6856      	ldr	r6, [r2, #4]
20007fe0:	6088      	str	r0, [r1, #8]
20007fe2:	6041      	str	r1, [r0, #4]
20007fe4:	0019      	movs	r1, r3
20007fe6:	3118      	adds	r1, #24
20007fe8:	428e      	cmp	r6, r1
20007fea:	d06d      	beq.n	200080c8 <xTaskIncrementTick+0x150>
20007fec:	4649      	mov	r1, r9
20007fee:	6299      	str	r1, [r3, #40]	; 0x28
20007ff0:	6811      	ldr	r1, [r2, #0]
20007ff2:	3901      	subs	r1, #1
20007ff4:	6011      	str	r1, [r2, #0]
20007ff6:	4652      	mov	r2, sl
20007ff8:	6ad9      	ldr	r1, [r3, #44]	; 0x2c
20007ffa:	6812      	ldr	r2, [r2, #0]
20007ffc:	4291      	cmp	r1, r2
20007ffe:	d901      	bls.n	20008004 <xTaskIncrementTick+0x8c>
20008000:	4652      	mov	r2, sl
20008002:	6011      	str	r1, [r2, #0]
20008004:	008a      	lsls	r2, r1, #2
20008006:	1852      	adds	r2, r2, r1
20008008:	0092      	lsls	r2, r2, #2
2000800a:	18ae      	adds	r6, r5, r2
2000800c:	6870      	ldr	r0, [r6, #4]
2000800e:	6887      	ldr	r7, [r0, #8]
20008010:	6098      	str	r0, [r3, #8]
20008012:	60df      	str	r7, [r3, #12]
20008014:	607c      	str	r4, [r7, #4]
20008016:	6084      	str	r4, [r0, #8]
20008018:	615e      	str	r6, [r3, #20]
2000801a:	58ab      	ldr	r3, [r5, r2]
2000801c:	3301      	adds	r3, #1
2000801e:	50ab      	str	r3, [r5, r2]
20008020:	465b      	mov	r3, fp
20008022:	681b      	ldr	r3, [r3, #0]
20008024:	6adb      	ldr	r3, [r3, #44]	; 0x2c
20008026:	4299      	cmp	r1, r3
20008028:	d301      	bcc.n	2000802e <xTaskIncrementTick+0xb6>
2000802a:	2301      	movs	r3, #1
2000802c:	9300      	str	r3, [sp, #0]
2000802e:	4643      	mov	r3, r8
20008030:	681b      	ldr	r3, [r3, #0]
20008032:	681b      	ldr	r3, [r3, #0]
20008034:	2b00      	cmp	r3, #0
20008036:	d05e      	beq.n	200080f6 <xTaskIncrementTick+0x17e>
20008038:	4643      	mov	r3, r8
2000803a:	681b      	ldr	r3, [r3, #0]
2000803c:	68db      	ldr	r3, [r3, #12]
2000803e:	68db      	ldr	r3, [r3, #12]
20008040:	685a      	ldr	r2, [r3, #4]
20008042:	4594      	cmp	ip, r2
20008044:	d354      	bcc.n	200080f0 <xTaskIncrementTick+0x178>
20008046:	695a      	ldr	r2, [r3, #20]
20008048:	6898      	ldr	r0, [r3, #8]
2000804a:	68d9      	ldr	r1, [r3, #12]
2000804c:	1d1c      	adds	r4, r3, #4
2000804e:	6081      	str	r1, [r0, #8]
20008050:	6048      	str	r0, [r1, #4]
20008052:	6850      	ldr	r0, [r2, #4]
20008054:	42a0      	cmp	r0, r4
20008056:	d1b8      	bne.n	20007fca <xTaskIncrementTick+0x52>
20008058:	6051      	str	r1, [r2, #4]
2000805a:	e7b6      	b.n	20007fca <xTaskIncrementTick+0x52>
2000805c:	4b2e      	ldr	r3, [pc, #184]	; (20008118 <xTaskIncrementTick+0x1a0>)
2000805e:	4a32      	ldr	r2, [pc, #200]	; (20008128 <xTaskIncrementTick+0x1b0>)
20008060:	6819      	ldr	r1, [r3, #0]
20008062:	6810      	ldr	r0, [r2, #0]
20008064:	6018      	str	r0, [r3, #0]
20008066:	6011      	str	r1, [r2, #0]
20008068:	4930      	ldr	r1, [pc, #192]	; (2000812c <xTaskIncrementTick+0x1b4>)
2000806a:	680a      	ldr	r2, [r1, #0]
2000806c:	3201      	adds	r2, #1
2000806e:	600a      	str	r2, [r1, #0]
20008070:	681a      	ldr	r2, [r3, #0]
20008072:	6812      	ldr	r2, [r2, #0]
20008074:	2a00      	cmp	r2, #0
20008076:	d135      	bne.n	200080e4 <xTaskIncrementTick+0x16c>
20008078:	4b26      	ldr	r3, [pc, #152]	; (20008114 <xTaskIncrementTick+0x19c>)
2000807a:	3a01      	subs	r2, #1
2000807c:	601a      	str	r2, [r3, #0]
2000807e:	681a      	ldr	r2, [r3, #0]
20008080:	4594      	cmp	ip, r2
20008082:	d290      	bcs.n	20007fa6 <xTaskIncrementTick+0x2e>
20008084:	2300      	movs	r3, #0
20008086:	9300      	str	r3, [sp, #0]
20008088:	4b24      	ldr	r3, [pc, #144]	; (2000811c <xTaskIncrementTick+0x1a4>)
2000808a:	4d25      	ldr	r5, [pc, #148]	; (20008120 <xTaskIncrementTick+0x1a8>)
2000808c:	469b      	mov	fp, r3
2000808e:	465b      	mov	r3, fp
20008090:	681b      	ldr	r3, [r3, #0]
20008092:	6ada      	ldr	r2, [r3, #44]	; 0x2c
20008094:	0093      	lsls	r3, r2, #2
20008096:	189b      	adds	r3, r3, r2
20008098:	009b      	lsls	r3, r3, #2
2000809a:	58eb      	ldr	r3, [r5, r3]
2000809c:	2b01      	cmp	r3, #1
2000809e:	d901      	bls.n	200080a4 <xTaskIncrementTick+0x12c>
200080a0:	2301      	movs	r3, #1
200080a2:	9300      	str	r3, [sp, #0]
200080a4:	4b22      	ldr	r3, [pc, #136]	; (20008130 <xTaskIncrementTick+0x1b8>)
200080a6:	681b      	ldr	r3, [r3, #0]
200080a8:	2b00      	cmp	r3, #0
200080aa:	d018      	beq.n	200080de <xTaskIncrementTick+0x166>
200080ac:	4b21      	ldr	r3, [pc, #132]	; (20008134 <xTaskIncrementTick+0x1bc>)
200080ae:	681b      	ldr	r3, [r3, #0]
200080b0:	2b00      	cmp	r3, #0
200080b2:	d001      	beq.n	200080b8 <xTaskIncrementTick+0x140>
200080b4:	2301      	movs	r3, #1
200080b6:	9300      	str	r3, [sp, #0]
200080b8:	9800      	ldr	r0, [sp, #0]
200080ba:	b003      	add	sp, #12
200080bc:	bcf0      	pop	{r4, r5, r6, r7}
200080be:	46bb      	mov	fp, r7
200080c0:	46b2      	mov	sl, r6
200080c2:	46a9      	mov	r9, r5
200080c4:	46a0      	mov	r8, r4
200080c6:	bdf0      	pop	{r4, r5, r6, r7, pc}
200080c8:	6050      	str	r0, [r2, #4]
200080ca:	e78f      	b.n	20007fec <xTaskIncrementTick+0x74>
200080cc:	4a18      	ldr	r2, [pc, #96]	; (20008130 <xTaskIncrementTick+0x1b8>)
200080ce:	6813      	ldr	r3, [r2, #0]
200080d0:	3301      	adds	r3, #1
200080d2:	6013      	str	r3, [r2, #0]
200080d4:	f7f8 f918 	bl	20000308 <vApplicationTickHook>
200080d8:	2300      	movs	r3, #0
200080da:	9300      	str	r3, [sp, #0]
200080dc:	e7ec      	b.n	200080b8 <xTaskIncrementTick+0x140>
200080de:	f7f8 f913 	bl	20000308 <vApplicationTickHook>
200080e2:	e7e3      	b.n	200080ac <xTaskIncrementTick+0x134>
200080e4:	681b      	ldr	r3, [r3, #0]
200080e6:	68db      	ldr	r3, [r3, #12]
200080e8:	681a      	ldr	r2, [r3, #0]
200080ea:	4b0a      	ldr	r3, [pc, #40]	; (20008114 <xTaskIncrementTick+0x19c>)
200080ec:	601a      	str	r2, [r3, #0]
200080ee:	e757      	b.n	20007fa0 <xTaskIncrementTick+0x28>
200080f0:	9b01      	ldr	r3, [sp, #4]
200080f2:	601a      	str	r2, [r3, #0]
200080f4:	e7cb      	b.n	2000808e <xTaskIncrementTick+0x116>
200080f6:	9b01      	ldr	r3, [sp, #4]
200080f8:	2201      	movs	r2, #1
200080fa:	4252      	negs	r2, r2
200080fc:	601a      	str	r2, [r3, #0]
200080fe:	e7c6      	b.n	2000808e <xTaskIncrementTick+0x116>
20008100:	2200      	movs	r2, #0
20008102:	9200      	str	r2, [sp, #0]
20008104:	4a05      	ldr	r2, [pc, #20]	; (2000811c <xTaskIncrementTick+0x1a4>)
20008106:	4d06      	ldr	r5, [pc, #24]	; (20008120 <xTaskIncrementTick+0x1a8>)
20008108:	4693      	mov	fp, r2
2000810a:	e7f5      	b.n	200080f8 <xTaskIncrementTick+0x180>
2000810c:	200204c0 	.word	0x200204c0
20008110:	2002057c 	.word	0x2002057c
20008114:	20020530 	.word	0x20020530
20008118:	20010184 	.word	0x20010184
2000811c:	2001017c 	.word	0x2001017c
20008120:	20010190 	.word	0x20010190
20008124:	200204c8 	.word	0x200204c8
20008128:	20010188 	.word	0x20010188
2000812c:	20020534 	.word	0x20020534
20008130:	20020538 	.word	0x20020538
20008134:	20020588 	.word	0x20020588

20008138 <xTaskResumeAll>:
20008138:	b5f0      	push	{r4, r5, r6, r7, lr}
2000813a:	46de      	mov	lr, fp
2000813c:	4657      	mov	r7, sl
2000813e:	464e      	mov	r6, r9
20008140:	4645      	mov	r5, r8
20008142:	b5e0      	push	{r5, r6, r7, lr}
20008144:	b083      	sub	sp, #12
20008146:	f7fe fda5 	bl	20006c94 <vPortEnterCritical>
2000814a:	4b4b      	ldr	r3, [pc, #300]	; (20008278 <xTaskResumeAll+0x140>)
2000814c:	681a      	ldr	r2, [r3, #0]
2000814e:	3a01      	subs	r2, #1
20008150:	601a      	str	r2, [r3, #0]
20008152:	681b      	ldr	r3, [r3, #0]
20008154:	2b00      	cmp	r3, #0
20008156:	d175      	bne.n	20008244 <xTaskResumeAll+0x10c>
20008158:	4b48      	ldr	r3, [pc, #288]	; (2000827c <xTaskResumeAll+0x144>)
2000815a:	681b      	ldr	r3, [r3, #0]
2000815c:	2b00      	cmp	r3, #0
2000815e:	d071      	beq.n	20008244 <xTaskResumeAll+0x10c>
20008160:	4b47      	ldr	r3, [pc, #284]	; (20008280 <xTaskResumeAll+0x148>)
20008162:	469c      	mov	ip, r3
20008164:	681b      	ldr	r3, [r3, #0]
20008166:	2b00      	cmp	r3, #0
20008168:	d100      	bne.n	2000816c <xTaskResumeAll+0x34>
2000816a:	e082      	b.n	20008272 <xTaskResumeAll+0x13a>
2000816c:	4b45      	ldr	r3, [pc, #276]	; (20008284 <xTaskResumeAll+0x14c>)
2000816e:	4660      	mov	r0, ip
20008170:	4698      	mov	r8, r3
20008172:	4b45      	ldr	r3, [pc, #276]	; (20008288 <xTaskResumeAll+0x150>)
20008174:	4d45      	ldr	r5, [pc, #276]	; (2000828c <xTaskResumeAll+0x154>)
20008176:	469a      	mov	sl, r3
20008178:	4b45      	ldr	r3, [pc, #276]	; (20008290 <xTaskResumeAll+0x158>)
2000817a:	469b      	mov	fp, r3
2000817c:	2300      	movs	r3, #0
2000817e:	4699      	mov	r9, r3
20008180:	4643      	mov	r3, r8
20008182:	9301      	str	r3, [sp, #4]
20008184:	68c3      	ldr	r3, [r0, #12]
20008186:	68db      	ldr	r3, [r3, #12]
20008188:	69de      	ldr	r6, [r3, #28]
2000818a:	6a19      	ldr	r1, [r3, #32]
2000818c:	6a9a      	ldr	r2, [r3, #40]	; 0x28
2000818e:	60b1      	str	r1, [r6, #8]
20008190:	604e      	str	r6, [r1, #4]
20008192:	001e      	movs	r6, r3
20008194:	6857      	ldr	r7, [r2, #4]
20008196:	3618      	adds	r6, #24
20008198:	42b7      	cmp	r7, r6
2000819a:	d064      	beq.n	20008266 <xTaskResumeAll+0x12e>
2000819c:	4649      	mov	r1, r9
2000819e:	6299      	str	r1, [r3, #40]	; 0x28
200081a0:	6811      	ldr	r1, [r2, #0]
200081a2:	3901      	subs	r1, #1
200081a4:	6011      	str	r1, [r2, #0]
200081a6:	695a      	ldr	r2, [r3, #20]
200081a8:	689e      	ldr	r6, [r3, #8]
200081aa:	68d9      	ldr	r1, [r3, #12]
200081ac:	1d1f      	adds	r7, r3, #4
200081ae:	60b1      	str	r1, [r6, #8]
200081b0:	604e      	str	r6, [r1, #4]
200081b2:	6856      	ldr	r6, [r2, #4]
200081b4:	42be      	cmp	r6, r7
200081b6:	d054      	beq.n	20008262 <xTaskResumeAll+0x12a>
200081b8:	6811      	ldr	r1, [r2, #0]
200081ba:	6ade      	ldr	r6, [r3, #44]	; 0x2c
200081bc:	3901      	subs	r1, #1
200081be:	6011      	str	r1, [r2, #0]
200081c0:	9901      	ldr	r1, [sp, #4]
200081c2:	680a      	ldr	r2, [r1, #0]
200081c4:	4296      	cmp	r6, r2
200081c6:	d900      	bls.n	200081ca <xTaskResumeAll+0x92>
200081c8:	600e      	str	r6, [r1, #0]
200081ca:	00b2      	lsls	r2, r6, #2
200081cc:	1992      	adds	r2, r2, r6
200081ce:	0092      	lsls	r2, r2, #2
200081d0:	18a9      	adds	r1, r5, r2
200081d2:	468c      	mov	ip, r1
200081d4:	6849      	ldr	r1, [r1, #4]
200081d6:	688c      	ldr	r4, [r1, #8]
200081d8:	6099      	str	r1, [r3, #8]
200081da:	60dc      	str	r4, [r3, #12]
200081dc:	6067      	str	r7, [r4, #4]
200081de:	608f      	str	r7, [r1, #8]
200081e0:	4661      	mov	r1, ip
200081e2:	6159      	str	r1, [r3, #20]
200081e4:	58ab      	ldr	r3, [r5, r2]
200081e6:	3301      	adds	r3, #1
200081e8:	50ab      	str	r3, [r5, r2]
200081ea:	4653      	mov	r3, sl
200081ec:	681b      	ldr	r3, [r3, #0]
200081ee:	6adb      	ldr	r3, [r3, #44]	; 0x2c
200081f0:	429e      	cmp	r6, r3
200081f2:	d332      	bcc.n	2000825a <xTaskResumeAll+0x122>
200081f4:	465b      	mov	r3, fp
200081f6:	2201      	movs	r2, #1
200081f8:	601a      	str	r2, [r3, #0]
200081fa:	6803      	ldr	r3, [r0, #0]
200081fc:	2b00      	cmp	r3, #0
200081fe:	d1c1      	bne.n	20008184 <xTaskResumeAll+0x4c>
20008200:	4b24      	ldr	r3, [pc, #144]	; (20008294 <xTaskResumeAll+0x15c>)
20008202:	681a      	ldr	r2, [r3, #0]
20008204:	6812      	ldr	r2, [r2, #0]
20008206:	2a00      	cmp	r2, #0
20008208:	d02f      	beq.n	2000826a <xTaskResumeAll+0x132>
2000820a:	681b      	ldr	r3, [r3, #0]
2000820c:	68db      	ldr	r3, [r3, #12]
2000820e:	681a      	ldr	r2, [r3, #0]
20008210:	4b21      	ldr	r3, [pc, #132]	; (20008298 <xTaskResumeAll+0x160>)
20008212:	601a      	str	r2, [r3, #0]
20008214:	4e21      	ldr	r6, [pc, #132]	; (2000829c <xTaskResumeAll+0x164>)
20008216:	6834      	ldr	r4, [r6, #0]
20008218:	2c00      	cmp	r4, #0
2000821a:	d00b      	beq.n	20008234 <xTaskResumeAll+0xfc>
2000821c:	2501      	movs	r5, #1
2000821e:	465f      	mov	r7, fp
20008220:	f7ff feaa 	bl	20007f78 <xTaskIncrementTick>
20008224:	2800      	cmp	r0, #0
20008226:	d000      	beq.n	2000822a <xTaskResumeAll+0xf2>
20008228:	603d      	str	r5, [r7, #0]
2000822a:	3c01      	subs	r4, #1
2000822c:	2c00      	cmp	r4, #0
2000822e:	d1f7      	bne.n	20008220 <xTaskResumeAll+0xe8>
20008230:	46bb      	mov	fp, r7
20008232:	6034      	str	r4, [r6, #0]
20008234:	465b      	mov	r3, fp
20008236:	681b      	ldr	r3, [r3, #0]
20008238:	2b00      	cmp	r3, #0
2000823a:	d003      	beq.n	20008244 <xTaskResumeAll+0x10c>
2000823c:	f7fe fd1e 	bl	20006c7c <vPortYield>
20008240:	2401      	movs	r4, #1
20008242:	e000      	b.n	20008246 <xTaskResumeAll+0x10e>
20008244:	2400      	movs	r4, #0
20008246:	f7fe fd31 	bl	20006cac <vPortExitCritical>
2000824a:	0020      	movs	r0, r4
2000824c:	b003      	add	sp, #12
2000824e:	bcf0      	pop	{r4, r5, r6, r7}
20008250:	46bb      	mov	fp, r7
20008252:	46b2      	mov	sl, r6
20008254:	46a9      	mov	r9, r5
20008256:	46a0      	mov	r8, r4
20008258:	bdf0      	pop	{r4, r5, r6, r7, pc}
2000825a:	6803      	ldr	r3, [r0, #0]
2000825c:	2b00      	cmp	r3, #0
2000825e:	d191      	bne.n	20008184 <xTaskResumeAll+0x4c>
20008260:	e7ce      	b.n	20008200 <xTaskResumeAll+0xc8>
20008262:	6051      	str	r1, [r2, #4]
20008264:	e7a8      	b.n	200081b8 <xTaskResumeAll+0x80>
20008266:	6051      	str	r1, [r2, #4]
20008268:	e798      	b.n	2000819c <xTaskResumeAll+0x64>
2000826a:	4b0b      	ldr	r3, [pc, #44]	; (20008298 <xTaskResumeAll+0x160>)
2000826c:	3a01      	subs	r2, #1
2000826e:	601a      	str	r2, [r3, #0]
20008270:	e7d0      	b.n	20008214 <xTaskResumeAll+0xdc>
20008272:	4b07      	ldr	r3, [pc, #28]	; (20008290 <xTaskResumeAll+0x158>)
20008274:	469b      	mov	fp, r3
20008276:	e7cd      	b.n	20008214 <xTaskResumeAll+0xdc>
20008278:	200204c0 	.word	0x200204c0
2000827c:	200204b8 	.word	0x200204b8
20008280:	2002053c 	.word	0x2002053c
20008284:	200204c8 	.word	0x200204c8
20008288:	2001017c 	.word	0x2001017c
2000828c:	20010190 	.word	0x20010190
20008290:	20020588 	.word	0x20020588
20008294:	20010184 	.word	0x20010184
20008298:	20020530 	.word	0x20020530
2000829c:	20020538 	.word	0x20020538

200082a0 <xTaskDelayUntil>:
200082a0:	4a20      	ldr	r2, [pc, #128]	; (20008324 <xTaskDelayUntil+0x84>)
200082a2:	b5f8      	push	{r3, r4, r5, r6, r7, lr}
200082a4:	6813      	ldr	r3, [r2, #0]
200082a6:	3301      	adds	r3, #1
200082a8:	6013      	str	r3, [r2, #0]
200082aa:	4d1f      	ldr	r5, [pc, #124]	; (20008328 <xTaskDelayUntil+0x88>)
200082ac:	6803      	ldr	r3, [r0, #0]
200082ae:	682a      	ldr	r2, [r5, #0]
200082b0:	185c      	adds	r4, r3, r1
200082b2:	4293      	cmp	r3, r2
200082b4:	d921      	bls.n	200082fa <xTaskDelayUntil+0x5a>
200082b6:	42a3      	cmp	r3, r4
200082b8:	d931      	bls.n	2000831e <xTaskDelayUntil+0x7e>
200082ba:	42a2      	cmp	r2, r4
200082bc:	d22f      	bcs.n	2000831e <xTaskDelayUntil+0x7e>
200082be:	236d      	movs	r3, #109	; 0x6d
200082c0:	2100      	movs	r1, #0
200082c2:	682f      	ldr	r7, [r5, #0]
200082c4:	4e19      	ldr	r6, [pc, #100]	; (2000832c <xTaskDelayUntil+0x8c>)
200082c6:	6004      	str	r4, [r0, #0]
200082c8:	1abd      	subs	r5, r7, r2
200082ca:	6832      	ldr	r2, [r6, #0]
200082cc:	6830      	ldr	r0, [r6, #0]
200082ce:	54d1      	strb	r1, [r2, r3]
200082d0:	3004      	adds	r0, #4
200082d2:	f7fe ffc7 	bl	20007264 <uxListRemove>
200082d6:	6833      	ldr	r3, [r6, #0]
200082d8:	1964      	adds	r4, r4, r5
200082da:	605c      	str	r4, [r3, #4]
200082dc:	42a7      	cmp	r7, r4
200082de:	d90f      	bls.n	20008300 <xTaskDelayUntil+0x60>
200082e0:	4b13      	ldr	r3, [pc, #76]	; (20008330 <xTaskDelayUntil+0x90>)
200082e2:	6818      	ldr	r0, [r3, #0]
200082e4:	6831      	ldr	r1, [r6, #0]
200082e6:	3104      	adds	r1, #4
200082e8:	f7fe ffa4 	bl	20007234 <vListInsert>
200082ec:	2401      	movs	r4, #1
200082ee:	f7ff ff23 	bl	20008138 <xTaskResumeAll>
200082f2:	2800      	cmp	r0, #0
200082f4:	d010      	beq.n	20008318 <xTaskDelayUntil+0x78>
200082f6:	0020      	movs	r0, r4
200082f8:	bdf8      	pop	{r3, r4, r5, r6, r7, pc}
200082fa:	42a3      	cmp	r3, r4
200082fc:	d8df      	bhi.n	200082be <xTaskDelayUntil+0x1e>
200082fe:	e7dc      	b.n	200082ba <xTaskDelayUntil+0x1a>
20008300:	4b0c      	ldr	r3, [pc, #48]	; (20008334 <xTaskDelayUntil+0x94>)
20008302:	6818      	ldr	r0, [r3, #0]
20008304:	6831      	ldr	r1, [r6, #0]
20008306:	3104      	adds	r1, #4
20008308:	f7fe ff94 	bl	20007234 <vListInsert>
2000830c:	4b0a      	ldr	r3, [pc, #40]	; (20008338 <xTaskDelayUntil+0x98>)
2000830e:	681a      	ldr	r2, [r3, #0]
20008310:	4294      	cmp	r4, r2
20008312:	d2eb      	bcs.n	200082ec <xTaskDelayUntil+0x4c>
20008314:	601c      	str	r4, [r3, #0]
20008316:	e7e9      	b.n	200082ec <xTaskDelayUntil+0x4c>
20008318:	f7fe fcb0 	bl	20006c7c <vPortYield>
2000831c:	e7eb      	b.n	200082f6 <xTaskDelayUntil+0x56>
2000831e:	6004      	str	r4, [r0, #0]
20008320:	2400      	movs	r4, #0
20008322:	e7e4      	b.n	200082ee <xTaskDelayUntil+0x4e>
20008324:	200204c0 	.word	0x200204c0
20008328:	2002057c 	.word	0x2002057c
2000832c:	2001017c 	.word	0x2001017c
20008330:	20010188 	.word	0x20010188
20008334:	20010184 	.word	0x20010184
20008338:	20020530 	.word	0x20020530

2000833c <vTaskSwitchContext>:
2000833c:	4b05      	ldr	r3, [pc, #20]	; (20008354 <vTaskSwitchContext+0x18>)
2000833e:	b510      	push	{r4, lr}
20008340:	681b      	ldr	r3, [r3, #0]
20008342:	2b00      	cmp	r3, #0
20008344:	d003      	beq.n	2000834e <vTaskSwitchContext+0x12>
20008346:	2201      	movs	r2, #1
20008348:	4b03      	ldr	r3, [pc, #12]	; (20008358 <vTaskSwitchContext+0x1c>)
2000834a:	601a      	str	r2, [r3, #0]
2000834c:	bd10      	pop	{r4, pc}
2000834e:	f7ff fafd 	bl	2000794c <vTaskSwitchContext.part.0>
20008352:	e7fb      	b.n	2000834c <vTaskSwitchContext+0x10>
20008354:	200204c0 	.word	0x200204c0
20008358:	20020588 	.word	0x20020588

2000835c <vTaskPlaceOnEventList>:
2000835c:	b570      	push	{r4, r5, r6, lr}
2000835e:	4d1e      	ldr	r5, [pc, #120]	; (200083d8 <vTaskPlaceOnEventList+0x7c>)
20008360:	000c      	movs	r4, r1
20008362:	6829      	ldr	r1, [r5, #0]
20008364:	3118      	adds	r1, #24
20008366:	f7fe ff65 	bl	20007234 <vListInsert>
2000836a:	4b1c      	ldr	r3, [pc, #112]	; (200083dc <vTaskPlaceOnEventList+0x80>)
2000836c:	2100      	movs	r1, #0
2000836e:	681e      	ldr	r6, [r3, #0]
20008370:	236d      	movs	r3, #109	; 0x6d
20008372:	682a      	ldr	r2, [r5, #0]
20008374:	6828      	ldr	r0, [r5, #0]
20008376:	54d1      	strb	r1, [r2, r3]
20008378:	3004      	adds	r0, #4
2000837a:	f7fe ff73 	bl	20007264 <uxListRemove>
2000837e:	1c63      	adds	r3, r4, #1
20008380:	d017      	beq.n	200083b2 <vTaskPlaceOnEventList+0x56>
20008382:	682b      	ldr	r3, [r5, #0]
20008384:	19a4      	adds	r4, r4, r6
20008386:	605c      	str	r4, [r3, #4]
20008388:	42a6      	cmp	r6, r4
2000838a:	d906      	bls.n	2000839a <vTaskPlaceOnEventList+0x3e>
2000838c:	4b14      	ldr	r3, [pc, #80]	; (200083e0 <vTaskPlaceOnEventList+0x84>)
2000838e:	6818      	ldr	r0, [r3, #0]
20008390:	6829      	ldr	r1, [r5, #0]
20008392:	3104      	adds	r1, #4
20008394:	f7fe ff4e 	bl	20007234 <vListInsert>
20008398:	bd70      	pop	{r4, r5, r6, pc}
2000839a:	4b12      	ldr	r3, [pc, #72]	; (200083e4 <vTaskPlaceOnEventList+0x88>)
2000839c:	6818      	ldr	r0, [r3, #0]
2000839e:	6829      	ldr	r1, [r5, #0]
200083a0:	3104      	adds	r1, #4
200083a2:	f7fe ff47 	bl	20007234 <vListInsert>
200083a6:	4b10      	ldr	r3, [pc, #64]	; (200083e8 <vTaskPlaceOnEventList+0x8c>)
200083a8:	681a      	ldr	r2, [r3, #0]
200083aa:	4294      	cmp	r4, r2
200083ac:	d2f4      	bcs.n	20008398 <vTaskPlaceOnEventList+0x3c>
200083ae:	601c      	str	r4, [r3, #0]
200083b0:	e7f2      	b.n	20008398 <vTaskPlaceOnEventList+0x3c>
200083b2:	4b0e      	ldr	r3, [pc, #56]	; (200083ec <vTaskPlaceOnEventList+0x90>)
200083b4:	6829      	ldr	r1, [r5, #0]
200083b6:	685a      	ldr	r2, [r3, #4]
200083b8:	608a      	str	r2, [r1, #8]
200083ba:	6890      	ldr	r0, [r2, #8]
200083bc:	6829      	ldr	r1, [r5, #0]
200083be:	60c8      	str	r0, [r1, #12]
200083c0:	6829      	ldr	r1, [r5, #0]
200083c2:	3104      	adds	r1, #4
200083c4:	6041      	str	r1, [r0, #4]
200083c6:	6829      	ldr	r1, [r5, #0]
200083c8:	3104      	adds	r1, #4
200083ca:	6091      	str	r1, [r2, #8]
200083cc:	682a      	ldr	r2, [r5, #0]
200083ce:	6153      	str	r3, [r2, #20]
200083d0:	681a      	ldr	r2, [r3, #0]
200083d2:	3201      	adds	r2, #1
200083d4:	601a      	str	r2, [r3, #0]
200083d6:	e7df      	b.n	20008398 <vTaskPlaceOnEventList+0x3c>
200083d8:	2001017c 	.word	0x2001017c
200083dc:	2002057c 	.word	0x2002057c
200083e0:	20010188 	.word	0x20010188
200083e4:	20010184 	.word	0x20010184
200083e8:	20020530 	.word	0x20020530
200083ec:	20020554 	.word	0x20020554

200083f0 <vTaskPlaceOnUnorderedEventList>:
200083f0:	2380      	movs	r3, #128	; 0x80
200083f2:	b570      	push	{r4, r5, r6, lr}
200083f4:	4c26      	ldr	r4, [pc, #152]	; (20008490 <vTaskPlaceOnUnorderedEventList+0xa0>)
200083f6:	0015      	movs	r5, r2
200083f8:	061b      	lsls	r3, r3, #24
200083fa:	6822      	ldr	r2, [r4, #0]
200083fc:	430b      	orrs	r3, r1
200083fe:	6193      	str	r3, [r2, #24]
20008400:	6822      	ldr	r2, [r4, #0]
20008402:	6843      	ldr	r3, [r0, #4]
20008404:	6899      	ldr	r1, [r3, #8]
20008406:	61d3      	str	r3, [r2, #28]
20008408:	6822      	ldr	r2, [r4, #0]
2000840a:	6211      	str	r1, [r2, #32]
2000840c:	6822      	ldr	r2, [r4, #0]
2000840e:	3218      	adds	r2, #24
20008410:	604a      	str	r2, [r1, #4]
20008412:	6822      	ldr	r2, [r4, #0]
20008414:	2100      	movs	r1, #0
20008416:	3218      	adds	r2, #24
20008418:	609a      	str	r2, [r3, #8]
2000841a:	6823      	ldr	r3, [r4, #0]
2000841c:	6298      	str	r0, [r3, #40]	; 0x28
2000841e:	6803      	ldr	r3, [r0, #0]
20008420:	3301      	adds	r3, #1
20008422:	6003      	str	r3, [r0, #0]
20008424:	4b1b      	ldr	r3, [pc, #108]	; (20008494 <vTaskPlaceOnUnorderedEventList+0xa4>)
20008426:	681e      	ldr	r6, [r3, #0]
20008428:	236d      	movs	r3, #109	; 0x6d
2000842a:	6822      	ldr	r2, [r4, #0]
2000842c:	6820      	ldr	r0, [r4, #0]
2000842e:	54d1      	strb	r1, [r2, r3]
20008430:	3004      	adds	r0, #4
20008432:	f7fe ff17 	bl	20007264 <uxListRemove>
20008436:	1c6b      	adds	r3, r5, #1
20008438:	d017      	beq.n	2000846a <vTaskPlaceOnUnorderedEventList+0x7a>
2000843a:	6823      	ldr	r3, [r4, #0]
2000843c:	19ad      	adds	r5, r5, r6
2000843e:	605d      	str	r5, [r3, #4]
20008440:	42ae      	cmp	r6, r5
20008442:	d906      	bls.n	20008452 <vTaskPlaceOnUnorderedEventList+0x62>
20008444:	4b14      	ldr	r3, [pc, #80]	; (20008498 <vTaskPlaceOnUnorderedEventList+0xa8>)
20008446:	6818      	ldr	r0, [r3, #0]
20008448:	6821      	ldr	r1, [r4, #0]
2000844a:	3104      	adds	r1, #4
2000844c:	f7fe fef2 	bl	20007234 <vListInsert>
20008450:	bd70      	pop	{r4, r5, r6, pc}
20008452:	4b12      	ldr	r3, [pc, #72]	; (2000849c <vTaskPlaceOnUnorderedEventList+0xac>)
20008454:	6818      	ldr	r0, [r3, #0]
20008456:	6821      	ldr	r1, [r4, #0]
20008458:	3104      	adds	r1, #4
2000845a:	f7fe feeb 	bl	20007234 <vListInsert>
2000845e:	4b10      	ldr	r3, [pc, #64]	; (200084a0 <vTaskPlaceOnUnorderedEventList+0xb0>)
20008460:	681a      	ldr	r2, [r3, #0]
20008462:	4295      	cmp	r5, r2
20008464:	d2f4      	bcs.n	20008450 <vTaskPlaceOnUnorderedEventList+0x60>
20008466:	601d      	str	r5, [r3, #0]
20008468:	e7f2      	b.n	20008450 <vTaskPlaceOnUnorderedEventList+0x60>
2000846a:	4b0e      	ldr	r3, [pc, #56]	; (200084a4 <vTaskPlaceOnUnorderedEventList+0xb4>)
2000846c:	6821      	ldr	r1, [r4, #0]
2000846e:	685a      	ldr	r2, [r3, #4]
20008470:	608a      	str	r2, [r1, #8]
20008472:	6890      	ldr	r0, [r2, #8]
20008474:	6821      	ldr	r1, [r4, #0]
20008476:	60c8      	str	r0, [r1, #12]
20008478:	6821      	ldr	r1, [r4, #0]
2000847a:	3104      	adds	r1, #4
2000847c:	6041      	str	r1, [r0, #4]
2000847e:	6821      	ldr	r1, [r4, #0]
20008480:	3104      	adds	r1, #4
20008482:	6091      	str	r1, [r2, #8]
20008484:	6822      	ldr	r2, [r4, #0]
20008486:	6153      	str	r3, [r2, #20]
20008488:	681a      	ldr	r2, [r3, #0]
2000848a:	3201      	adds	r2, #1
2000848c:	601a      	str	r2, [r3, #0]
2000848e:	e7df      	b.n	20008450 <vTaskPlaceOnUnorderedEventList+0x60>
20008490:	2001017c 	.word	0x2001017c
20008494:	2002057c 	.word	0x2002057c
20008498:	20010188 	.word	0x20010188
2000849c:	20010184 	.word	0x20010184
200084a0:	20020530 	.word	0x20020530
200084a4:	20020554 	.word	0x20020554

200084a8 <vTaskPlaceOnEventListRestricted>:
200084a8:	b570      	push	{r4, r5, r6, lr}
200084aa:	4c29      	ldr	r4, [pc, #164]	; (20008550 <vTaskPlaceOnEventListRestricted+0xa8>)
200084ac:	6843      	ldr	r3, [r0, #4]
200084ae:	000d      	movs	r5, r1
200084b0:	6821      	ldr	r1, [r4, #0]
200084b2:	689e      	ldr	r6, [r3, #8]
200084b4:	61cb      	str	r3, [r1, #28]
200084b6:	6821      	ldr	r1, [r4, #0]
200084b8:	620e      	str	r6, [r1, #32]
200084ba:	6821      	ldr	r1, [r4, #0]
200084bc:	3118      	adds	r1, #24
200084be:	6071      	str	r1, [r6, #4]
200084c0:	6821      	ldr	r1, [r4, #0]
200084c2:	3118      	adds	r1, #24
200084c4:	6099      	str	r1, [r3, #8]
200084c6:	6823      	ldr	r3, [r4, #0]
200084c8:	6298      	str	r0, [r3, #40]	; 0x28
200084ca:	6803      	ldr	r3, [r0, #0]
200084cc:	3301      	adds	r3, #1
200084ce:	6003      	str	r3, [r0, #0]
200084d0:	4b20      	ldr	r3, [pc, #128]	; (20008554 <vTaskPlaceOnEventListRestricted+0xac>)
200084d2:	2a00      	cmp	r2, #0
200084d4:	d01b      	beq.n	2000850e <vTaskPlaceOnEventListRestricted+0x66>
200084d6:	681b      	ldr	r3, [r3, #0]
200084d8:	2100      	movs	r1, #0
200084da:	236d      	movs	r3, #109	; 0x6d
200084dc:	6822      	ldr	r2, [r4, #0]
200084de:	6820      	ldr	r0, [r4, #0]
200084e0:	54d1      	strb	r1, [r2, r3]
200084e2:	3004      	adds	r0, #4
200084e4:	f7fe febe 	bl	20007264 <uxListRemove>
200084e8:	4b1b      	ldr	r3, [pc, #108]	; (20008558 <vTaskPlaceOnEventListRestricted+0xb0>)
200084ea:	6821      	ldr	r1, [r4, #0]
200084ec:	685a      	ldr	r2, [r3, #4]
200084ee:	608a      	str	r2, [r1, #8]
200084f0:	6890      	ldr	r0, [r2, #8]
200084f2:	6821      	ldr	r1, [r4, #0]
200084f4:	60c8      	str	r0, [r1, #12]
200084f6:	6821      	ldr	r1, [r4, #0]
200084f8:	3104      	adds	r1, #4
200084fa:	6041      	str	r1, [r0, #4]
200084fc:	6821      	ldr	r1, [r4, #0]
200084fe:	3104      	adds	r1, #4
20008500:	6091      	str	r1, [r2, #8]
20008502:	6822      	ldr	r2, [r4, #0]
20008504:	6153      	str	r3, [r2, #20]
20008506:	681a      	ldr	r2, [r3, #0]
20008508:	3201      	adds	r2, #1
2000850a:	601a      	str	r2, [r3, #0]
2000850c:	bd70      	pop	{r4, r5, r6, pc}
2000850e:	681e      	ldr	r6, [r3, #0]
20008510:	236d      	movs	r3, #109	; 0x6d
20008512:	6821      	ldr	r1, [r4, #0]
20008514:	6820      	ldr	r0, [r4, #0]
20008516:	54ca      	strb	r2, [r1, r3]
20008518:	3004      	adds	r0, #4
2000851a:	f7fe fea3 	bl	20007264 <uxListRemove>
2000851e:	6823      	ldr	r3, [r4, #0]
20008520:	19ad      	adds	r5, r5, r6
20008522:	605d      	str	r5, [r3, #4]
20008524:	42ae      	cmp	r6, r5
20008526:	d80b      	bhi.n	20008540 <vTaskPlaceOnEventListRestricted+0x98>
20008528:	4b0c      	ldr	r3, [pc, #48]	; (2000855c <vTaskPlaceOnEventListRestricted+0xb4>)
2000852a:	6818      	ldr	r0, [r3, #0]
2000852c:	6821      	ldr	r1, [r4, #0]
2000852e:	3104      	adds	r1, #4
20008530:	f7fe fe80 	bl	20007234 <vListInsert>
20008534:	4b0a      	ldr	r3, [pc, #40]	; (20008560 <vTaskPlaceOnEventListRestricted+0xb8>)
20008536:	681a      	ldr	r2, [r3, #0]
20008538:	4295      	cmp	r5, r2
2000853a:	d2e7      	bcs.n	2000850c <vTaskPlaceOnEventListRestricted+0x64>
2000853c:	601d      	str	r5, [r3, #0]
2000853e:	e7e5      	b.n	2000850c <vTaskPlaceOnEventListRestricted+0x64>
20008540:	4b08      	ldr	r3, [pc, #32]	; (20008564 <vTaskPlaceOnEventListRestricted+0xbc>)
20008542:	6818      	ldr	r0, [r3, #0]
20008544:	6821      	ldr	r1, [r4, #0]
20008546:	3104      	adds	r1, #4
20008548:	f7fe fe74 	bl	20007234 <vListInsert>
2000854c:	e7de      	b.n	2000850c <vTaskPlaceOnEventListRestricted+0x64>
2000854e:	46c0      	nop			; (mov r8, r8)
20008550:	2001017c 	.word	0x2001017c
20008554:	2002057c 	.word	0x2002057c
20008558:	20020554 	.word	0x20020554
2000855c:	20010184 	.word	0x20010184
20008560:	20020530 	.word	0x20020530
20008564:	20010188 	.word	0x20010188

20008568 <xTaskRemoveFromEventList>:
20008568:	68c3      	ldr	r3, [r0, #12]
2000856a:	b5f0      	push	{r4, r5, r6, r7, lr}
2000856c:	68db      	ldr	r3, [r3, #12]
2000856e:	69d8      	ldr	r0, [r3, #28]
20008570:	6a19      	ldr	r1, [r3, #32]
20008572:	6a9a      	ldr	r2, [r3, #40]	; 0x28
20008574:	6081      	str	r1, [r0, #8]
20008576:	6048      	str	r0, [r1, #4]
20008578:	0018      	movs	r0, r3
2000857a:	6854      	ldr	r4, [r2, #4]
2000857c:	3018      	adds	r0, #24
2000857e:	4284      	cmp	r4, r0
20008580:	d042      	beq.n	20008608 <xTaskRemoveFromEventList+0xa0>
20008582:	2100      	movs	r1, #0
20008584:	6299      	str	r1, [r3, #40]	; 0x28
20008586:	6811      	ldr	r1, [r2, #0]
20008588:	3901      	subs	r1, #1
2000858a:	6011      	str	r1, [r2, #0]
2000858c:	4a24      	ldr	r2, [pc, #144]	; (20008620 <xTaskRemoveFromEventList+0xb8>)
2000858e:	6812      	ldr	r2, [r2, #0]
20008590:	2a00      	cmp	r2, #0
20008592:	d12a      	bne.n	200085ea <xTaskRemoveFromEventList+0x82>
20008594:	695a      	ldr	r2, [r3, #20]
20008596:	6898      	ldr	r0, [r3, #8]
20008598:	68d9      	ldr	r1, [r3, #12]
2000859a:	1d1d      	adds	r5, r3, #4
2000859c:	6081      	str	r1, [r0, #8]
2000859e:	6048      	str	r0, [r1, #4]
200085a0:	6850      	ldr	r0, [r2, #4]
200085a2:	42a8      	cmp	r0, r5
200085a4:	d032      	beq.n	2000860c <xTaskRemoveFromEventList+0xa4>
200085a6:	6811      	ldr	r1, [r2, #0]
200085a8:	3901      	subs	r1, #1
200085aa:	6011      	str	r1, [r2, #0]
200085ac:	4a1d      	ldr	r2, [pc, #116]	; (20008624 <xTaskRemoveFromEventList+0xbc>)
200085ae:	6ad9      	ldr	r1, [r3, #44]	; 0x2c
200085b0:	6810      	ldr	r0, [r2, #0]
200085b2:	4281      	cmp	r1, r0
200085b4:	d826      	bhi.n	20008604 <xTaskRemoveFromEventList+0x9c>
200085b6:	008a      	lsls	r2, r1, #2
200085b8:	481b      	ldr	r0, [pc, #108]	; (20008628 <xTaskRemoveFromEventList+0xc0>)
200085ba:	1852      	adds	r2, r2, r1
200085bc:	0092      	lsls	r2, r2, #2
200085be:	1886      	adds	r6, r0, r2
200085c0:	6874      	ldr	r4, [r6, #4]
200085c2:	68a7      	ldr	r7, [r4, #8]
200085c4:	609c      	str	r4, [r3, #8]
200085c6:	60df      	str	r7, [r3, #12]
200085c8:	607d      	str	r5, [r7, #4]
200085ca:	60a5      	str	r5, [r4, #8]
200085cc:	615e      	str	r6, [r3, #20]
200085ce:	5883      	ldr	r3, [r0, r2]
200085d0:	3301      	adds	r3, #1
200085d2:	5083      	str	r3, [r0, r2]
200085d4:	4b15      	ldr	r3, [pc, #84]	; (2000862c <xTaskRemoveFromEventList+0xc4>)
200085d6:	2000      	movs	r0, #0
200085d8:	681b      	ldr	r3, [r3, #0]
200085da:	6adb      	ldr	r3, [r3, #44]	; 0x2c
200085dc:	428b      	cmp	r3, r1
200085de:	d203      	bcs.n	200085e8 <xTaskRemoveFromEventList+0x80>
200085e0:	2201      	movs	r2, #1
200085e2:	4b13      	ldr	r3, [pc, #76]	; (20008630 <xTaskRemoveFromEventList+0xc8>)
200085e4:	3001      	adds	r0, #1
200085e6:	601a      	str	r2, [r3, #0]
200085e8:	bdf0      	pop	{r4, r5, r6, r7, pc}
200085ea:	4a12      	ldr	r2, [pc, #72]	; (20008634 <xTaskRemoveFromEventList+0xcc>)
200085ec:	6851      	ldr	r1, [r2, #4]
200085ee:	688c      	ldr	r4, [r1, #8]
200085f0:	61d9      	str	r1, [r3, #28]
200085f2:	621c      	str	r4, [r3, #32]
200085f4:	6060      	str	r0, [r4, #4]
200085f6:	6088      	str	r0, [r1, #8]
200085f8:	6811      	ldr	r1, [r2, #0]
200085fa:	629a      	str	r2, [r3, #40]	; 0x28
200085fc:	3101      	adds	r1, #1
200085fe:	6011      	str	r1, [r2, #0]
20008600:	6ad9      	ldr	r1, [r3, #44]	; 0x2c
20008602:	e7e7      	b.n	200085d4 <xTaskRemoveFromEventList+0x6c>
20008604:	6011      	str	r1, [r2, #0]
20008606:	e7d6      	b.n	200085b6 <xTaskRemoveFromEventList+0x4e>
20008608:	6051      	str	r1, [r2, #4]
2000860a:	e7ba      	b.n	20008582 <xTaskRemoveFromEventList+0x1a>
2000860c:	6051      	str	r1, [r2, #4]
2000860e:	6811      	ldr	r1, [r2, #0]
20008610:	3901      	subs	r1, #1
20008612:	6011      	str	r1, [r2, #0]
20008614:	4a03      	ldr	r2, [pc, #12]	; (20008624 <xTaskRemoveFromEventList+0xbc>)
20008616:	6ad9      	ldr	r1, [r3, #44]	; 0x2c
20008618:	6810      	ldr	r0, [r2, #0]
2000861a:	4281      	cmp	r1, r0
2000861c:	d9cb      	bls.n	200085b6 <xTaskRemoveFromEventList+0x4e>
2000861e:	e7f1      	b.n	20008604 <xTaskRemoveFromEventList+0x9c>
20008620:	200204c0 	.word	0x200204c0
20008624:	200204c8 	.word	0x200204c8
20008628:	20010190 	.word	0x20010190
2000862c:	2001017c 	.word	0x2001017c
20008630:	20020588 	.word	0x20020588
20008634:	2002053c 	.word	0x2002053c

20008638 <vTaskRemoveFromUnorderedEventList>:
20008638:	2380      	movs	r3, #128	; 0x80
2000863a:	061b      	lsls	r3, r3, #24
2000863c:	b5f0      	push	{r4, r5, r6, r7, lr}
2000863e:	6902      	ldr	r2, [r0, #16]
20008640:	6844      	ldr	r4, [r0, #4]
20008642:	430b      	orrs	r3, r1
20008644:	6881      	ldr	r1, [r0, #8]
20008646:	6003      	str	r3, [r0, #0]
20008648:	68c3      	ldr	r3, [r0, #12]
2000864a:	60a1      	str	r1, [r4, #8]
2000864c:	604c      	str	r4, [r1, #4]
2000864e:	6854      	ldr	r4, [r2, #4]
20008650:	4284      	cmp	r4, r0
20008652:	d02e      	beq.n	200086b2 <vTaskRemoveFromUnorderedEventList+0x7a>
20008654:	2100      	movs	r1, #0
20008656:	6101      	str	r1, [r0, #16]
20008658:	6811      	ldr	r1, [r2, #0]
2000865a:	6898      	ldr	r0, [r3, #8]
2000865c:	3901      	subs	r1, #1
2000865e:	6011      	str	r1, [r2, #0]
20008660:	695a      	ldr	r2, [r3, #20]
20008662:	68d9      	ldr	r1, [r3, #12]
20008664:	1d1d      	adds	r5, r3, #4
20008666:	6081      	str	r1, [r0, #8]
20008668:	6048      	str	r0, [r1, #4]
2000866a:	6850      	ldr	r0, [r2, #4]
2000866c:	42a8      	cmp	r0, r5
2000866e:	d022      	beq.n	200086b6 <vTaskRemoveFromUnorderedEventList+0x7e>
20008670:	6811      	ldr	r1, [r2, #0]
20008672:	6ad8      	ldr	r0, [r3, #44]	; 0x2c
20008674:	3901      	subs	r1, #1
20008676:	6011      	str	r1, [r2, #0]
20008678:	4a10      	ldr	r2, [pc, #64]	; (200086bc <vTaskRemoveFromUnorderedEventList+0x84>)
2000867a:	6811      	ldr	r1, [r2, #0]
2000867c:	4288      	cmp	r0, r1
2000867e:	d900      	bls.n	20008682 <vTaskRemoveFromUnorderedEventList+0x4a>
20008680:	6010      	str	r0, [r2, #0]
20008682:	0082      	lsls	r2, r0, #2
20008684:	490e      	ldr	r1, [pc, #56]	; (200086c0 <vTaskRemoveFromUnorderedEventList+0x88>)
20008686:	1812      	adds	r2, r2, r0
20008688:	0092      	lsls	r2, r2, #2
2000868a:	188e      	adds	r6, r1, r2
2000868c:	6874      	ldr	r4, [r6, #4]
2000868e:	68a7      	ldr	r7, [r4, #8]
20008690:	609c      	str	r4, [r3, #8]
20008692:	60df      	str	r7, [r3, #12]
20008694:	607d      	str	r5, [r7, #4]
20008696:	60a5      	str	r5, [r4, #8]
20008698:	615e      	str	r6, [r3, #20]
2000869a:	588b      	ldr	r3, [r1, r2]
2000869c:	3301      	adds	r3, #1
2000869e:	508b      	str	r3, [r1, r2]
200086a0:	4b08      	ldr	r3, [pc, #32]	; (200086c4 <vTaskRemoveFromUnorderedEventList+0x8c>)
200086a2:	681b      	ldr	r3, [r3, #0]
200086a4:	6adb      	ldr	r3, [r3, #44]	; 0x2c
200086a6:	4298      	cmp	r0, r3
200086a8:	d902      	bls.n	200086b0 <vTaskRemoveFromUnorderedEventList+0x78>
200086aa:	2201      	movs	r2, #1
200086ac:	4b06      	ldr	r3, [pc, #24]	; (200086c8 <vTaskRemoveFromUnorderedEventList+0x90>)
200086ae:	601a      	str	r2, [r3, #0]
200086b0:	bdf0      	pop	{r4, r5, r6, r7, pc}
200086b2:	6051      	str	r1, [r2, #4]
200086b4:	e7ce      	b.n	20008654 <vTaskRemoveFromUnorderedEventList+0x1c>
200086b6:	6051      	str	r1, [r2, #4]
200086b8:	e7da      	b.n	20008670 <vTaskRemoveFromUnorderedEventList+0x38>
200086ba:	46c0      	nop			; (mov r8, r8)
200086bc:	200204c8 	.word	0x200204c8
200086c0:	20010190 	.word	0x20010190
200086c4:	2001017c 	.word	0x2001017c
200086c8:	20020588 	.word	0x20020588

200086cc <vTaskInternalSetTimeOutState>:
200086cc:	4b03      	ldr	r3, [pc, #12]	; (200086dc <vTaskInternalSetTimeOutState+0x10>)
200086ce:	681b      	ldr	r3, [r3, #0]
200086d0:	6003      	str	r3, [r0, #0]
200086d2:	4b03      	ldr	r3, [pc, #12]	; (200086e0 <vTaskInternalSetTimeOutState+0x14>)
200086d4:	681b      	ldr	r3, [r3, #0]
200086d6:	6043      	str	r3, [r0, #4]
200086d8:	4770      	bx	lr
200086da:	46c0      	nop			; (mov r8, r8)
200086dc:	20020534 	.word	0x20020534
200086e0:	2002057c 	.word	0x2002057c

200086e4 <xTaskCheckForTimeOut>:
200086e4:	b5f0      	push	{r4, r5, r6, r7, lr}
200086e6:	46c6      	mov	lr, r8
200086e8:	b500      	push	{lr}
200086ea:	0004      	movs	r4, r0
200086ec:	000e      	movs	r6, r1
200086ee:	f7fe fad1 	bl	20006c94 <vPortEnterCritical>
200086f2:	236d      	movs	r3, #109	; 0x6d
200086f4:	4815      	ldr	r0, [pc, #84]	; (2000874c <xTaskCheckForTimeOut+0x68>)
200086f6:	4a16      	ldr	r2, [pc, #88]	; (20008750 <xTaskCheckForTimeOut+0x6c>)
200086f8:	6807      	ldr	r7, [r0, #0]
200086fa:	6815      	ldr	r5, [r2, #0]
200086fc:	6861      	ldr	r1, [r4, #4]
200086fe:	5ced      	ldrb	r5, [r5, r3]
20008700:	2d00      	cmp	r5, #0
20008702:	d009      	beq.n	20008718 <xTaskCheckForTimeOut+0x34>
20008704:	2100      	movs	r1, #0
20008706:	6812      	ldr	r2, [r2, #0]
20008708:	54d1      	strb	r1, [r2, r3]
2000870a:	2401      	movs	r4, #1
2000870c:	f7fe face 	bl	20006cac <vPortExitCritical>
20008710:	0020      	movs	r0, r4
20008712:	bc80      	pop	{r7}
20008714:	46b8      	mov	r8, r7
20008716:	bdf0      	pop	{r4, r5, r6, r7, pc}
20008718:	6833      	ldr	r3, [r6, #0]
2000871a:	1c5a      	adds	r2, r3, #1
2000871c:	d014      	beq.n	20008748 <xTaskCheckForTimeOut+0x64>
2000871e:	4a0d      	ldr	r2, [pc, #52]	; (20008754 <xTaskCheckForTimeOut+0x70>)
20008720:	6815      	ldr	r5, [r2, #0]
20008722:	46a8      	mov	r8, r5
20008724:	6825      	ldr	r5, [r4, #0]
20008726:	4545      	cmp	r5, r8
20008728:	d004      	beq.n	20008734 <xTaskCheckForTimeOut+0x50>
2000872a:	42b9      	cmp	r1, r7
2000872c:	d802      	bhi.n	20008734 <xTaskCheckForTimeOut+0x50>
2000872e:	2300      	movs	r3, #0
20008730:	6033      	str	r3, [r6, #0]
20008732:	e7ea      	b.n	2000870a <xTaskCheckForTimeOut+0x26>
20008734:	1a7d      	subs	r5, r7, r1
20008736:	42ab      	cmp	r3, r5
20008738:	d9f9      	bls.n	2000872e <xTaskCheckForTimeOut+0x4a>
2000873a:	1bdb      	subs	r3, r3, r7
2000873c:	185b      	adds	r3, r3, r1
2000873e:	6033      	str	r3, [r6, #0]
20008740:	6813      	ldr	r3, [r2, #0]
20008742:	6023      	str	r3, [r4, #0]
20008744:	6803      	ldr	r3, [r0, #0]
20008746:	6063      	str	r3, [r4, #4]
20008748:	2400      	movs	r4, #0
2000874a:	e7df      	b.n	2000870c <xTaskCheckForTimeOut+0x28>
2000874c:	2002057c 	.word	0x2002057c
20008750:	2001017c 	.word	0x2001017c
20008754:	20020534 	.word	0x20020534

20008758 <vTaskMissedYield>:
20008758:	2201      	movs	r2, #1
2000875a:	4b01      	ldr	r3, [pc, #4]	; (20008760 <vTaskMissedYield+0x8>)
2000875c:	601a      	str	r2, [r3, #0]
2000875e:	4770      	bx	lr
20008760:	20020588 	.word	0x20020588

20008764 <xTaskGetCurrentTaskHandle>:
20008764:	4b01      	ldr	r3, [pc, #4]	; (2000876c <xTaskGetCurrentTaskHandle+0x8>)
20008766:	6818      	ldr	r0, [r3, #0]
20008768:	4770      	bx	lr
2000876a:	46c0      	nop			; (mov r8, r8)
2000876c:	2001017c 	.word	0x2001017c

20008770 <xTaskPriorityDisinherit>:
20008770:	b570      	push	{r4, r5, r6, lr}
20008772:	1e04      	subs	r4, r0, #0
20008774:	d008      	beq.n	20008788 <xTaskPriorityDisinherit+0x18>
20008776:	6d03      	ldr	r3, [r0, #80]	; 0x50
20008778:	6ac1      	ldr	r1, [r0, #44]	; 0x2c
2000877a:	6cc2      	ldr	r2, [r0, #76]	; 0x4c
2000877c:	3b01      	subs	r3, #1
2000877e:	6503      	str	r3, [r0, #80]	; 0x50
20008780:	4291      	cmp	r1, r2
20008782:	d001      	beq.n	20008788 <xTaskPriorityDisinherit+0x18>
20008784:	2b00      	cmp	r3, #0
20008786:	d001      	beq.n	2000878c <xTaskPriorityDisinherit+0x1c>
20008788:	2000      	movs	r0, #0
2000878a:	bd70      	pop	{r4, r5, r6, pc}
2000878c:	1d05      	adds	r5, r0, #4
2000878e:	0028      	movs	r0, r5
20008790:	f7fe fd68 	bl	20007264 <uxListRemove>
20008794:	2320      	movs	r3, #32
20008796:	6ce2      	ldr	r2, [r4, #76]	; 0x4c
20008798:	1a9b      	subs	r3, r3, r2
2000879a:	61a3      	str	r3, [r4, #24]
2000879c:	4b0b      	ldr	r3, [pc, #44]	; (200087cc <xTaskPriorityDisinherit+0x5c>)
2000879e:	62e2      	str	r2, [r4, #44]	; 0x2c
200087a0:	6819      	ldr	r1, [r3, #0]
200087a2:	428a      	cmp	r2, r1
200087a4:	d900      	bls.n	200087a8 <xTaskPriorityDisinherit+0x38>
200087a6:	601a      	str	r2, [r3, #0]
200087a8:	4909      	ldr	r1, [pc, #36]	; (200087d0 <xTaskPriorityDisinherit+0x60>)
200087aa:	0093      	lsls	r3, r2, #2
200087ac:	189b      	adds	r3, r3, r2
200087ae:	000a      	movs	r2, r1
200087b0:	009b      	lsls	r3, r3, #2
200087b2:	18c8      	adds	r0, r1, r3
200087b4:	6841      	ldr	r1, [r0, #4]
200087b6:	688e      	ldr	r6, [r1, #8]
200087b8:	60a1      	str	r1, [r4, #8]
200087ba:	60e6      	str	r6, [r4, #12]
200087bc:	6075      	str	r5, [r6, #4]
200087be:	608d      	str	r5, [r1, #8]
200087c0:	58d1      	ldr	r1, [r2, r3]
200087c2:	6160      	str	r0, [r4, #20]
200087c4:	3101      	adds	r1, #1
200087c6:	2001      	movs	r0, #1
200087c8:	50d1      	str	r1, [r2, r3]
200087ca:	e7de      	b.n	2000878a <xTaskPriorityDisinherit+0x1a>
200087cc:	200204c8 	.word	0x200204c8
200087d0:	20010190 	.word	0x20010190

200087d4 <uxTaskResetEventItemValue>:
200087d4:	4b04      	ldr	r3, [pc, #16]	; (200087e8 <uxTaskResetEventItemValue+0x14>)
200087d6:	681a      	ldr	r2, [r3, #0]
200087d8:	6819      	ldr	r1, [r3, #0]
200087da:	6990      	ldr	r0, [r2, #24]
200087dc:	681a      	ldr	r2, [r3, #0]
200087de:	2320      	movs	r3, #32
200087e0:	6ac9      	ldr	r1, [r1, #44]	; 0x2c
200087e2:	1a5b      	subs	r3, r3, r1
200087e4:	6193      	str	r3, [r2, #24]
200087e6:	4770      	bx	lr
200087e8:	2001017c 	.word	0x2001017c

200087ec <prvTimerTask>:
200087ec:	b5f0      	push	{r4, r5, r6, r7, lr}
200087ee:	4657      	mov	r7, sl
200087f0:	46de      	mov	lr, fp
200087f2:	464e      	mov	r6, r9
200087f4:	4645      	mov	r5, r8
200087f6:	b5e0      	push	{r5, r6, r7, lr}
200087f8:	4ac8      	ldr	r2, [pc, #800]	; (20008b1c <prvTimerTask+0x330>)
200087fa:	b08b      	sub	sp, #44	; 0x2c
200087fc:	9203      	str	r2, [sp, #12]
200087fe:	2228      	movs	r2, #40	; 0x28
20008800:	4bc7      	ldr	r3, [pc, #796]	; (20008b20 <prvTimerTask+0x334>)
20008802:	4fc8      	ldr	r7, [pc, #800]	; (20008b24 <prvTimerTask+0x338>)
20008804:	9301      	str	r3, [sp, #4]
20008806:	4bc8      	ldr	r3, [pc, #800]	; (20008b28 <prvTimerTask+0x33c>)
20008808:	46b9      	mov	r9, r7
2000880a:	469a      	mov	sl, r3
2000880c:	4bc7      	ldr	r3, [pc, #796]	; (20008b2c <prvTimerTask+0x340>)
2000880e:	4693      	mov	fp, r2
20008810:	001f      	movs	r7, r3
20008812:	464b      	mov	r3, r9
20008814:	681b      	ldr	r3, [r3, #0]
20008816:	681d      	ldr	r5, [r3, #0]
20008818:	2d00      	cmp	r5, #0
2000881a:	d100      	bne.n	2000881e <prvTimerTask+0x32>
2000881c:	e0a0      	b.n	20008960 <prvTimerTask+0x174>
2000881e:	68db      	ldr	r3, [r3, #12]
20008820:	681d      	ldr	r5, [r3, #0]
20008822:	f7ff fb95 	bl	20007f50 <vTaskSuspendAll>
20008826:	f7ff fb9b 	bl	20007f60 <xTaskGetTickCount>
2000882a:	9b01      	ldr	r3, [sp, #4]
2000882c:	9002      	str	r0, [sp, #8]
2000882e:	681b      	ldr	r3, [r3, #0]
20008830:	4283      	cmp	r3, r0
20008832:	d900      	bls.n	20008836 <prvTimerTask+0x4a>
20008834:	e0a6      	b.n	20008984 <prvTimerTask+0x198>
20008836:	9a01      	ldr	r2, [sp, #4]
20008838:	6010      	str	r0, [r2, #0]
2000883a:	4285      	cmp	r5, r0
2000883c:	d800      	bhi.n	20008840 <prvTimerTask+0x54>
2000883e:	e148      	b.n	20008ad2 <prvTimerTask+0x2e6>
20008840:	2200      	movs	r2, #0
20008842:	9b02      	ldr	r3, [sp, #8]
20008844:	6838      	ldr	r0, [r7, #0]
20008846:	1ae9      	subs	r1, r5, r3
20008848:	f7ff f82c 	bl	200078a4 <vQueueWaitForMessageRestricted>
2000884c:	f7ff fc74 	bl	20008138 <xTaskResumeAll>
20008850:	2800      	cmp	r0, #0
20008852:	d100      	bne.n	20008856 <prvTimerTask+0x6a>
20008854:	e12f      	b.n	20008ab6 <prvTimerTask+0x2ca>
20008856:	2200      	movs	r2, #0
20008858:	6838      	ldr	r0, [r7, #0]
2000885a:	a906      	add	r1, sp, #24
2000885c:	f7fe ff04 	bl	20007668 <xQueueReceive>
20008860:	2800      	cmp	r0, #0
20008862:	d0d6      	beq.n	20008812 <prvTimerTask+0x26>
20008864:	9b06      	ldr	r3, [sp, #24]
20008866:	2b00      	cmp	r3, #0
20008868:	db71      	blt.n	2000894e <prvTimerTask+0x162>
2000886a:	9c08      	ldr	r4, [sp, #32]
2000886c:	6963      	ldr	r3, [r4, #20]
2000886e:	2b00      	cmp	r3, #0
20008870:	d002      	beq.n	20008878 <prvTimerTask+0x8c>
20008872:	1d20      	adds	r0, r4, #4
20008874:	f7fe fcf6 	bl	20007264 <uxListRemove>
20008878:	f7ff fb72 	bl	20007f60 <xTaskGetTickCount>
2000887c:	9b01      	ldr	r3, [sp, #4]
2000887e:	0005      	movs	r5, r0
20008880:	681b      	ldr	r3, [r3, #0]
20008882:	4298      	cmp	r0, r3
20008884:	d200      	bcs.n	20008888 <prvTimerTask+0x9c>
20008886:	e0ca      	b.n	20008a1e <prvTimerTask+0x232>
20008888:	9b01      	ldr	r3, [sp, #4]
2000888a:	601d      	str	r5, [r3, #0]
2000888c:	9b06      	ldr	r3, [sp, #24]
2000888e:	2b09      	cmp	r3, #9
20008890:	d8e1      	bhi.n	20008856 <prvTimerTask+0x6a>
20008892:	9a03      	ldr	r2, [sp, #12]
20008894:	009b      	lsls	r3, r3, #2
20008896:	58d3      	ldr	r3, [r2, r3]
20008898:	469f      	mov	pc, r3
2000889a:	465b      	mov	r3, fp
2000889c:	5ce0      	ldrb	r0, [r4, r3]
2000889e:	2301      	movs	r3, #1
200088a0:	465a      	mov	r2, fp
200088a2:	4303      	orrs	r3, r0
200088a4:	54a3      	strb	r3, [r4, r2]
200088a6:	9907      	ldr	r1, [sp, #28]
200088a8:	69a2      	ldr	r2, [r4, #24]
200088aa:	6124      	str	r4, [r4, #16]
200088ac:	188b      	adds	r3, r1, r2
200088ae:	6063      	str	r3, [r4, #4]
200088b0:	42ab      	cmp	r3, r5
200088b2:	d900      	bls.n	200088b6 <prvTimerTask+0xca>
200088b4:	e102      	b.n	20008abc <prvTimerTask+0x2d0>
200088b6:	1a69      	subs	r1, r5, r1
200088b8:	428a      	cmp	r2, r1
200088ba:	d831      	bhi.n	20008920 <prvTimerTask+0x134>
200088bc:	0741      	lsls	r1, r0, #29
200088be:	d410      	bmi.n	200088e2 <prvTimerTask+0xf6>
200088c0:	2301      	movs	r3, #1
200088c2:	4398      	bics	r0, r3
200088c4:	465b      	mov	r3, fp
200088c6:	54e0      	strb	r0, [r4, r3]
200088c8:	0020      	movs	r0, r4
200088ca:	6a23      	ldr	r3, [r4, #32]
200088cc:	4798      	blx	r3
200088ce:	e7c2      	b.n	20008856 <prvTimerTask+0x6a>
200088d0:	1aeb      	subs	r3, r5, r3
200088d2:	4293      	cmp	r3, r2
200088d4:	d200      	bcs.n	200088d8 <prvTimerTask+0xec>
200088d6:	e116      	b.n	20008b06 <prvTimerTask+0x31a>
200088d8:	6a23      	ldr	r3, [r4, #32]
200088da:	0020      	movs	r0, r4
200088dc:	4798      	blx	r3
200088de:	0033      	movs	r3, r6
200088e0:	69a2      	ldr	r2, [r4, #24]
200088e2:	189e      	adds	r6, r3, r2
200088e4:	6066      	str	r6, [r4, #4]
200088e6:	6124      	str	r4, [r4, #16]
200088e8:	42b5      	cmp	r5, r6
200088ea:	d2f1      	bcs.n	200088d0 <prvTimerTask+0xe4>
200088ec:	429d      	cmp	r5, r3
200088ee:	d201      	bcs.n	200088f4 <prvTimerTask+0x108>
200088f0:	42b3      	cmp	r3, r6
200088f2:	d9f1      	bls.n	200088d8 <prvTimerTask+0xec>
200088f4:	464b      	mov	r3, r9
200088f6:	1d21      	adds	r1, r4, #4
200088f8:	6818      	ldr	r0, [r3, #0]
200088fa:	f7fe fc9b 	bl	20007234 <vListInsert>
200088fe:	e7e3      	b.n	200088c8 <prvTimerTask+0xdc>
20008900:	465b      	mov	r3, fp
20008902:	2201      	movs	r2, #1
20008904:	5ce3      	ldrb	r3, [r4, r3]
20008906:	4313      	orrs	r3, r2
20008908:	465a      	mov	r2, fp
2000890a:	54a3      	strb	r3, [r4, r2]
2000890c:	9b07      	ldr	r3, [sp, #28]
2000890e:	6124      	str	r4, [r4, #16]
20008910:	195a      	adds	r2, r3, r5
20008912:	61a3      	str	r3, [r4, #24]
20008914:	6062      	str	r2, [r4, #4]
20008916:	42aa      	cmp	r2, r5
20008918:	d900      	bls.n	2000891c <prvTimerTask+0x130>
2000891a:	e0d4      	b.n	20008ac6 <prvTimerTask+0x2da>
2000891c:	2b00      	cmp	r3, #0
2000891e:	d09a      	beq.n	20008856 <prvTimerTask+0x6a>
20008920:	4653      	mov	r3, sl
20008922:	1d21      	adds	r1, r4, #4
20008924:	6818      	ldr	r0, [r3, #0]
20008926:	f7fe fc85 	bl	20007234 <vListInsert>
2000892a:	e794      	b.n	20008856 <prvTimerTask+0x6a>
2000892c:	465b      	mov	r3, fp
2000892e:	2201      	movs	r2, #1
20008930:	5ce3      	ldrb	r3, [r4, r3]
20008932:	4393      	bics	r3, r2
20008934:	465a      	mov	r2, fp
20008936:	54a3      	strb	r3, [r4, r2]
20008938:	e78d      	b.n	20008856 <prvTimerTask+0x6a>
2000893a:	465b      	mov	r3, fp
2000893c:	5ce3      	ldrb	r3, [r4, r3]
2000893e:	079a      	lsls	r2, r3, #30
20008940:	d400      	bmi.n	20008944 <prvTimerTask+0x158>
20008942:	e0dc      	b.n	20008afe <prvTimerTask+0x312>
20008944:	2201      	movs	r2, #1
20008946:	4393      	bics	r3, r2
20008948:	465a      	mov	r2, fp
2000894a:	54a3      	strb	r3, [r4, r2]
2000894c:	e783      	b.n	20008856 <prvTimerTask+0x6a>
2000894e:	9b07      	ldr	r3, [sp, #28]
20008950:	9909      	ldr	r1, [sp, #36]	; 0x24
20008952:	9808      	ldr	r0, [sp, #32]
20008954:	4798      	blx	r3
20008956:	9b06      	ldr	r3, [sp, #24]
20008958:	2b00      	cmp	r3, #0
2000895a:	da00      	bge.n	2000895e <prvTimerTask+0x172>
2000895c:	e77b      	b.n	20008856 <prvTimerTask+0x6a>
2000895e:	e784      	b.n	2000886a <prvTimerTask+0x7e>
20008960:	f7ff faf6 	bl	20007f50 <vTaskSuspendAll>
20008964:	f7ff fafc 	bl	20007f60 <xTaskGetTickCount>
20008968:	9b01      	ldr	r3, [sp, #4]
2000896a:	0002      	movs	r2, r0
2000896c:	681b      	ldr	r3, [r3, #0]
2000896e:	9002      	str	r0, [sp, #8]
20008970:	4283      	cmp	r3, r0
20008972:	d807      	bhi.n	20008984 <prvTimerTask+0x198>
20008974:	9b01      	ldr	r3, [sp, #4]
20008976:	601a      	str	r2, [r3, #0]
20008978:	4653      	mov	r3, sl
2000897a:	681b      	ldr	r3, [r3, #0]
2000897c:	681a      	ldr	r2, [r3, #0]
2000897e:	4253      	negs	r3, r2
20008980:	415a      	adcs	r2, r3
20008982:	e75e      	b.n	20008842 <prvTimerTask+0x56>
20008984:	464b      	mov	r3, r9
20008986:	681b      	ldr	r3, [r3, #0]
20008988:	681a      	ldr	r2, [r3, #0]
2000898a:	2a00      	cmp	r2, #0
2000898c:	d03b      	beq.n	20008a06 <prvTimerTask+0x21a>
2000898e:	2204      	movs	r2, #4
20008990:	9704      	str	r7, [sp, #16]
20008992:	4690      	mov	r8, r2
20008994:	e00b      	b.n	200089ae <prvTimerTask+0x1c2>
20008996:	2201      	movs	r2, #1
20008998:	4393      	bics	r3, r2
2000899a:	465a      	mov	r2, fp
2000899c:	54a3      	strb	r3, [r4, r2]
2000899e:	6a23      	ldr	r3, [r4, #32]
200089a0:	0020      	movs	r0, r4
200089a2:	4798      	blx	r3
200089a4:	464b      	mov	r3, r9
200089a6:	681b      	ldr	r3, [r3, #0]
200089a8:	681a      	ldr	r2, [r3, #0]
200089aa:	2a00      	cmp	r2, #0
200089ac:	d02a      	beq.n	20008a04 <prvTimerTask+0x218>
200089ae:	68db      	ldr	r3, [r3, #12]
200089b0:	68dc      	ldr	r4, [r3, #12]
200089b2:	681e      	ldr	r6, [r3, #0]
200089b4:	1d27      	adds	r7, r4, #4
200089b6:	0038      	movs	r0, r7
200089b8:	f7fe fc54 	bl	20007264 <uxListRemove>
200089bc:	465b      	mov	r3, fp
200089be:	4642      	mov	r2, r8
200089c0:	5ce3      	ldrb	r3, [r4, r3]
200089c2:	421a      	tst	r2, r3
200089c4:	d0e7      	beq.n	20008996 <prvTimerTask+0x1aa>
200089c6:	69a3      	ldr	r3, [r4, #24]
200089c8:	6124      	str	r4, [r4, #16]
200089ca:	18f5      	adds	r5, r6, r3
200089cc:	43f6      	mvns	r6, r6
200089ce:	6065      	str	r5, [r4, #4]
200089d0:	42b3      	cmp	r3, r6
200089d2:	d80a      	bhi.n	200089ea <prvTimerTask+0x1fe>
200089d4:	002e      	movs	r6, r5
200089d6:	43f6      	mvns	r6, r6
200089d8:	6a23      	ldr	r3, [r4, #32]
200089da:	0020      	movs	r0, r4
200089dc:	4798      	blx	r3
200089de:	69a3      	ldr	r3, [r4, #24]
200089e0:	6124      	str	r4, [r4, #16]
200089e2:	18ed      	adds	r5, r5, r3
200089e4:	6065      	str	r5, [r4, #4]
200089e6:	42b3      	cmp	r3, r6
200089e8:	d9f4      	bls.n	200089d4 <prvTimerTask+0x1e8>
200089ea:	4653      	mov	r3, sl
200089ec:	0039      	movs	r1, r7
200089ee:	6818      	ldr	r0, [r3, #0]
200089f0:	f7fe fc20 	bl	20007234 <vListInsert>
200089f4:	6a23      	ldr	r3, [r4, #32]
200089f6:	0020      	movs	r0, r4
200089f8:	4798      	blx	r3
200089fa:	464b      	mov	r3, r9
200089fc:	681b      	ldr	r3, [r3, #0]
200089fe:	681a      	ldr	r2, [r3, #0]
20008a00:	2a00      	cmp	r2, #0
20008a02:	d1d4      	bne.n	200089ae <prvTimerTask+0x1c2>
20008a04:	9f04      	ldr	r7, [sp, #16]
20008a06:	4652      	mov	r2, sl
20008a08:	4649      	mov	r1, r9
20008a0a:	6812      	ldr	r2, [r2, #0]
20008a0c:	600a      	str	r2, [r1, #0]
20008a0e:	4652      	mov	r2, sl
20008a10:	6013      	str	r3, [r2, #0]
20008a12:	9b01      	ldr	r3, [sp, #4]
20008a14:	9a02      	ldr	r2, [sp, #8]
20008a16:	601a      	str	r2, [r3, #0]
20008a18:	f7ff fb8e 	bl	20008138 <xTaskResumeAll>
20008a1c:	e71b      	b.n	20008856 <prvTimerTask+0x6a>
20008a1e:	464b      	mov	r3, r9
20008a20:	681b      	ldr	r3, [r3, #0]
20008a22:	681a      	ldr	r2, [r3, #0]
20008a24:	2a00      	cmp	r2, #0
20008a26:	d03f      	beq.n	20008aa8 <prvTimerTask+0x2bc>
20008a28:	2204      	movs	r2, #4
20008a2a:	9402      	str	r4, [sp, #8]
20008a2c:	4690      	mov	r8, r2
20008a2e:	9004      	str	r0, [sp, #16]
20008a30:	9705      	str	r7, [sp, #20]
20008a32:	e00b      	b.n	20008a4c <prvTimerTask+0x260>
20008a34:	2201      	movs	r2, #1
20008a36:	4393      	bics	r3, r2
20008a38:	465a      	mov	r2, fp
20008a3a:	54a3      	strb	r3, [r4, r2]
20008a3c:	6a23      	ldr	r3, [r4, #32]
20008a3e:	0020      	movs	r0, r4
20008a40:	4798      	blx	r3
20008a42:	464b      	mov	r3, r9
20008a44:	681b      	ldr	r3, [r3, #0]
20008a46:	681a      	ldr	r2, [r3, #0]
20008a48:	2a00      	cmp	r2, #0
20008a4a:	d02a      	beq.n	20008aa2 <prvTimerTask+0x2b6>
20008a4c:	68db      	ldr	r3, [r3, #12]
20008a4e:	68dc      	ldr	r4, [r3, #12]
20008a50:	681e      	ldr	r6, [r3, #0]
20008a52:	1d27      	adds	r7, r4, #4
20008a54:	0038      	movs	r0, r7
20008a56:	f7fe fc05 	bl	20007264 <uxListRemove>
20008a5a:	465b      	mov	r3, fp
20008a5c:	4642      	mov	r2, r8
20008a5e:	5ce3      	ldrb	r3, [r4, r3]
20008a60:	421a      	tst	r2, r3
20008a62:	d0e7      	beq.n	20008a34 <prvTimerTask+0x248>
20008a64:	69a3      	ldr	r3, [r4, #24]
20008a66:	6124      	str	r4, [r4, #16]
20008a68:	18f5      	adds	r5, r6, r3
20008a6a:	43f6      	mvns	r6, r6
20008a6c:	6065      	str	r5, [r4, #4]
20008a6e:	42b3      	cmp	r3, r6
20008a70:	d80a      	bhi.n	20008a88 <prvTimerTask+0x29c>
20008a72:	002e      	movs	r6, r5
20008a74:	43f6      	mvns	r6, r6
20008a76:	6a23      	ldr	r3, [r4, #32]
20008a78:	0020      	movs	r0, r4
20008a7a:	4798      	blx	r3
20008a7c:	69a3      	ldr	r3, [r4, #24]
20008a7e:	6124      	str	r4, [r4, #16]
20008a80:	18ed      	adds	r5, r5, r3
20008a82:	6065      	str	r5, [r4, #4]
20008a84:	42b3      	cmp	r3, r6
20008a86:	d9f4      	bls.n	20008a72 <prvTimerTask+0x286>
20008a88:	4653      	mov	r3, sl
20008a8a:	0039      	movs	r1, r7
20008a8c:	6818      	ldr	r0, [r3, #0]
20008a8e:	f7fe fbd1 	bl	20007234 <vListInsert>
20008a92:	6a23      	ldr	r3, [r4, #32]
20008a94:	0020      	movs	r0, r4
20008a96:	4798      	blx	r3
20008a98:	464b      	mov	r3, r9
20008a9a:	681b      	ldr	r3, [r3, #0]
20008a9c:	681a      	ldr	r2, [r3, #0]
20008a9e:	2a00      	cmp	r2, #0
20008aa0:	d1d4      	bne.n	20008a4c <prvTimerTask+0x260>
20008aa2:	9c02      	ldr	r4, [sp, #8]
20008aa4:	9d04      	ldr	r5, [sp, #16]
20008aa6:	9f05      	ldr	r7, [sp, #20]
20008aa8:	4652      	mov	r2, sl
20008aaa:	4649      	mov	r1, r9
20008aac:	6812      	ldr	r2, [r2, #0]
20008aae:	600a      	str	r2, [r1, #0]
20008ab0:	4652      	mov	r2, sl
20008ab2:	6013      	str	r3, [r2, #0]
20008ab4:	e6e8      	b.n	20008888 <prvTimerTask+0x9c>
20008ab6:	f7fe f8e1 	bl	20006c7c <vPortYield>
20008aba:	e6cc      	b.n	20008856 <prvTimerTask+0x6a>
20008abc:	42a9      	cmp	r1, r5
20008abe:	d902      	bls.n	20008ac6 <prvTimerTask+0x2da>
20008ac0:	4299      	cmp	r1, r3
20008ac2:	d800      	bhi.n	20008ac6 <prvTimerTask+0x2da>
20008ac4:	e6fa      	b.n	200088bc <prvTimerTask+0xd0>
20008ac6:	464b      	mov	r3, r9
20008ac8:	1d21      	adds	r1, r4, #4
20008aca:	6818      	ldr	r0, [r3, #0]
20008acc:	f7fe fbb2 	bl	20007234 <vListInsert>
20008ad0:	e6c1      	b.n	20008856 <prvTimerTask+0x6a>
20008ad2:	f7ff fb31 	bl	20008138 <xTaskResumeAll>
20008ad6:	464b      	mov	r3, r9
20008ad8:	681b      	ldr	r3, [r3, #0]
20008ada:	68db      	ldr	r3, [r3, #12]
20008adc:	68de      	ldr	r6, [r3, #12]
20008ade:	1d34      	adds	r4, r6, #4
20008ae0:	0020      	movs	r0, r4
20008ae2:	f7fe fbbf 	bl	20007264 <uxListRemove>
20008ae6:	465b      	mov	r3, fp
20008ae8:	5cf3      	ldrb	r3, [r6, r3]
20008aea:	075a      	lsls	r2, r3, #29
20008aec:	d411      	bmi.n	20008b12 <prvTimerTask+0x326>
20008aee:	2201      	movs	r2, #1
20008af0:	4393      	bics	r3, r2
20008af2:	465a      	mov	r2, fp
20008af4:	54b3      	strb	r3, [r6, r2]
20008af6:	0030      	movs	r0, r6
20008af8:	6a33      	ldr	r3, [r6, #32]
20008afa:	4798      	blx	r3
20008afc:	e6ab      	b.n	20008856 <prvTimerTask+0x6a>
20008afe:	0020      	movs	r0, r4
20008b00:	f000 f8fe 	bl	20008d00 <vPortFree>
20008b04:	e6a7      	b.n	20008856 <prvTimerTask+0x6a>
20008b06:	4653      	mov	r3, sl
20008b08:	1d21      	adds	r1, r4, #4
20008b0a:	6818      	ldr	r0, [r3, #0]
20008b0c:	f7fe fb92 	bl	20007234 <vListInsert>
20008b10:	e6da      	b.n	200088c8 <prvTimerTask+0xdc>
20008b12:	46a0      	mov	r8, r4
20008b14:	002b      	movs	r3, r5
20008b16:	9c02      	ldr	r4, [sp, #8]
20008b18:	e011      	b.n	20008b3e <prvTimerTask+0x352>
20008b1a:	46c0      	nop			; (mov r8, r8)
20008b1c:	2000a034 	.word	0x2000a034
20008b20:	20020528 	.word	0x20020528
20008b24:	20010180 	.word	0x20010180
20008b28:	2001018c 	.word	0x2001018c
20008b2c:	20020580 	.word	0x20020580
20008b30:	1ae3      	subs	r3, r4, r3
20008b32:	429a      	cmp	r2, r3
20008b34:	d814      	bhi.n	20008b60 <prvTimerTask+0x374>
20008b36:	6a33      	ldr	r3, [r6, #32]
20008b38:	0030      	movs	r0, r6
20008b3a:	4798      	blx	r3
20008b3c:	002b      	movs	r3, r5
20008b3e:	69b2      	ldr	r2, [r6, #24]
20008b40:	6136      	str	r6, [r6, #16]
20008b42:	189d      	adds	r5, r3, r2
20008b44:	6075      	str	r5, [r6, #4]
20008b46:	42a5      	cmp	r5, r4
20008b48:	d9f2      	bls.n	20008b30 <prvTimerTask+0x344>
20008b4a:	42a3      	cmp	r3, r4
20008b4c:	d901      	bls.n	20008b52 <prvTimerTask+0x366>
20008b4e:	42ab      	cmp	r3, r5
20008b50:	d9f1      	bls.n	20008b36 <prvTimerTask+0x34a>
20008b52:	4644      	mov	r4, r8
20008b54:	464b      	mov	r3, r9
20008b56:	0021      	movs	r1, r4
20008b58:	6818      	ldr	r0, [r3, #0]
20008b5a:	f7fe fb6b 	bl	20007234 <vListInsert>
20008b5e:	e7ca      	b.n	20008af6 <prvTimerTask+0x30a>
20008b60:	4644      	mov	r4, r8
20008b62:	4653      	mov	r3, sl
20008b64:	0021      	movs	r1, r4
20008b66:	6818      	ldr	r0, [r3, #0]
20008b68:	f7fe fb64 	bl	20007234 <vListInsert>
20008b6c:	e7c3      	b.n	20008af6 <prvTimerTask+0x30a>
20008b6e:	46c0      	nop			; (mov r8, r8)

20008b70 <xTimerCreateTimerTask>:
20008b70:	b570      	push	{r4, r5, r6, lr}
20008b72:	b082      	sub	sp, #8
20008b74:	f7fe f88e 	bl	20006c94 <vPortEnterCritical>
20008b78:	4c17      	ldr	r4, [pc, #92]	; (20008bd8 <xTimerCreateTimerTask+0x68>)
20008b7a:	6823      	ldr	r3, [r4, #0]
20008b7c:	2b00      	cmp	r3, #0
20008b7e:	d012      	beq.n	20008ba6 <xTimerCreateTimerTask+0x36>
20008b80:	f7fe f894 	bl	20006cac <vPortExitCritical>
20008b84:	6823      	ldr	r3, [r4, #0]
20008b86:	2000      	movs	r0, #0
20008b88:	2b00      	cmp	r3, #0
20008b8a:	d00a      	beq.n	20008ba2 <xTimerCreateTimerTask+0x32>
20008b8c:	4b13      	ldr	r3, [pc, #76]	; (20008bdc <xTimerCreateTimerTask+0x6c>)
20008b8e:	2280      	movs	r2, #128	; 0x80
20008b90:	9301      	str	r3, [sp, #4]
20008b92:	231f      	movs	r3, #31
20008b94:	4912      	ldr	r1, [pc, #72]	; (20008be0 <xTimerCreateTimerTask+0x70>)
20008b96:	9300      	str	r3, [sp, #0]
20008b98:	4812      	ldr	r0, [pc, #72]	; (20008be4 <xTimerCreateTimerTask+0x74>)
20008b9a:	2300      	movs	r3, #0
20008b9c:	00d2      	lsls	r2, r2, #3
20008b9e:	f7fe ff15 	bl	200079cc <xTaskCreate>
20008ba2:	b002      	add	sp, #8
20008ba4:	bd70      	pop	{r4, r5, r6, pc}
20008ba6:	4e10      	ldr	r6, [pc, #64]	; (20008be8 <xTimerCreateTimerTask+0x78>)
20008ba8:	0030      	movs	r0, r6
20008baa:	f7fe fb27 	bl	200071fc <vListInitialise>
20008bae:	4d0f      	ldr	r5, [pc, #60]	; (20008bec <xTimerCreateTimerTask+0x7c>)
20008bb0:	0028      	movs	r0, r5
20008bb2:	f7fe fb23 	bl	200071fc <vListInitialise>
20008bb6:	4b0e      	ldr	r3, [pc, #56]	; (20008bf0 <xTimerCreateTimerTask+0x80>)
20008bb8:	2200      	movs	r2, #0
20008bba:	601e      	str	r6, [r3, #0]
20008bbc:	4b0d      	ldr	r3, [pc, #52]	; (20008bf4 <xTimerCreateTimerTask+0x84>)
20008bbe:	2110      	movs	r1, #16
20008bc0:	200a      	movs	r0, #10
20008bc2:	601d      	str	r5, [r3, #0]
20008bc4:	f7fe fc66 	bl	20007494 <xQueueGenericCreate>
20008bc8:	6020      	str	r0, [r4, #0]
20008bca:	2800      	cmp	r0, #0
20008bcc:	d0d8      	beq.n	20008b80 <xTimerCreateTimerTask+0x10>
20008bce:	490a      	ldr	r1, [pc, #40]	; (20008bf8 <xTimerCreateTimerTask+0x88>)
20008bd0:	f7fe fddc 	bl	2000778c <vQueueAddToRegistry>
20008bd4:	e7d4      	b.n	20008b80 <xTimerCreateTimerTask+0x10>
20008bd6:	46c0      	nop			; (mov r8, r8)
20008bd8:	20020580 	.word	0x20020580
20008bdc:	20020584 	.word	0x20020584
20008be0:	2000a064 	.word	0x2000a064
20008be4:	200087ed 	.word	0x200087ed
20008be8:	200204d0 	.word	0x200204d0
20008bec:	200204e4 	.word	0x200204e4
20008bf0:	20010180 	.word	0x20010180
20008bf4:	2001018c 	.word	0x2001018c
20008bf8:	2000a05c 	.word	0x2000a05c

20008bfc <xTimerPendFunctionCallFromISR>:
20008bfc:	b510      	push	{r4, lr}
20008bfe:	0014      	movs	r4, r2
20008c00:	001a      	movs	r2, r3
20008c02:	2302      	movs	r3, #2
20008c04:	b084      	sub	sp, #16
20008c06:	425b      	negs	r3, r3
20008c08:	9300      	str	r3, [sp, #0]
20008c0a:	4b05      	ldr	r3, [pc, #20]	; (20008c20 <xTimerPendFunctionCallFromISR+0x24>)
20008c0c:	9001      	str	r0, [sp, #4]
20008c0e:	9102      	str	r1, [sp, #8]
20008c10:	6818      	ldr	r0, [r3, #0]
20008c12:	4669      	mov	r1, sp
20008c14:	2300      	movs	r3, #0
20008c16:	9403      	str	r4, [sp, #12]
20008c18:	f7fe fc8e 	bl	20007538 <xQueueGenericSendFromISR>
20008c1c:	b004      	add	sp, #16
20008c1e:	bd10      	pop	{r4, pc}
20008c20:	20020580 	.word	0x20020580

20008c24 <exception_set_exclusive_handler>:
20008c24:	b5f8      	push	{r3, r4, r5, r6, r7, lr}
20008c26:	000d      	movs	r5, r1
20008c28:	f3ef 8710 	mrs	r7, PRIMASK
20008c2c:	b672      	cpsid	i
20008c2e:	4b0c      	ldr	r3, [pc, #48]	; (20008c60 <exception_set_exclusive_handler+0x3c>)
20008c30:	3010      	adds	r0, #16
20008c32:	689b      	ldr	r3, [r3, #8]
20008c34:	0084      	lsls	r4, r0, #2
20008c36:	591e      	ldr	r6, [r3, r4]
20008c38:	42b1      	cmp	r1, r6
20008c3a:	d004      	beq.n	20008c46 <exception_set_exclusive_handler+0x22>
20008c3c:	4b09      	ldr	r3, [pc, #36]	; (20008c64 <exception_set_exclusive_handler+0x40>)
20008c3e:	429e      	cmp	r6, r3
20008c40:	d20a      	bcs.n	20008c58 <exception_set_exclusive_handler+0x34>
20008c42:	f7fa feb9 	bl	200039b8 <hard_assertion_failure>
20008c46:	4b06      	ldr	r3, [pc, #24]	; (20008c60 <exception_set_exclusive_handler+0x3c>)
20008c48:	689b      	ldr	r3, [r3, #8]
20008c4a:	511d      	str	r5, [r3, r4]
20008c4c:	f3bf 8f5f 	dmb	sy
20008c50:	f387 8810 	msr	PRIMASK, r7
20008c54:	0030      	movs	r0, r6
20008c56:	bdf8      	pop	{r3, r4, r5, r6, r7, pc}
20008c58:	4b03      	ldr	r3, [pc, #12]	; (20008c68 <exception_set_exclusive_handler+0x44>)
20008c5a:	429e      	cmp	r6, r3
20008c5c:	d3f3      	bcc.n	20008c46 <exception_set_exclusive_handler+0x22>
20008c5e:	e7f0      	b.n	20008c42 <exception_set_exclusive_handler+0x1e>
20008c60:	e000ed00 	.word	0xe000ed00
20008c64:	100001c0 	.word	0x100001c0
20008c68:	100001cc 	.word	0x100001cc

20008c6c <pvPortMalloc>:
20008c6c:	b5f8      	push	{r3, r4, r5, r6, r7, lr}
20008c6e:	2607      	movs	r6, #7
20008c70:	0004      	movs	r4, r0
20008c72:	4206      	tst	r6, r0
20008c74:	d027      	beq.n	20008cc6 <pvPortMalloc+0x5a>
20008c76:	0007      	movs	r7, r0
20008c78:	43b7      	bics	r7, r6
20008c7a:	3708      	adds	r7, #8
20008c7c:	4287      	cmp	r7, r0
20008c7e:	d916      	bls.n	20008cae <pvPortMalloc+0x42>
20008c80:	f7ff f966 	bl	20007f50 <vTaskSuspendAll>
20008c84:	4b1a      	ldr	r3, [pc, #104]	; (20008cf0 <pvPortMalloc+0x84>)
20008c86:	003c      	movs	r4, r7
20008c88:	681d      	ldr	r5, [r3, #0]
20008c8a:	2d00      	cmp	r5, #0
20008c8c:	d024      	beq.n	20008cd8 <pvPortMalloc+0x6c>
20008c8e:	4a19      	ldr	r2, [pc, #100]	; (20008cf4 <pvPortMalloc+0x88>)
20008c90:	4919      	ldr	r1, [pc, #100]	; (20008cf8 <pvPortMalloc+0x8c>)
20008c92:	6813      	ldr	r3, [r2, #0]
20008c94:	191c      	adds	r4, r3, r4
20008c96:	428c      	cmp	r4, r1
20008c98:	d80f      	bhi.n	20008cba <pvPortMalloc+0x4e>
20008c9a:	42a3      	cmp	r3, r4
20008c9c:	d20d      	bcs.n	20008cba <pvPortMalloc+0x4e>
20008c9e:	18ed      	adds	r5, r5, r3
20008ca0:	6014      	str	r4, [r2, #0]
20008ca2:	f7ff fa49 	bl	20008138 <xTaskResumeAll>
20008ca6:	2d00      	cmp	r5, #0
20008ca8:	d009      	beq.n	20008cbe <pvPortMalloc+0x52>
20008caa:	0028      	movs	r0, r5
20008cac:	bdf8      	pop	{r3, r4, r5, r6, r7, pc}
20008cae:	f7ff f94f 	bl	20007f50 <vTaskSuspendAll>
20008cb2:	4b0f      	ldr	r3, [pc, #60]	; (20008cf0 <pvPortMalloc+0x84>)
20008cb4:	681a      	ldr	r2, [r3, #0]
20008cb6:	2a00      	cmp	r2, #0
20008cb8:	d012      	beq.n	20008ce0 <pvPortMalloc+0x74>
20008cba:	f7ff fa3d 	bl	20008138 <xTaskResumeAll>
20008cbe:	f7f7 fb2d 	bl	2000031c <vApplicationMallocFailedHook>
20008cc2:	2500      	movs	r5, #0
20008cc4:	e7f1      	b.n	20008caa <pvPortMalloc+0x3e>
20008cc6:	f7ff f943 	bl	20007f50 <vTaskSuspendAll>
20008cca:	4b09      	ldr	r3, [pc, #36]	; (20008cf0 <pvPortMalloc+0x84>)
20008ccc:	681d      	ldr	r5, [r3, #0]
20008cce:	2d00      	cmp	r5, #0
20008cd0:	d00a      	beq.n	20008ce8 <pvPortMalloc+0x7c>
20008cd2:	2c00      	cmp	r4, #0
20008cd4:	d1db      	bne.n	20008c8e <pvPortMalloc+0x22>
20008cd6:	e7f0      	b.n	20008cba <pvPortMalloc+0x4e>
20008cd8:	4d08      	ldr	r5, [pc, #32]	; (20008cfc <pvPortMalloc+0x90>)
20008cda:	43b5      	bics	r5, r6
20008cdc:	601d      	str	r5, [r3, #0]
20008cde:	e7d6      	b.n	20008c8e <pvPortMalloc+0x22>
20008ce0:	4a06      	ldr	r2, [pc, #24]	; (20008cfc <pvPortMalloc+0x90>)
20008ce2:	43b2      	bics	r2, r6
20008ce4:	601a      	str	r2, [r3, #0]
20008ce6:	e7e8      	b.n	20008cba <pvPortMalloc+0x4e>
20008ce8:	4d04      	ldr	r5, [pc, #16]	; (20008cfc <pvPortMalloc+0x90>)
20008cea:	43b5      	bics	r5, r6
20008cec:	601d      	str	r5, [r3, #0]
20008cee:	e7f0      	b.n	20008cd2 <pvPortMalloc+0x66>
20008cf0:	20010174 	.word	0x20010174
20008cf4:	2002052c 	.word	0x2002052c
20008cf8:	0000fff7 	.word	0x0000fff7
20008cfc:	2001049f 	.word	0x2001049f

20008d00 <vPortFree>:
20008d00:	4770      	bx	lr
20008d02:	46c0      	nop			; (mov r8, r8)

20008d04 <__aeabi_idiv0>:
20008d04:	4770      	bx	lr
20008d06:	46c0      	nop			; (mov r8, r8)

20008d08 <__paritysi2>:
20008d08:	220f      	movs	r2, #15
20008d0a:	0c03      	lsrs	r3, r0, #16
20008d0c:	4043      	eors	r3, r0
20008d0e:	0a18      	lsrs	r0, r3, #8
20008d10:	4058      	eors	r0, r3
20008d12:	0903      	lsrs	r3, r0, #4
20008d14:	4043      	eors	r3, r0
20008d16:	401a      	ands	r2, r3
20008d18:	4b02      	ldr	r3, [pc, #8]	; (20008d24 <__paritysi2+0x1c>)
20008d1a:	2001      	movs	r0, #1
20008d1c:	4113      	asrs	r3, r2
20008d1e:	4018      	ands	r0, r3
20008d20:	4770      	bx	lr
20008d22:	46c0      	nop			; (mov r8, r8)
20008d24:	00006996 	.word	0x00006996

20008d28 <strlen>:
20008d28:	b510      	push	{r4, lr}
20008d2a:	0783      	lsls	r3, r0, #30
20008d2c:	d00a      	beq.n	20008d44 <strlen+0x1c>
20008d2e:	0003      	movs	r3, r0
20008d30:	2103      	movs	r1, #3
20008d32:	e002      	b.n	20008d3a <strlen+0x12>
20008d34:	3301      	adds	r3, #1
20008d36:	420b      	tst	r3, r1
20008d38:	d005      	beq.n	20008d46 <strlen+0x1e>
20008d3a:	781a      	ldrb	r2, [r3, #0]
20008d3c:	2a00      	cmp	r2, #0
20008d3e:	d1f9      	bne.n	20008d34 <strlen+0xc>
20008d40:	1a18      	subs	r0, r3, r0
20008d42:	bd10      	pop	{r4, pc}
20008d44:	0003      	movs	r3, r0
20008d46:	6819      	ldr	r1, [r3, #0]
20008d48:	4a0c      	ldr	r2, [pc, #48]	; (20008d7c <strlen+0x54>)
20008d4a:	4c0d      	ldr	r4, [pc, #52]	; (20008d80 <strlen+0x58>)
20008d4c:	188a      	adds	r2, r1, r2
20008d4e:	438a      	bics	r2, r1
20008d50:	4222      	tst	r2, r4
20008d52:	d10f      	bne.n	20008d74 <strlen+0x4c>
20008d54:	6859      	ldr	r1, [r3, #4]
20008d56:	4a09      	ldr	r2, [pc, #36]	; (20008d7c <strlen+0x54>)
20008d58:	3304      	adds	r3, #4
20008d5a:	188a      	adds	r2, r1, r2
20008d5c:	438a      	bics	r2, r1
20008d5e:	4222      	tst	r2, r4
20008d60:	d108      	bne.n	20008d74 <strlen+0x4c>
20008d62:	6859      	ldr	r1, [r3, #4]
20008d64:	4a05      	ldr	r2, [pc, #20]	; (20008d7c <strlen+0x54>)
20008d66:	3304      	adds	r3, #4
20008d68:	188a      	adds	r2, r1, r2
20008d6a:	438a      	bics	r2, r1
20008d6c:	4222      	tst	r2, r4
20008d6e:	d0f1      	beq.n	20008d54 <strlen+0x2c>
20008d70:	e000      	b.n	20008d74 <strlen+0x4c>
20008d72:	3301      	adds	r3, #1
20008d74:	781a      	ldrb	r2, [r3, #0]
20008d76:	2a00      	cmp	r2, #0
20008d78:	d1fb      	bne.n	20008d72 <strlen+0x4a>
20008d7a:	e7e1      	b.n	20008d40 <strlen+0x18>
20008d7c:	fefefeff 	.word	0xfefefeff
20008d80:	80808080 	.word	0x80808080

20008d84 <_fini>:
20008d84:	b5f8      	push	{r3, r4, r5, r6, r7, lr}
20008d86:	46c0      	nop			; (mov r8, r8)

Disassembly of section .data:

20008d90 <mutex_try_enter_block_until>:
20008d90:	b5f0      	push	{r4, r5, r6, r7, lr}
20008d92:	46c6      	mov	lr, r8
20008d94:	0016      	movs	r6, r2
20008d96:	b500      	push	{lr}
20008d98:	0004      	movs	r4, r0
20008d9a:	001f      	movs	r7, r3
20008d9c:	6802      	ldr	r2, [r0, #0]
20008d9e:	f3ef 8810 	mrs	r8, PRIMASK
20008da2:	b672      	cpsid	i
20008da4:	6813      	ldr	r3, [r2, #0]
20008da6:	2b00      	cmp	r3, #0
20008da8:	d0fc      	beq.n	20008da4 <mutex_try_enter_block_until+0x14>
20008daa:	f3bf 8f5f 	dmb	sy
20008dae:	6865      	ldr	r5, [r4, #4]
20008db0:	1c6b      	adds	r3, r5, #1
20008db2:	d00e      	beq.n	20008dd2 <mutex_try_enter_block_until+0x42>
20008db4:	6823      	ldr	r3, [r4, #0]
20008db6:	f3bf 8f5f 	dmb	sy
20008dba:	2200      	movs	r2, #0
20008dbc:	601a      	str	r2, [r3, #0]
20008dbe:	f388 8810 	msr	PRIMASK, r8
20008dc2:	f7fe f811 	bl	20006de8 <ulPortLockGetCurrentOwnerId>
20008dc6:	42a8      	cmp	r0, r5
20008dc8:	d10f      	bne.n	20008dea <mutex_try_enter_block_until+0x5a>
20008dca:	2000      	movs	r0, #0
20008dcc:	bc80      	pop	{r7}
20008dce:	46b8      	mov	r8, r7
20008dd0:	bdf0      	pop	{r4, r5, r6, r7, pc}
20008dd2:	f7fe f809 	bl	20006de8 <ulPortLockGetCurrentOwnerId>
20008dd6:	6823      	ldr	r3, [r4, #0]
20008dd8:	6060      	str	r0, [r4, #4]
20008dda:	f3bf 8f5f 	dmb	sy
20008dde:	2200      	movs	r2, #0
20008de0:	601a      	str	r2, [r3, #0]
20008de2:	f388 8810 	msr	PRIMASK, r8
20008de6:	2001      	movs	r0, #1
20008de8:	e7f0      	b.n	20008dcc <mutex_try_enter_block_until+0x3c>
20008dea:	f7fd fffd 	bl	20006de8 <ulPortLockGetCurrentOwnerId>
20008dee:	4680      	mov	r8, r0
20008df0:	e006      	b.n	20008e00 <mutex_try_enter_block_until+0x70>
20008df2:	0032      	movs	r2, r6
20008df4:	003b      	movs	r3, r7
20008df6:	0020      	movs	r0, r4
20008df8:	f7fe f870 	bl	20006edc <xPortLockInternalSpinUnlockWithBestEffortWaitOrTimeout>
20008dfc:	2800      	cmp	r0, #0
20008dfe:	d1e4      	bne.n	20008dca <mutex_try_enter_block_until+0x3a>
20008e00:	6822      	ldr	r2, [r4, #0]
20008e02:	f3ef 8110 	mrs	r1, PRIMASK
20008e06:	b672      	cpsid	i
20008e08:	6813      	ldr	r3, [r2, #0]
20008e0a:	2b00      	cmp	r3, #0
20008e0c:	d0fc      	beq.n	20008e08 <mutex_try_enter_block_until+0x78>
20008e0e:	f3bf 8f5f 	dmb	sy
20008e12:	6865      	ldr	r5, [r4, #4]
20008e14:	3501      	adds	r5, #1
20008e16:	d1ec      	bne.n	20008df2 <mutex_try_enter_block_until+0x62>
20008e18:	4643      	mov	r3, r8
20008e1a:	6063      	str	r3, [r4, #4]
20008e1c:	6823      	ldr	r3, [r4, #0]
20008e1e:	f3bf 8f5f 	dmb	sy
20008e22:	2200      	movs	r2, #0
20008e24:	601a      	str	r2, [r3, #0]
20008e26:	f381 8810 	msr	PRIMASK, r1
20008e2a:	2001      	movs	r0, #1
20008e2c:	e7ce      	b.n	20008dcc <mutex_try_enter_block_until+0x3c>
20008e2e:	46c0      	nop			; (mov r8, r8)

20008e30 <mutex_enter_timeout_ms>:
20008e30:	b5f8      	push	{r3, r4, r5, r6, r7, lr}
20008e32:	000d      	movs	r5, r1
20008e34:	0004      	movs	r4, r0
20008e36:	f7f9 fb4f 	bl	200024d8 <time_us_64>
20008e3a:	22fa      	movs	r2, #250	; 0xfa
20008e3c:	0006      	movs	r6, r0
20008e3e:	000f      	movs	r7, r1
20008e40:	2300      	movs	r3, #0
20008e42:	0028      	movs	r0, r5
20008e44:	2100      	movs	r1, #0
20008e46:	0092      	lsls	r2, r2, #2
20008e48:	f7fb f8b6 	bl	20003fb8 <__wrap___aeabi_lmul>
20008e4c:	2380      	movs	r3, #128	; 0x80
20008e4e:	1836      	adds	r6, r6, r0
20008e50:	414f      	adcs	r7, r1
20008e52:	061b      	lsls	r3, r3, #24
20008e54:	429f      	cmp	r7, r3
20008e56:	d302      	bcc.n	20008e5e <mutex_enter_timeout_ms+0x2e>
20008e58:	2601      	movs	r6, #1
20008e5a:	4f12      	ldr	r7, [pc, #72]	; (20008ea4 <mutex_enter_timeout_ms+0x74>)
20008e5c:	4276      	negs	r6, r6
20008e5e:	f7fd ffc3 	bl	20006de8 <ulPortLockGetCurrentOwnerId>
20008e62:	0005      	movs	r5, r0
20008e64:	e006      	b.n	20008e74 <mutex_enter_timeout_ms+0x44>
20008e66:	0032      	movs	r2, r6
20008e68:	003b      	movs	r3, r7
20008e6a:	0020      	movs	r0, r4
20008e6c:	f7fe f836 	bl	20006edc <xPortLockInternalSpinUnlockWithBestEffortWaitOrTimeout>
20008e70:	2800      	cmp	r0, #0
20008e72:	d115      	bne.n	20008ea0 <mutex_enter_timeout_ms+0x70>
20008e74:	6822      	ldr	r2, [r4, #0]
20008e76:	f3ef 8110 	mrs	r1, PRIMASK
20008e7a:	b672      	cpsid	i
20008e7c:	6813      	ldr	r3, [r2, #0]
20008e7e:	2b00      	cmp	r3, #0
20008e80:	d0fc      	beq.n	20008e7c <mutex_enter_timeout_ms+0x4c>
20008e82:	f3bf 8f5f 	dmb	sy
20008e86:	6863      	ldr	r3, [r4, #4]
20008e88:	3301      	adds	r3, #1
20008e8a:	d1ec      	bne.n	20008e66 <mutex_enter_timeout_ms+0x36>
20008e8c:	6065      	str	r5, [r4, #4]
20008e8e:	6823      	ldr	r3, [r4, #0]
20008e90:	f3bf 8f5f 	dmb	sy
20008e94:	2200      	movs	r2, #0
20008e96:	601a      	str	r2, [r3, #0]
20008e98:	f381 8810 	msr	PRIMASK, r1
20008e9c:	2001      	movs	r0, #1
20008e9e:	bdf8      	pop	{r3, r4, r5, r6, r7, pc}
20008ea0:	2000      	movs	r0, #0
20008ea2:	e7fc      	b.n	20008e9e <mutex_enter_timeout_ms+0x6e>
20008ea4:	7fffffff 	.word	0x7fffffff

20008ea8 <mutex_exit>:
20008ea8:	b510      	push	{r4, lr}
20008eaa:	6802      	ldr	r2, [r0, #0]
20008eac:	f3ef 8110 	mrs	r1, PRIMASK
20008eb0:	b672      	cpsid	i
20008eb2:	6813      	ldr	r3, [r2, #0]
20008eb4:	2b00      	cmp	r3, #0
20008eb6:	d0fc      	beq.n	20008eb2 <mutex_exit+0xa>
20008eb8:	f3bf 8f5f 	dmb	sy
20008ebc:	2301      	movs	r3, #1
20008ebe:	425b      	negs	r3, r3
20008ec0:	6043      	str	r3, [r0, #4]
20008ec2:	f7fd ffa7 	bl	20006e14 <vPortLockInternalSpinUnlockWithNotify>
20008ec6:	bd10      	pop	{r4, pc}

20008ec8 <flash_init_boot2_copyout>:
20008ec8:	b510      	push	{r4, lr}
20008eca:	4c08      	ldr	r4, [pc, #32]	; (20008eec <flash_init_boot2_copyout+0x24>)
20008ecc:	7823      	ldrb	r3, [r4, #0]
20008ece:	2b00      	cmp	r3, #0
20008ed0:	d10a      	bne.n	20008ee8 <flash_init_boot2_copyout+0x20>
20008ed2:	2380      	movs	r3, #128	; 0x80
20008ed4:	4806      	ldr	r0, [pc, #24]	; (20008ef0 <flash_init_boot2_copyout+0x28>)
20008ed6:	4907      	ldr	r1, [pc, #28]	; (20008ef4 <flash_init_boot2_copyout+0x2c>)
20008ed8:	055b      	lsls	r3, r3, #21
20008eda:	681a      	ldr	r2, [r3, #0]
20008edc:	50c2      	str	r2, [r0, r3]
20008ede:	3304      	adds	r3, #4
20008ee0:	428b      	cmp	r3, r1
20008ee2:	d1fa      	bne.n	20008eda <flash_init_boot2_copyout+0x12>
20008ee4:	2301      	movs	r3, #1
20008ee6:	7023      	strb	r3, [r4, #0]
20008ee8:	bd10      	pop	{r4, pc}
20008eea:	46c0      	nop			; (mov r8, r8)
20008eec:	20020591 	.word	0x20020591
20008ef0:	1000fbe0 	.word	0x1000fbe0
20008ef4:	10000100 	.word	0x10000100

20008ef8 <flash_enable_xip_via_boot2>:
20008ef8:	b510      	push	{r4, lr}
20008efa:	4b01      	ldr	r3, [pc, #4]	; (20008f00 <flash_enable_xip_via_boot2+0x8>)
20008efc:	4798      	blx	r3
20008efe:	bd10      	pop	{r4, pc}
20008f00:	2000fbe1 	.word	0x2000fbe1

20008f04 <flash_cs_force.constprop.0>:
20008f04:	4b03      	ldr	r3, [pc, #12]	; (20008f14 <flash_cs_force.constprop.0+0x10>)
20008f06:	681a      	ldr	r2, [r3, #0]
20008f08:	23c0      	movs	r3, #192	; 0xc0
20008f0a:	009b      	lsls	r3, r3, #2
20008f0c:	4393      	bics	r3, r2
20008f0e:	4a02      	ldr	r2, [pc, #8]	; (20008f18 <flash_cs_force.constprop.0+0x14>)
20008f10:	6013      	str	r3, [r2, #0]
20008f12:	4770      	bx	lr
20008f14:	4001800c 	.word	0x4001800c
20008f18:	4001900c 	.word	0x4001900c

20008f1c <flash_cs_force.constprop.1>:
20008f1c:	4b05      	ldr	r3, [pc, #20]	; (20008f34 <flash_cs_force.constprop.1+0x18>)
20008f1e:	681a      	ldr	r2, [r3, #0]
20008f20:	2380      	movs	r3, #128	; 0x80
20008f22:	009b      	lsls	r3, r3, #2
20008f24:	4053      	eors	r3, r2
20008f26:	22c0      	movs	r2, #192	; 0xc0
20008f28:	0092      	lsls	r2, r2, #2
20008f2a:	4013      	ands	r3, r2
20008f2c:	4a02      	ldr	r2, [pc, #8]	; (20008f38 <flash_cs_force.constprop.1+0x1c>)
20008f2e:	6013      	str	r3, [r2, #0]
20008f30:	4770      	bx	lr
20008f32:	46c0      	nop			; (mov r8, r8)
20008f34:	4001800c 	.word	0x4001800c
20008f38:	4001900c 	.word	0x4001900c

20008f3c <flash_do_cmd>:
20008f3c:	2314      	movs	r3, #20
20008f3e:	b5f0      	push	{r4, r5, r6, r7, lr}
20008f40:	46d6      	mov	lr, sl
20008f42:	464f      	mov	r7, r9
20008f44:	4646      	mov	r6, r8
20008f46:	469a      	mov	sl, r3
20008f48:	4681      	mov	r9, r0
20008f4a:	8818      	ldrh	r0, [r3, #0]
20008f4c:	3304      	adds	r3, #4
20008f4e:	b5c0      	push	{r6, r7, lr}
20008f50:	4698      	mov	r8, r3
20008f52:	000e      	movs	r6, r1
20008f54:	881b      	ldrh	r3, [r3, #0]
20008f56:	4926      	ldr	r1, [pc, #152]	; (20008ff0 <flash_do_cmd+0xb4>)
20008f58:	0014      	movs	r4, r2
20008f5a:	4798      	blx	r3
20008f5c:	4653      	mov	r3, sl
20008f5e:	0007      	movs	r7, r0
20008f60:	8818      	ldrh	r0, [r3, #0]
20008f62:	4643      	mov	r3, r8
20008f64:	4923      	ldr	r1, [pc, #140]	; (20008ff4 <flash_do_cmd+0xb8>)
20008f66:	881b      	ldrh	r3, [r3, #0]
20008f68:	4798      	blx	r3
20008f6a:	4653      	mov	r3, sl
20008f6c:	0005      	movs	r5, r0
20008f6e:	8818      	ldrh	r0, [r3, #0]
20008f70:	4643      	mov	r3, r8
20008f72:	4921      	ldr	r1, [pc, #132]	; (20008ff8 <flash_do_cmd+0xbc>)
20008f74:	881b      	ldrh	r3, [r3, #0]
20008f76:	4798      	blx	r3
20008f78:	4680      	mov	r8, r0
20008f7a:	f7ff ffa5 	bl	20008ec8 <flash_init_boot2_copyout>
20008f7e:	47b8      	blx	r7
20008f80:	47a8      	blx	r5
20008f82:	f7ff ffcb 	bl	20008f1c <flash_cs_force.constprop.1>
20008f86:	1e22      	subs	r2, r4, #0
20008f88:	d020      	beq.n	20008fcc <flash_do_cmd+0x90>
20008f8a:	21c0      	movs	r1, #192	; 0xc0
20008f8c:	2708      	movs	r7, #8
20008f8e:	2002      	movs	r0, #2
20008f90:	0549      	lsls	r1, r1, #21
20008f92:	e011      	b.n	20008fb8 <flash_do_cmd+0x7c>
20008f94:	2c00      	cmp	r4, #0
20008f96:	d014      	beq.n	20008fc2 <flash_do_cmd+0x86>
20008f98:	1b13      	subs	r3, r2, r4
20008f9a:	2b0d      	cmp	r3, #13
20008f9c:	d920      	bls.n	20008fe0 <flash_do_cmd+0xa4>
20008f9e:	2d00      	cmp	r5, #0
20008fa0:	d00a      	beq.n	20008fb8 <flash_do_cmd+0x7c>
20008fa2:	0023      	movs	r3, r4
20008fa4:	2a00      	cmp	r2, #0
20008fa6:	d005      	beq.n	20008fb4 <flash_do_cmd+0x78>
20008fa8:	6e0b      	ldr	r3, [r1, #96]	; 0x60
20008faa:	3a01      	subs	r2, #1
20008fac:	7033      	strb	r3, [r6, #0]
20008fae:	0013      	movs	r3, r2
20008fb0:	3601      	adds	r6, #1
20008fb2:	4323      	orrs	r3, r4
20008fb4:	2b00      	cmp	r3, #0
20008fb6:	d009      	beq.n	20008fcc <flash_do_cmd+0x90>
20008fb8:	003d      	movs	r5, r7
20008fba:	6a8b      	ldr	r3, [r1, #40]	; 0x28
20008fbc:	401d      	ands	r5, r3
20008fbe:	4218      	tst	r0, r3
20008fc0:	d1e8      	bne.n	20008f94 <flash_do_cmd+0x58>
20008fc2:	2d00      	cmp	r5, #0
20008fc4:	d1ed      	bne.n	20008fa2 <flash_do_cmd+0x66>
20008fc6:	0023      	movs	r3, r4
20008fc8:	4313      	orrs	r3, r2
20008fca:	d1f5      	bne.n	20008fb8 <flash_do_cmd+0x7c>
20008fcc:	f7ff ff9a 	bl	20008f04 <flash_cs_force.constprop.0>
20008fd0:	47c0      	blx	r8
20008fd2:	f7ff ff91 	bl	20008ef8 <flash_enable_xip_via_boot2>
20008fd6:	bce0      	pop	{r5, r6, r7}
20008fd8:	46ba      	mov	sl, r7
20008fda:	46b1      	mov	r9, r6
20008fdc:	46a8      	mov	r8, r5
20008fde:	bdf0      	pop	{r4, r5, r6, r7, pc}
20008fe0:	464b      	mov	r3, r9
20008fe2:	781b      	ldrb	r3, [r3, #0]
20008fe4:	3c01      	subs	r4, #1
20008fe6:	660b      	str	r3, [r1, #96]	; 0x60
20008fe8:	2301      	movs	r3, #1
20008fea:	469c      	mov	ip, r3
20008fec:	44e1      	add	r9, ip
20008fee:	e7e8      	b.n	20008fc2 <flash_do_cmd+0x86>
20008ff0:	00004649 	.word	0x00004649
20008ff4:	00005845 	.word	0x00005845
20008ff8:	00004346 	.word	0x00004346

20008ffc <reset_non_control_endpoints>:
20008ffc:	2200      	movs	r2, #0
20008ffe:	4b15      	ldr	r3, [pc, #84]	; (20009054 <reset_non_control_endpoints+0x58>)
20009000:	b510      	push	{r4, lr}
20009002:	609a      	str	r2, [r3, #8]
20009004:	60da      	str	r2, [r3, #12]
20009006:	611a      	str	r2, [r3, #16]
20009008:	615a      	str	r2, [r3, #20]
2000900a:	619a      	str	r2, [r3, #24]
2000900c:	61da      	str	r2, [r3, #28]
2000900e:	621a      	str	r2, [r3, #32]
20009010:	625a      	str	r2, [r3, #36]	; 0x24
20009012:	629a      	str	r2, [r3, #40]	; 0x28
20009014:	62da      	str	r2, [r3, #44]	; 0x2c
20009016:	631a      	str	r2, [r3, #48]	; 0x30
20009018:	635a      	str	r2, [r3, #52]	; 0x34
2000901a:	639a      	str	r2, [r3, #56]	; 0x38
2000901c:	63da      	str	r2, [r3, #60]	; 0x3c
2000901e:	641a      	str	r2, [r3, #64]	; 0x40
20009020:	645a      	str	r2, [r3, #68]	; 0x44
20009022:	649a      	str	r2, [r3, #72]	; 0x48
20009024:	64da      	str	r2, [r3, #76]	; 0x4c
20009026:	651a      	str	r2, [r3, #80]	; 0x50
20009028:	655a      	str	r2, [r3, #84]	; 0x54
2000902a:	659a      	str	r2, [r3, #88]	; 0x58
2000902c:	65da      	str	r2, [r3, #92]	; 0x5c
2000902e:	661a      	str	r2, [r3, #96]	; 0x60
20009030:	665a      	str	r2, [r3, #100]	; 0x64
20009032:	669a      	str	r2, [r3, #104]	; 0x68
20009034:	66da      	str	r2, [r3, #108]	; 0x6c
20009036:	671a      	str	r2, [r3, #112]	; 0x70
20009038:	675a      	str	r2, [r3, #116]	; 0x74
2000903a:	679a      	str	r2, [r3, #120]	; 0x78
2000903c:	67da      	str	r2, [r3, #124]	; 0x7c
2000903e:	32f0      	adds	r2, #240	; 0xf0
20009040:	0092      	lsls	r2, r2, #2
20009042:	2100      	movs	r1, #0
20009044:	4804      	ldr	r0, [pc, #16]	; (20009058 <reset_non_control_endpoints+0x5c>)
20009046:	f7fb f821 	bl	2000408c <__wrap_memset>
2000904a:	4b04      	ldr	r3, [pc, #16]	; (2000905c <reset_non_control_endpoints+0x60>)
2000904c:	4a04      	ldr	r2, [pc, #16]	; (20009060 <reset_non_control_endpoints+0x64>)
2000904e:	601a      	str	r2, [r3, #0]
20009050:	bd10      	pop	{r4, pc}
20009052:	46c0      	nop			; (mov r8, r8)
20009054:	50100000 	.word	0x50100000
20009058:	2000fd8c 	.word	0x2000fd8c
2000905c:	20010154 	.word	0x20010154
20009060:	50100180 	.word	0x50100180

20009064 <hw_handle_buff_status>:
20009064:	b5f0      	push	{r4, r5, r6, r7, lr}
20009066:	4657      	mov	r7, sl
20009068:	46de      	mov	lr, fp
2000906a:	464e      	mov	r6, r9
2000906c:	4645      	mov	r5, r8
2000906e:	b5e0      	push	{r5, r6, r7, lr}
20009070:	4b24      	ldr	r3, [pc, #144]	; (20009104 <hw_handle_buff_status+0xa0>)
20009072:	b087      	sub	sp, #28
20009074:	6d9f      	ldr	r7, [r3, #88]	; 0x58
20009076:	2f00      	cmp	r7, #0
20009078:	d023      	beq.n	200090c2 <hw_handle_buff_status+0x5e>
2000907a:	4b23      	ldr	r3, [pc, #140]	; (20009108 <hw_handle_buff_status+0xa4>)
2000907c:	2400      	movs	r4, #0
2000907e:	4699      	mov	r9, r3
20009080:	2301      	movs	r3, #1
20009082:	4698      	mov	r8, r3
20009084:	4b21      	ldr	r3, [pc, #132]	; (2000910c <hw_handle_buff_status+0xa8>)
20009086:	2601      	movs	r6, #1
20009088:	469a      	mov	sl, r3
2000908a:	e004      	b.n	20009096 <hw_handle_buff_status+0x32>
2000908c:	3401      	adds	r4, #1
2000908e:	0076      	lsls	r6, r6, #1
20009090:	b2e4      	uxtb	r4, r4
20009092:	2c20      	cmp	r4, #32
20009094:	d015      	beq.n	200090c2 <hw_handle_buff_status+0x5e>
20009096:	423e      	tst	r6, r7
20009098:	d0f8      	beq.n	2000908c <hw_handle_buff_status+0x28>
2000909a:	464b      	mov	r3, r9
2000909c:	659e      	str	r6, [r3, #88]	; 0x58
2000909e:	4643      	mov	r3, r8
200090a0:	0865      	lsrs	r5, r4, #1
200090a2:	006d      	lsls	r5, r5, #1
200090a4:	43a3      	bics	r3, r4
200090a6:	18ed      	adds	r5, r5, r3
200090a8:	016d      	lsls	r5, r5, #5
200090aa:	4455      	add	r5, sl
200090ac:	0028      	movs	r0, r5
200090ae:	f000 fbc3 	bl	20009838 <hw_endpoint_xfer_continue>
200090b2:	2800      	cmp	r0, #0
200090b4:	d10c      	bne.n	200090d0 <hw_handle_buff_status+0x6c>
200090b6:	3401      	adds	r4, #1
200090b8:	43b7      	bics	r7, r6
200090ba:	b2e4      	uxtb	r4, r4
200090bc:	0076      	lsls	r6, r6, #1
200090be:	2f00      	cmp	r7, #0
200090c0:	d1e7      	bne.n	20009092 <hw_handle_buff_status+0x2e>
200090c2:	b007      	add	sp, #28
200090c4:	bcf0      	pop	{r4, r5, r6, r7}
200090c6:	46bb      	mov	fp, r7
200090c8:	46b2      	mov	sl, r6
200090ca:	46a9      	mov	r9, r5
200090cc:	46a0      	mov	r8, r4
200090ce:	bdf0      	pop	{r4, r5, r6, r7, pc}
200090d0:	78ab      	ldrb	r3, [r5, #2]
200090d2:	a802      	add	r0, sp, #8
200090d4:	469b      	mov	fp, r3
200090d6:	8aeb      	ldrh	r3, [r5, #22]
200090d8:	2206      	movs	r2, #6
200090da:	2100      	movs	r1, #0
200090dc:	3006      	adds	r0, #6
200090de:	9301      	str	r3, [sp, #4]
200090e0:	f7fa ffd4 	bl	2000408c <__wrap_memset>
200090e4:	23e0      	movs	r3, #224	; 0xe0
200090e6:	4659      	mov	r1, fp
200090e8:	aa02      	add	r2, sp, #8
200090ea:	00db      	lsls	r3, r3, #3
200090ec:	8093      	strh	r3, [r2, #4]
200090ee:	9b01      	ldr	r3, [sp, #4]
200090f0:	7211      	strb	r1, [r2, #8]
200090f2:	a803      	add	r0, sp, #12
200090f4:	2101      	movs	r1, #1
200090f6:	9305      	str	r3, [sp, #20]
200090f8:	f000 fbc6 	bl	20009888 <dcd_event_handler>
200090fc:	0028      	movs	r0, r5
200090fe:	f000 fb33 	bl	20009768 <hw_endpoint_reset_transfer>
20009102:	e7d8      	b.n	200090b6 <hw_handle_buff_status+0x52>
20009104:	50110000 	.word	0x50110000
20009108:	50113000 	.word	0x50113000
2000910c:	2000fd4c 	.word	0x2000fd4c

20009110 <dcd_rp2040_irq>:
20009110:	2398      	movs	r3, #152	; 0x98
20009112:	4acb      	ldr	r2, [pc, #812]	; (20009440 <dcd_rp2040_irq+0x330>)
20009114:	b5f0      	push	{r4, r5, r6, r7, lr}
20009116:	58d5      	ldr	r5, [r2, r3]
20009118:	2380      	movs	r3, #128	; 0x80
2000911a:	002c      	movs	r4, r5
2000911c:	029b      	lsls	r3, r3, #10
2000911e:	2610      	movs	r6, #16
20009120:	b085      	sub	sp, #20
20009122:	401c      	ands	r4, r3
20009124:	421d      	tst	r5, r3
20009126:	d07a      	beq.n	2000921e <dcd_rp2040_irq+0x10e>
20009128:	4bc6      	ldr	r3, [pc, #792]	; (20009444 <dcd_rp2040_irq+0x334>)
2000912a:	4cc7      	ldr	r4, [pc, #796]	; (20009448 <dcd_rp2040_irq+0x338>)
2000912c:	6a9a      	ldr	r2, [r3, #40]	; 0x28
2000912e:	4bc7      	ldr	r3, [pc, #796]	; (2000944c <dcd_rp2040_irq+0x33c>)
20009130:	2600      	movs	r6, #0
20009132:	601a      	str	r2, [r3, #0]
20009134:	233b      	movs	r3, #59	; 0x3b
20009136:	5ce3      	ldrb	r3, [r4, r3]
20009138:	2b02      	cmp	r3, #2
2000913a:	d100      	bne.n	2000913e <dcd_rp2040_irq+0x2e>
2000913c:	e0e4      	b.n	20009308 <dcd_rp2040_irq+0x1f8>
2000913e:	237b      	movs	r3, #123	; 0x7b
20009140:	5ce3      	ldrb	r3, [r4, r3]
20009142:	2b02      	cmp	r3, #2
20009144:	d100      	bne.n	20009148 <dcd_rp2040_irq+0x38>
20009146:	e1bf      	b.n	200094c8 <dcd_rp2040_irq+0x3b8>
20009148:	23bb      	movs	r3, #187	; 0xbb
2000914a:	5ce3      	ldrb	r3, [r4, r3]
2000914c:	2b02      	cmp	r3, #2
2000914e:	d100      	bne.n	20009152 <dcd_rp2040_irq+0x42>
20009150:	e1af      	b.n	200094b2 <dcd_rp2040_irq+0x3a2>
20009152:	23fb      	movs	r3, #251	; 0xfb
20009154:	5ce3      	ldrb	r3, [r4, r3]
20009156:	2b02      	cmp	r3, #2
20009158:	d100      	bne.n	2000915c <dcd_rp2040_irq+0x4c>
2000915a:	e19f      	b.n	2000949c <dcd_rp2040_irq+0x38c>
2000915c:	233c      	movs	r3, #60	; 0x3c
2000915e:	33ff      	adds	r3, #255	; 0xff
20009160:	5ce3      	ldrb	r3, [r4, r3]
20009162:	2b02      	cmp	r3, #2
20009164:	d100      	bne.n	20009168 <dcd_rp2040_irq+0x58>
20009166:	e15d      	b.n	20009424 <dcd_rp2040_irq+0x314>
20009168:	237c      	movs	r3, #124	; 0x7c
2000916a:	33ff      	adds	r3, #255	; 0xff
2000916c:	5ce3      	ldrb	r3, [r4, r3]
2000916e:	2b02      	cmp	r3, #2
20009170:	d100      	bne.n	20009174 <dcd_rp2040_irq+0x64>
20009172:	e14a      	b.n	2000940a <dcd_rp2040_irq+0x2fa>
20009174:	23bc      	movs	r3, #188	; 0xbc
20009176:	33ff      	adds	r3, #255	; 0xff
20009178:	5ce3      	ldrb	r3, [r4, r3]
2000917a:	2b02      	cmp	r3, #2
2000917c:	d100      	bne.n	20009180 <dcd_rp2040_irq+0x70>
2000917e:	e137      	b.n	200093f0 <dcd_rp2040_irq+0x2e0>
20009180:	23fc      	movs	r3, #252	; 0xfc
20009182:	33ff      	adds	r3, #255	; 0xff
20009184:	5ce3      	ldrb	r3, [r4, r3]
20009186:	2b02      	cmp	r3, #2
20009188:	d100      	bne.n	2000918c <dcd_rp2040_irq+0x7c>
2000918a:	e124      	b.n	200093d6 <dcd_rp2040_irq+0x2c6>
2000918c:	4bb0      	ldr	r3, [pc, #704]	; (20009450 <dcd_rp2040_irq+0x340>)
2000918e:	5ce3      	ldrb	r3, [r4, r3]
20009190:	2b02      	cmp	r3, #2
20009192:	d100      	bne.n	20009196 <dcd_rp2040_irq+0x86>
20009194:	e113      	b.n	200093be <dcd_rp2040_irq+0x2ae>
20009196:	4baf      	ldr	r3, [pc, #700]	; (20009454 <dcd_rp2040_irq+0x344>)
20009198:	5ce3      	ldrb	r3, [r4, r3]
2000919a:	2b02      	cmp	r3, #2
2000919c:	d100      	bne.n	200091a0 <dcd_rp2040_irq+0x90>
2000919e:	e102      	b.n	200093a6 <dcd_rp2040_irq+0x296>
200091a0:	4bad      	ldr	r3, [pc, #692]	; (20009458 <dcd_rp2040_irq+0x348>)
200091a2:	5ce3      	ldrb	r3, [r4, r3]
200091a4:	2b02      	cmp	r3, #2
200091a6:	d100      	bne.n	200091aa <dcd_rp2040_irq+0x9a>
200091a8:	e0f1      	b.n	2000938e <dcd_rp2040_irq+0x27e>
200091aa:	4bac      	ldr	r3, [pc, #688]	; (2000945c <dcd_rp2040_irq+0x34c>)
200091ac:	5ce3      	ldrb	r3, [r4, r3]
200091ae:	2b02      	cmp	r3, #2
200091b0:	d100      	bne.n	200091b4 <dcd_rp2040_irq+0xa4>
200091b2:	e0e0      	b.n	20009376 <dcd_rp2040_irq+0x266>
200091b4:	4baa      	ldr	r3, [pc, #680]	; (20009460 <dcd_rp2040_irq+0x350>)
200091b6:	5ce3      	ldrb	r3, [r4, r3]
200091b8:	2b02      	cmp	r3, #2
200091ba:	d100      	bne.n	200091be <dcd_rp2040_irq+0xae>
200091bc:	e0cf      	b.n	2000935e <dcd_rp2040_irq+0x24e>
200091be:	4ba9      	ldr	r3, [pc, #676]	; (20009464 <dcd_rp2040_irq+0x354>)
200091c0:	5ce3      	ldrb	r3, [r4, r3]
200091c2:	2b02      	cmp	r3, #2
200091c4:	d100      	bne.n	200091c8 <dcd_rp2040_irq+0xb8>
200091c6:	e0b0      	b.n	2000932a <dcd_rp2040_irq+0x21a>
200091c8:	4ba7      	ldr	r3, [pc, #668]	; (20009468 <dcd_rp2040_irq+0x358>)
200091ca:	5ce3      	ldrb	r3, [r4, r3]
200091cc:	2b02      	cmp	r3, #2
200091ce:	d100      	bne.n	200091d2 <dcd_rp2040_irq+0xc2>
200091d0:	e185      	b.n	200094de <dcd_rp2040_irq+0x3ce>
200091d2:	4ba6      	ldr	r3, [pc, #664]	; (2000946c <dcd_rp2040_irq+0x35c>)
200091d4:	5ce3      	ldrb	r3, [r4, r3]
200091d6:	2b02      	cmp	r3, #2
200091d8:	d100      	bne.n	200091dc <dcd_rp2040_irq+0xcc>
200091da:	e19c      	b.n	20009516 <dcd_rp2040_irq+0x406>
200091dc:	2e00      	cmp	r6, #0
200091de:	d108      	bne.n	200091f2 <dcd_rp2040_irq+0xe2>
200091e0:	4ba3      	ldr	r3, [pc, #652]	; (20009470 <dcd_rp2040_irq+0x360>)
200091e2:	781b      	ldrb	r3, [r3, #0]
200091e4:	2b00      	cmp	r3, #0
200091e6:	d104      	bne.n	200091f2 <dcd_rp2040_irq+0xe2>
200091e8:	2180      	movs	r1, #128	; 0x80
200091ea:	4aa2      	ldr	r2, [pc, #648]	; (20009474 <dcd_rp2040_irq+0x364>)
200091ec:	3390      	adds	r3, #144	; 0x90
200091ee:	0289      	lsls	r1, r1, #10
200091f0:	50d1      	str	r1, [r2, r3]
200091f2:	4b93      	ldr	r3, [pc, #588]	; (20009440 <dcd_rp2040_irq+0x330>)
200091f4:	220a      	movs	r2, #10
200091f6:	6c9c      	ldr	r4, [r3, #72]	; 0x48
200091f8:	466b      	mov	r3, sp
200091fa:	2100      	movs	r1, #0
200091fc:	1d98      	adds	r0, r3, #6
200091fe:	f7fa ff45 	bl	2000408c <__wrap_memset>
20009202:	23c0      	movs	r3, #192	; 0xc0
20009204:	0564      	lsls	r4, r4, #21
20009206:	ae01      	add	r6, sp, #4
20009208:	009b      	lsls	r3, r3, #2
2000920a:	0d64      	lsrs	r4, r4, #21
2000920c:	8033      	strh	r3, [r6, #0]
2000920e:	0030      	movs	r0, r6
20009210:	9402      	str	r4, [sp, #8]
20009212:	2101      	movs	r1, #1
20009214:	2480      	movs	r4, #128	; 0x80
20009216:	f000 fb37 	bl	20009888 <dcd_event_handler>
2000921a:	4e97      	ldr	r6, [pc, #604]	; (20009478 <dcd_rp2040_irq+0x368>)
2000921c:	02a4      	lsls	r4, r4, #10
2000921e:	06eb      	lsls	r3, r5, #27
20009220:	d500      	bpl.n	20009224 <dcd_rp2040_irq+0x114>
20009222:	e06d      	b.n	20009300 <dcd_rp2040_irq+0x1f0>
20009224:	2380      	movs	r3, #128	; 0x80
20009226:	025b      	lsls	r3, r3, #9
20009228:	421d      	tst	r5, r3
2000922a:	d014      	beq.n	20009256 <dcd_rp2040_irq+0x146>
2000922c:	2201      	movs	r2, #1
2000922e:	2123      	movs	r1, #35	; 0x23
20009230:	431c      	orrs	r4, r3
20009232:	4b85      	ldr	r3, [pc, #532]	; (20009448 <dcd_rp2040_irq+0x338>)
20009234:	545a      	strb	r2, [r3, r1]
20009236:	70da      	strb	r2, [r3, #3]
20009238:	23c0      	movs	r3, #192	; 0xc0
2000923a:	4a90      	ldr	r2, [pc, #576]	; (2000947c <dcd_rp2040_irq+0x36c>)
2000923c:	00db      	lsls	r3, r3, #3
2000923e:	9301      	str	r3, [sp, #4]
20009240:	ab02      	add	r3, sp, #8
20009242:	ca03      	ldmia	r2!, {r0, r1}
20009244:	c303      	stmia	r3!, {r0, r1}
20009246:	2101      	movs	r1, #1
20009248:	a801      	add	r0, sp, #4
2000924a:	f000 fb1d 	bl	20009888 <dcd_event_handler>
2000924e:	2280      	movs	r2, #128	; 0x80
20009250:	4b88      	ldr	r3, [pc, #544]	; (20009474 <dcd_rp2040_irq+0x364>)
20009252:	0292      	lsls	r2, r2, #10
20009254:	651a      	str	r2, [r3, #80]	; 0x50
20009256:	04eb      	lsls	r3, r5, #19
20009258:	d433      	bmi.n	200092c2 <dcd_rp2040_irq+0x1b2>
2000925a:	2380      	movs	r3, #128	; 0x80
2000925c:	01db      	lsls	r3, r3, #7
2000925e:	421d      	tst	r5, r3
20009260:	d11c      	bne.n	2000929c <dcd_rp2040_irq+0x18c>
20009262:	2380      	movs	r3, #128	; 0x80
20009264:	021b      	lsls	r3, r3, #8
20009266:	421d      	tst	r5, r3
20009268:	d104      	bne.n	20009274 <dcd_rp2040_irq+0x164>
2000926a:	42ac      	cmp	r4, r5
2000926c:	d000      	beq.n	20009270 <dcd_rp2040_irq+0x160>
2000926e:	e1d2      	b.n	20009616 <dcd_rp2040_irq+0x506>
20009270:	b005      	add	sp, #20
20009272:	bdf0      	pop	{r4, r5, r6, r7, pc}
20009274:	431c      	orrs	r4, r3
20009276:	466b      	mov	r3, sp
20009278:	220a      	movs	r2, #10
2000927a:	2100      	movs	r1, #0
2000927c:	1d98      	adds	r0, r3, #6
2000927e:	f7fa ff05 	bl	2000408c <__wrap_memset>
20009282:	23a0      	movs	r3, #160	; 0xa0
20009284:	ae01      	add	r6, sp, #4
20009286:	00db      	lsls	r3, r3, #3
20009288:	8033      	strh	r3, [r6, #0]
2000928a:	2101      	movs	r1, #1
2000928c:	0030      	movs	r0, r6
2000928e:	f000 fafb 	bl	20009888 <dcd_event_handler>
20009292:	2280      	movs	r2, #128	; 0x80
20009294:	4b77      	ldr	r3, [pc, #476]	; (20009474 <dcd_rp2040_irq+0x364>)
20009296:	0112      	lsls	r2, r2, #4
20009298:	651a      	str	r2, [r3, #80]	; 0x50
2000929a:	e7e6      	b.n	2000926a <dcd_rp2040_irq+0x15a>
2000929c:	431c      	orrs	r4, r3
2000929e:	466b      	mov	r3, sp
200092a0:	220a      	movs	r2, #10
200092a2:	2100      	movs	r1, #0
200092a4:	1d98      	adds	r0, r3, #6
200092a6:	f7fa fef1 	bl	2000408c <__wrap_memset>
200092aa:	2380      	movs	r3, #128	; 0x80
200092ac:	ae01      	add	r6, sp, #4
200092ae:	00db      	lsls	r3, r3, #3
200092b0:	8033      	strh	r3, [r6, #0]
200092b2:	2101      	movs	r1, #1
200092b4:	0030      	movs	r0, r6
200092b6:	f000 fae7 	bl	20009888 <dcd_event_handler>
200092ba:	2210      	movs	r2, #16
200092bc:	4b6d      	ldr	r3, [pc, #436]	; (20009474 <dcd_rp2040_irq+0x364>)
200092be:	651a      	str	r2, [r3, #80]	; 0x50
200092c0:	e7cf      	b.n	20009262 <dcd_rp2040_irq+0x152>
200092c2:	2300      	movs	r3, #0
200092c4:	4e5e      	ldr	r6, [pc, #376]	; (20009440 <dcd_rp2040_irq+0x330>)
200092c6:	af01      	add	r7, sp, #4
200092c8:	6033      	str	r3, [r6, #0]
200092ca:	f7ff fe97 	bl	20008ffc <reset_non_control_endpoints>
200092ce:	466b      	mov	r3, sp
200092d0:	220a      	movs	r2, #10
200092d2:	2100      	movs	r1, #0
200092d4:	1d98      	adds	r0, r3, #6
200092d6:	f7fa fed9 	bl	2000408c <__wrap_memset>
200092da:	2380      	movs	r3, #128	; 0x80
200092dc:	005b      	lsls	r3, r3, #1
200092de:	803b      	strh	r3, [r7, #0]
200092e0:	2101      	movs	r1, #1
200092e2:	0038      	movs	r0, r7
200092e4:	f000 fad0 	bl	20009888 <dcd_event_handler>
200092e8:	2280      	movs	r2, #128	; 0x80
200092ea:	4b62      	ldr	r3, [pc, #392]	; (20009474 <dcd_rp2040_irq+0x364>)
200092ec:	0312      	lsls	r2, r2, #12
200092ee:	651a      	str	r2, [r3, #80]	; 0x50
200092f0:	6cf3      	ldr	r3, [r6, #76]	; 0x4c
200092f2:	03db      	lsls	r3, r3, #15
200092f4:	d500      	bpl.n	200092f8 <dcd_rp2040_irq+0x1e8>
200092f6:	e120      	b.n	2000953a <dcd_rp2040_irq+0x42a>
200092f8:	2380      	movs	r3, #128	; 0x80
200092fa:	015b      	lsls	r3, r3, #5
200092fc:	431c      	orrs	r4, r3
200092fe:	e7ac      	b.n	2000925a <dcd_rp2040_irq+0x14a>
20009300:	f7ff feb0 	bl	20009064 <hw_handle_buff_status>
20009304:	0034      	movs	r4, r6
20009306:	e78d      	b.n	20009224 <dcd_rp2040_irq+0x114>
20009308:	3338      	adds	r3, #56	; 0x38
2000930a:	5ce6      	ldrb	r6, [r4, r3]
2000930c:	2e00      	cmp	r6, #0
2000930e:	d100      	bne.n	20009312 <dcd_rp2040_irq+0x202>
20009310:	e715      	b.n	2000913e <dcd_rp2040_irq+0x2e>
20009312:	3302      	adds	r3, #2
20009314:	5ce2      	ldrb	r2, [r4, r3]
20009316:	2a00      	cmp	r2, #0
20009318:	d100      	bne.n	2000931c <dcd_rp2040_irq+0x20c>
2000931a:	e710      	b.n	2000913e <dcd_rp2040_irq+0x2e>
2000931c:	0020      	movs	r0, r4
2000931e:	2200      	movs	r2, #0
20009320:	3020      	adds	r0, #32
20009322:	54e2      	strb	r2, [r4, r3]
20009324:	f000 fa52 	bl	200097cc <hw_endpoint_start_next_buffer>
20009328:	e709      	b.n	2000913e <dcd_rp2040_irq+0x2e>
2000932a:	4b55      	ldr	r3, [pc, #340]	; (20009480 <dcd_rp2040_irq+0x370>)
2000932c:	5ce7      	ldrb	r7, [r4, r3]
2000932e:	2f00      	cmp	r7, #0
20009330:	d100      	bne.n	20009334 <dcd_rp2040_irq+0x224>
20009332:	e749      	b.n	200091c8 <dcd_rp2040_irq+0xb8>
20009334:	3302      	adds	r3, #2
20009336:	5ce2      	ldrb	r2, [r4, r3]
20009338:	2a00      	cmp	r2, #0
2000933a:	d000      	beq.n	2000933e <dcd_rp2040_irq+0x22e>
2000933c:	e164      	b.n	20009608 <dcd_rp2040_irq+0x4f8>
2000933e:	4b4a      	ldr	r3, [pc, #296]	; (20009468 <dcd_rp2040_irq+0x358>)
20009340:	5ce3      	ldrb	r3, [r4, r3]
20009342:	2b02      	cmp	r3, #2
20009344:	d100      	bne.n	20009348 <dcd_rp2040_irq+0x238>
20009346:	e0dc      	b.n	20009502 <dcd_rp2040_irq+0x3f2>
20009348:	4b48      	ldr	r3, [pc, #288]	; (2000946c <dcd_rp2040_irq+0x35c>)
2000934a:	5ce3      	ldrb	r3, [r4, r3]
2000934c:	2b02      	cmp	r3, #2
2000934e:	d000      	beq.n	20009352 <dcd_rp2040_irq+0x242>
20009350:	e74f      	b.n	200091f2 <dcd_rp2040_irq+0xe2>
20009352:	4b4c      	ldr	r3, [pc, #304]	; (20009484 <dcd_rp2040_irq+0x374>)
20009354:	5ce3      	ldrb	r3, [r4, r3]
20009356:	2b00      	cmp	r3, #0
20009358:	d000      	beq.n	2000935c <dcd_rp2040_irq+0x24c>
2000935a:	e0e1      	b.n	20009520 <dcd_rp2040_irq+0x410>
2000935c:	e749      	b.n	200091f2 <dcd_rp2040_irq+0xe2>
2000935e:	4b4a      	ldr	r3, [pc, #296]	; (20009488 <dcd_rp2040_irq+0x378>)
20009360:	5ce7      	ldrb	r7, [r4, r3]
20009362:	2f00      	cmp	r7, #0
20009364:	d100      	bne.n	20009368 <dcd_rp2040_irq+0x258>
20009366:	e72a      	b.n	200091be <dcd_rp2040_irq+0xae>
20009368:	3302      	adds	r3, #2
2000936a:	5ce2      	ldrb	r2, [r4, r3]
2000936c:	2a00      	cmp	r2, #0
2000936e:	d000      	beq.n	20009372 <dcd_rp2040_irq+0x262>
20009370:	e142      	b.n	200095f8 <dcd_rp2040_irq+0x4e8>
20009372:	003e      	movs	r6, r7
20009374:	e723      	b.n	200091be <dcd_rp2040_irq+0xae>
20009376:	4b45      	ldr	r3, [pc, #276]	; (2000948c <dcd_rp2040_irq+0x37c>)
20009378:	5ce7      	ldrb	r7, [r4, r3]
2000937a:	2f00      	cmp	r7, #0
2000937c:	d100      	bne.n	20009380 <dcd_rp2040_irq+0x270>
2000937e:	e719      	b.n	200091b4 <dcd_rp2040_irq+0xa4>
20009380:	3302      	adds	r3, #2
20009382:	5ce2      	ldrb	r2, [r4, r3]
20009384:	2a00      	cmp	r2, #0
20009386:	d000      	beq.n	2000938a <dcd_rp2040_irq+0x27a>
20009388:	e12e      	b.n	200095e8 <dcd_rp2040_irq+0x4d8>
2000938a:	003e      	movs	r6, r7
2000938c:	e712      	b.n	200091b4 <dcd_rp2040_irq+0xa4>
2000938e:	4b40      	ldr	r3, [pc, #256]	; (20009490 <dcd_rp2040_irq+0x380>)
20009390:	5ce7      	ldrb	r7, [r4, r3]
20009392:	2f00      	cmp	r7, #0
20009394:	d100      	bne.n	20009398 <dcd_rp2040_irq+0x288>
20009396:	e708      	b.n	200091aa <dcd_rp2040_irq+0x9a>
20009398:	3302      	adds	r3, #2
2000939a:	5ce2      	ldrb	r2, [r4, r3]
2000939c:	2a00      	cmp	r2, #0
2000939e:	d000      	beq.n	200093a2 <dcd_rp2040_irq+0x292>
200093a0:	e11a      	b.n	200095d8 <dcd_rp2040_irq+0x4c8>
200093a2:	003e      	movs	r6, r7
200093a4:	e701      	b.n	200091aa <dcd_rp2040_irq+0x9a>
200093a6:	4b3b      	ldr	r3, [pc, #236]	; (20009494 <dcd_rp2040_irq+0x384>)
200093a8:	5ce7      	ldrb	r7, [r4, r3]
200093aa:	2f00      	cmp	r7, #0
200093ac:	d100      	bne.n	200093b0 <dcd_rp2040_irq+0x2a0>
200093ae:	e6f7      	b.n	200091a0 <dcd_rp2040_irq+0x90>
200093b0:	3302      	adds	r3, #2
200093b2:	5ce2      	ldrb	r2, [r4, r3]
200093b4:	2a00      	cmp	r2, #0
200093b6:	d000      	beq.n	200093ba <dcd_rp2040_irq+0x2aa>
200093b8:	e106      	b.n	200095c8 <dcd_rp2040_irq+0x4b8>
200093ba:	003e      	movs	r6, r7
200093bc:	e6f0      	b.n	200091a0 <dcd_rp2040_irq+0x90>
200093be:	4b36      	ldr	r3, [pc, #216]	; (20009498 <dcd_rp2040_irq+0x388>)
200093c0:	5ce7      	ldrb	r7, [r4, r3]
200093c2:	2f00      	cmp	r7, #0
200093c4:	d100      	bne.n	200093c8 <dcd_rp2040_irq+0x2b8>
200093c6:	e6e6      	b.n	20009196 <dcd_rp2040_irq+0x86>
200093c8:	3302      	adds	r3, #2
200093ca:	5ce2      	ldrb	r2, [r4, r3]
200093cc:	2a00      	cmp	r2, #0
200093ce:	d000      	beq.n	200093d2 <dcd_rp2040_irq+0x2c2>
200093d0:	e0f2      	b.n	200095b8 <dcd_rp2040_irq+0x4a8>
200093d2:	003e      	movs	r6, r7
200093d4:	e6df      	b.n	20009196 <dcd_rp2040_irq+0x86>
200093d6:	33f9      	adds	r3, #249	; 0xf9
200093d8:	33ff      	adds	r3, #255	; 0xff
200093da:	5ce7      	ldrb	r7, [r4, r3]
200093dc:	2f00      	cmp	r7, #0
200093de:	d100      	bne.n	200093e2 <dcd_rp2040_irq+0x2d2>
200093e0:	e6d4      	b.n	2000918c <dcd_rp2040_irq+0x7c>
200093e2:	3302      	adds	r3, #2
200093e4:	5ce2      	ldrb	r2, [r4, r3]
200093e6:	2a00      	cmp	r2, #0
200093e8:	d000      	beq.n	200093ec <dcd_rp2040_irq+0x2dc>
200093ea:	e0dc      	b.n	200095a6 <dcd_rp2040_irq+0x496>
200093ec:	003e      	movs	r6, r7
200093ee:	e6cd      	b.n	2000918c <dcd_rp2040_irq+0x7c>
200093f0:	33b9      	adds	r3, #185	; 0xb9
200093f2:	33ff      	adds	r3, #255	; 0xff
200093f4:	5ce7      	ldrb	r7, [r4, r3]
200093f6:	2f00      	cmp	r7, #0
200093f8:	d100      	bne.n	200093fc <dcd_rp2040_irq+0x2ec>
200093fa:	e6c1      	b.n	20009180 <dcd_rp2040_irq+0x70>
200093fc:	3302      	adds	r3, #2
200093fe:	5ce2      	ldrb	r2, [r4, r3]
20009400:	2a00      	cmp	r2, #0
20009402:	d000      	beq.n	20009406 <dcd_rp2040_irq+0x2f6>
20009404:	e0c6      	b.n	20009594 <dcd_rp2040_irq+0x484>
20009406:	003e      	movs	r6, r7
20009408:	e6ba      	b.n	20009180 <dcd_rp2040_irq+0x70>
2000940a:	3379      	adds	r3, #121	; 0x79
2000940c:	33ff      	adds	r3, #255	; 0xff
2000940e:	5ce7      	ldrb	r7, [r4, r3]
20009410:	2f00      	cmp	r7, #0
20009412:	d100      	bne.n	20009416 <dcd_rp2040_irq+0x306>
20009414:	e6ae      	b.n	20009174 <dcd_rp2040_irq+0x64>
20009416:	3302      	adds	r3, #2
20009418:	5ce2      	ldrb	r2, [r4, r3]
2000941a:	2a00      	cmp	r2, #0
2000941c:	d000      	beq.n	20009420 <dcd_rp2040_irq+0x310>
2000941e:	e0b0      	b.n	20009582 <dcd_rp2040_irq+0x472>
20009420:	003e      	movs	r6, r7
20009422:	e6a7      	b.n	20009174 <dcd_rp2040_irq+0x64>
20009424:	3339      	adds	r3, #57	; 0x39
20009426:	33ff      	adds	r3, #255	; 0xff
20009428:	5ce7      	ldrb	r7, [r4, r3]
2000942a:	2f00      	cmp	r7, #0
2000942c:	d100      	bne.n	20009430 <dcd_rp2040_irq+0x320>
2000942e:	e69b      	b.n	20009168 <dcd_rp2040_irq+0x58>
20009430:	3302      	adds	r3, #2
20009432:	5ce2      	ldrb	r2, [r4, r3]
20009434:	2a00      	cmp	r2, #0
20009436:	d000      	beq.n	2000943a <dcd_rp2040_irq+0x32a>
20009438:	e09a      	b.n	20009570 <dcd_rp2040_irq+0x460>
2000943a:	003e      	movs	r6, r7
2000943c:	e694      	b.n	20009168 <dcd_rp2040_irq+0x58>
2000943e:	46c0      	nop			; (mov r8, r8)
20009440:	50110000 	.word	0x50110000
20009444:	40054000 	.word	0x40054000
20009448:	2000fd4c 	.word	0x2000fd4c
2000944c:	2000fd40 	.word	0x2000fd40
20009450:	0000023b 	.word	0x0000023b
20009454:	0000027b 	.word	0x0000027b
20009458:	000002bb 	.word	0x000002bb
2000945c:	000002fb 	.word	0x000002fb
20009460:	0000033b 	.word	0x0000033b
20009464:	0000037b 	.word	0x0000037b
20009468:	000003bb 	.word	0x000003bb
2000946c:	000003fb 	.word	0x000003fb
20009470:	20020590 	.word	0x20020590
20009474:	50113000 	.word	0x50113000
20009478:	00020010 	.word	0x00020010
2000947c:	50100000 	.word	0x50100000
20009480:	0000037a 	.word	0x0000037a
20009484:	000003fa 	.word	0x000003fa
20009488:	0000033a 	.word	0x0000033a
2000948c:	000002fa 	.word	0x000002fa
20009490:	000002ba 	.word	0x000002ba
20009494:	0000027a 	.word	0x0000027a
20009498:	0000023a 	.word	0x0000023a
2000949c:	33f8      	adds	r3, #248	; 0xf8
2000949e:	5ce7      	ldrb	r7, [r4, r3]
200094a0:	2f00      	cmp	r7, #0
200094a2:	d100      	bne.n	200094a6 <dcd_rp2040_irq+0x396>
200094a4:	e65a      	b.n	2000915c <dcd_rp2040_irq+0x4c>
200094a6:	3302      	adds	r3, #2
200094a8:	5ce2      	ldrb	r2, [r4, r3]
200094aa:	2a00      	cmp	r2, #0
200094ac:	d158      	bne.n	20009560 <dcd_rp2040_irq+0x450>
200094ae:	003e      	movs	r6, r7
200094b0:	e654      	b.n	2000915c <dcd_rp2040_irq+0x4c>
200094b2:	33b8      	adds	r3, #184	; 0xb8
200094b4:	5ce7      	ldrb	r7, [r4, r3]
200094b6:	2f00      	cmp	r7, #0
200094b8:	d100      	bne.n	200094bc <dcd_rp2040_irq+0x3ac>
200094ba:	e64a      	b.n	20009152 <dcd_rp2040_irq+0x42>
200094bc:	3302      	adds	r3, #2
200094be:	5ce2      	ldrb	r2, [r4, r3]
200094c0:	2a00      	cmp	r2, #0
200094c2:	d145      	bne.n	20009550 <dcd_rp2040_irq+0x440>
200094c4:	003e      	movs	r6, r7
200094c6:	e644      	b.n	20009152 <dcd_rp2040_irq+0x42>
200094c8:	3378      	adds	r3, #120	; 0x78
200094ca:	5ce7      	ldrb	r7, [r4, r3]
200094cc:	2f00      	cmp	r7, #0
200094ce:	d100      	bne.n	200094d2 <dcd_rp2040_irq+0x3c2>
200094d0:	e63a      	b.n	20009148 <dcd_rp2040_irq+0x38>
200094d2:	3302      	adds	r3, #2
200094d4:	5ce2      	ldrb	r2, [r4, r3]
200094d6:	2a00      	cmp	r2, #0
200094d8:	d132      	bne.n	20009540 <dcd_rp2040_irq+0x430>
200094da:	003e      	movs	r6, r7
200094dc:	e634      	b.n	20009148 <dcd_rp2040_irq+0x38>
200094de:	4b50      	ldr	r3, [pc, #320]	; (20009620 <dcd_rp2040_irq+0x510>)
200094e0:	5ce3      	ldrb	r3, [r4, r3]
200094e2:	2b00      	cmp	r3, #0
200094e4:	d100      	bne.n	200094e8 <dcd_rp2040_irq+0x3d8>
200094e6:	e674      	b.n	200091d2 <dcd_rp2040_irq+0xc2>
200094e8:	23ef      	movs	r3, #239	; 0xef
200094ea:	009b      	lsls	r3, r3, #2
200094ec:	5ce2      	ldrb	r2, [r4, r3]
200094ee:	2a00      	cmp	r2, #0
200094f0:	d100      	bne.n	200094f4 <dcd_rp2040_irq+0x3e4>
200094f2:	e729      	b.n	20009348 <dcd_rp2040_irq+0x238>
200094f4:	2200      	movs	r2, #0
200094f6:	54e2      	strb	r2, [r4, r3]
200094f8:	3b1c      	subs	r3, #28
200094fa:	18e0      	adds	r0, r4, r3
200094fc:	f000 f966 	bl	200097cc <hw_endpoint_start_next_buffer>
20009500:	e722      	b.n	20009348 <dcd_rp2040_irq+0x238>
20009502:	4b47      	ldr	r3, [pc, #284]	; (20009620 <dcd_rp2040_irq+0x510>)
20009504:	5ce3      	ldrb	r3, [r4, r3]
20009506:	2b00      	cmp	r3, #0
20009508:	d1ee      	bne.n	200094e8 <dcd_rp2040_irq+0x3d8>
2000950a:	4b46      	ldr	r3, [pc, #280]	; (20009624 <dcd_rp2040_irq+0x514>)
2000950c:	5ce3      	ldrb	r3, [r4, r3]
2000950e:	2b02      	cmp	r3, #2
20009510:	d000      	beq.n	20009514 <dcd_rp2040_irq+0x404>
20009512:	e66e      	b.n	200091f2 <dcd_rp2040_irq+0xe2>
20009514:	003e      	movs	r6, r7
20009516:	4b44      	ldr	r3, [pc, #272]	; (20009628 <dcd_rp2040_irq+0x518>)
20009518:	5ce3      	ldrb	r3, [r4, r3]
2000951a:	2b00      	cmp	r3, #0
2000951c:	d100      	bne.n	20009520 <dcd_rp2040_irq+0x410>
2000951e:	e65d      	b.n	200091dc <dcd_rp2040_irq+0xcc>
20009520:	23ff      	movs	r3, #255	; 0xff
20009522:	009b      	lsls	r3, r3, #2
20009524:	5ce2      	ldrb	r2, [r4, r3]
20009526:	2a00      	cmp	r2, #0
20009528:	d100      	bne.n	2000952c <dcd_rp2040_irq+0x41c>
2000952a:	e662      	b.n	200091f2 <dcd_rp2040_irq+0xe2>
2000952c:	2200      	movs	r2, #0
2000952e:	54e2      	strb	r2, [r4, r3]
20009530:	3b1c      	subs	r3, #28
20009532:	18e0      	adds	r0, r4, r3
20009534:	f000 f94a 	bl	200097cc <hw_endpoint_start_next_buffer>
20009538:	e65b      	b.n	200091f2 <dcd_rp2040_irq+0xe2>
2000953a:	f7fd f98b 	bl	20006854 <rp2040_usb_device_enumeration_fix>
2000953e:	e6db      	b.n	200092f8 <dcd_rp2040_irq+0x1e8>
20009540:	0020      	movs	r0, r4
20009542:	2200      	movs	r2, #0
20009544:	3060      	adds	r0, #96	; 0x60
20009546:	54e2      	strb	r2, [r4, r3]
20009548:	003e      	movs	r6, r7
2000954a:	f000 f93f 	bl	200097cc <hw_endpoint_start_next_buffer>
2000954e:	e5fb      	b.n	20009148 <dcd_rp2040_irq+0x38>
20009550:	0020      	movs	r0, r4
20009552:	2200      	movs	r2, #0
20009554:	30a0      	adds	r0, #160	; 0xa0
20009556:	54e2      	strb	r2, [r4, r3]
20009558:	003e      	movs	r6, r7
2000955a:	f000 f937 	bl	200097cc <hw_endpoint_start_next_buffer>
2000955e:	e5f8      	b.n	20009152 <dcd_rp2040_irq+0x42>
20009560:	0020      	movs	r0, r4
20009562:	2200      	movs	r2, #0
20009564:	30e0      	adds	r0, #224	; 0xe0
20009566:	54e2      	strb	r2, [r4, r3]
20009568:	003e      	movs	r6, r7
2000956a:	f000 f92f 	bl	200097cc <hw_endpoint_start_next_buffer>
2000956e:	e5f5      	b.n	2000915c <dcd_rp2040_irq+0x4c>
20009570:	0020      	movs	r0, r4
20009572:	2200      	movs	r2, #0
20009574:	3021      	adds	r0, #33	; 0x21
20009576:	30ff      	adds	r0, #255	; 0xff
20009578:	54e2      	strb	r2, [r4, r3]
2000957a:	003e      	movs	r6, r7
2000957c:	f000 f926 	bl	200097cc <hw_endpoint_start_next_buffer>
20009580:	e5f2      	b.n	20009168 <dcd_rp2040_irq+0x58>
20009582:	0020      	movs	r0, r4
20009584:	2200      	movs	r2, #0
20009586:	3061      	adds	r0, #97	; 0x61
20009588:	30ff      	adds	r0, #255	; 0xff
2000958a:	54e2      	strb	r2, [r4, r3]
2000958c:	003e      	movs	r6, r7
2000958e:	f000 f91d 	bl	200097cc <hw_endpoint_start_next_buffer>
20009592:	e5ef      	b.n	20009174 <dcd_rp2040_irq+0x64>
20009594:	0020      	movs	r0, r4
20009596:	2200      	movs	r2, #0
20009598:	30a1      	adds	r0, #161	; 0xa1
2000959a:	30ff      	adds	r0, #255	; 0xff
2000959c:	54e2      	strb	r2, [r4, r3]
2000959e:	003e      	movs	r6, r7
200095a0:	f000 f914 	bl	200097cc <hw_endpoint_start_next_buffer>
200095a4:	e5ec      	b.n	20009180 <dcd_rp2040_irq+0x70>
200095a6:	0020      	movs	r0, r4
200095a8:	2200      	movs	r2, #0
200095aa:	30e1      	adds	r0, #225	; 0xe1
200095ac:	30ff      	adds	r0, #255	; 0xff
200095ae:	54e2      	strb	r2, [r4, r3]
200095b0:	003e      	movs	r6, r7
200095b2:	f000 f90b 	bl	200097cc <hw_endpoint_start_next_buffer>
200095b6:	e5e9      	b.n	2000918c <dcd_rp2040_irq+0x7c>
200095b8:	2200      	movs	r2, #0
200095ba:	54e2      	strb	r2, [r4, r3]
200095bc:	3b1c      	subs	r3, #28
200095be:	18e0      	adds	r0, r4, r3
200095c0:	f000 f904 	bl	200097cc <hw_endpoint_start_next_buffer>
200095c4:	003e      	movs	r6, r7
200095c6:	e5e6      	b.n	20009196 <dcd_rp2040_irq+0x86>
200095c8:	2200      	movs	r2, #0
200095ca:	54e2      	strb	r2, [r4, r3]
200095cc:	3b1c      	subs	r3, #28
200095ce:	18e0      	adds	r0, r4, r3
200095d0:	f000 f8fc 	bl	200097cc <hw_endpoint_start_next_buffer>
200095d4:	003e      	movs	r6, r7
200095d6:	e5e3      	b.n	200091a0 <dcd_rp2040_irq+0x90>
200095d8:	2200      	movs	r2, #0
200095da:	54e2      	strb	r2, [r4, r3]
200095dc:	3b1c      	subs	r3, #28
200095de:	18e0      	adds	r0, r4, r3
200095e0:	f000 f8f4 	bl	200097cc <hw_endpoint_start_next_buffer>
200095e4:	003e      	movs	r6, r7
200095e6:	e5e0      	b.n	200091aa <dcd_rp2040_irq+0x9a>
200095e8:	2200      	movs	r2, #0
200095ea:	54e2      	strb	r2, [r4, r3]
200095ec:	3b1c      	subs	r3, #28
200095ee:	18e0      	adds	r0, r4, r3
200095f0:	f000 f8ec 	bl	200097cc <hw_endpoint_start_next_buffer>
200095f4:	003e      	movs	r6, r7
200095f6:	e5dd      	b.n	200091b4 <dcd_rp2040_irq+0xa4>
200095f8:	2200      	movs	r2, #0
200095fa:	54e2      	strb	r2, [r4, r3]
200095fc:	3b1c      	subs	r3, #28
200095fe:	18e0      	adds	r0, r4, r3
20009600:	f000 f8e4 	bl	200097cc <hw_endpoint_start_next_buffer>
20009604:	003e      	movs	r6, r7
20009606:	e5da      	b.n	200091be <dcd_rp2040_irq+0xae>
20009608:	2200      	movs	r2, #0
2000960a:	54e2      	strb	r2, [r4, r3]
2000960c:	3b1c      	subs	r3, #28
2000960e:	18e0      	adds	r0, r4, r3
20009610:	f000 f8dc 	bl	200097cc <hw_endpoint_start_next_buffer>
20009614:	e693      	b.n	2000933e <dcd_rp2040_irq+0x22e>
20009616:	0021      	movs	r1, r4
20009618:	4804      	ldr	r0, [pc, #16]	; (2000962c <dcd_rp2040_irq+0x51c>)
2000961a:	4069      	eors	r1, r5
2000961c:	f7fa f9ae 	bl	2000397c <panic>
20009620:	000003ba 	.word	0x000003ba
20009624:	000003fb 	.word	0x000003fb
20009628:	000003fa 	.word	0x000003fa
2000962c:	20009ea4 	.word	0x20009ea4

20009630 <e15_is_bulkin_ep>:
20009630:	4a08      	ldr	r2, [pc, #32]	; (20009654 <e15_is_bulkin_ep+0x24>)
20009632:	0003      	movs	r3, r0
20009634:	6c12      	ldr	r2, [r2, #64]	; 0x40
20009636:	2000      	movs	r0, #0
20009638:	0792      	lsls	r2, r2, #30
2000963a:	d403      	bmi.n	20009644 <e15_is_bulkin_ep+0x14>
2000963c:	789a      	ldrb	r2, [r3, #2]
2000963e:	09d2      	lsrs	r2, r2, #7
20009640:	2a01      	cmp	r2, #1
20009642:	d000      	beq.n	20009646 <e15_is_bulkin_ep+0x16>
20009644:	4770      	bx	lr
20009646:	7ed8      	ldrb	r0, [r3, #27]
20009648:	3802      	subs	r0, #2
2000964a:	4243      	negs	r3, r0
2000964c:	4158      	adcs	r0, r3
2000964e:	b2c0      	uxtb	r0, r0
20009650:	e7f8      	b.n	20009644 <e15_is_bulkin_ep+0x14>
20009652:	46c0      	nop			; (mov r8, r8)
20009654:	50110000 	.word	0x50110000

20009658 <e15_is_critical_frame_period>:
20009658:	b510      	push	{r4, lr}
2000965a:	f7ff ffe9 	bl	20009630 <e15_is_bulkin_ep>
2000965e:	2800      	cmp	r0, #0
20009660:	d00c      	beq.n	2000967c <e15_is_critical_frame_period+0x24>
20009662:	4907      	ldr	r1, [pc, #28]	; (20009680 <e15_is_critical_frame_period+0x28>)
20009664:	4b07      	ldr	r3, [pc, #28]	; (20009684 <e15_is_critical_frame_period+0x2c>)
20009666:	468c      	mov	ip, r1
20009668:	4a07      	ldr	r2, [pc, #28]	; (20009688 <e15_is_critical_frame_period+0x30>)
2000966a:	6a9b      	ldr	r3, [r3, #40]	; 0x28
2000966c:	6812      	ldr	r2, [r2, #0]
2000966e:	4463      	add	r3, ip
20009670:	1a9b      	subs	r3, r3, r2
20009672:	2000      	movs	r0, #0
20009674:	22c6      	movs	r2, #198	; 0xc6
20009676:	429a      	cmp	r2, r3
20009678:	4140      	adcs	r0, r0
2000967a:	b2c0      	uxtb	r0, r0
2000967c:	bd10      	pop	{r4, pc}
2000967e:	46c0      	nop			; (mov r8, r8)
20009680:	fffffce0 	.word	0xfffffce0
20009684:	40054000 	.word	0x40054000
20009688:	2000fd40 	.word	0x2000fd40

2000968c <prepare_ep_buffer>:
2000968c:	b5f8      	push	{r3, r4, r5, r6, r7, lr}
2000968e:	8b02      	ldrh	r2, [r0, #24]
20009690:	8a83      	ldrh	r3, [r0, #20]
20009692:	0004      	movs	r4, r0
20009694:	000f      	movs	r7, r1
20009696:	1c16      	adds	r6, r2, #0
20009698:	429a      	cmp	r2, r3
2000969a:	d900      	bls.n	2000969e <prepare_ep_buffer+0x12>
2000969c:	1c1e      	adds	r6, r3, #0
2000969e:	78e2      	ldrb	r2, [r4, #3]
200096a0:	2180      	movs	r1, #128	; 0x80
200096a2:	0015      	movs	r5, r2
200096a4:	1e68      	subs	r0, r5, #1
200096a6:	4185      	sbcs	r5, r0
200096a8:	b2b6      	uxth	r6, r6
200096aa:	00c9      	lsls	r1, r1, #3
200096ac:	4331      	orrs	r1, r6
200096ae:	036d      	lsls	r5, r5, #13
200096b0:	430d      	orrs	r5, r1
200096b2:	2101      	movs	r1, #1
200096b4:	404a      	eors	r2, r1
200096b6:	1b9b      	subs	r3, r3, r6
200096b8:	70e2      	strb	r2, [r4, #3]
200096ba:	7862      	ldrb	r2, [r4, #1]
200096bc:	b29b      	uxth	r3, r3
200096be:	82a3      	strh	r3, [r4, #20]
200096c0:	2a00      	cmp	r2, #0
200096c2:	d009      	beq.n	200096d8 <prepare_ep_buffer+0x4c>
200096c4:	2b00      	cmp	r3, #0
200096c6:	d102      	bne.n	200096ce <prepare_ep_buffer+0x42>
200096c8:	2380      	movs	r3, #128	; 0x80
200096ca:	01db      	lsls	r3, r3, #7
200096cc:	431d      	orrs	r5, r3
200096ce:	2f00      	cmp	r7, #0
200096d0:	d000      	beq.n	200096d4 <prepare_ep_buffer+0x48>
200096d2:	042d      	lsls	r5, r5, #16
200096d4:	0028      	movs	r0, r5
200096d6:	bdf8      	pop	{r3, r4, r5, r6, r7, pc}
200096d8:	68e0      	ldr	r0, [r4, #12]
200096da:	01bb      	lsls	r3, r7, #6
200096dc:	18c0      	adds	r0, r0, r3
200096de:	0032      	movs	r2, r6
200096e0:	6921      	ldr	r1, [r4, #16]
200096e2:	f7fa fcd9 	bl	20004098 <__wrap___aeabi_memcpy>
200096e6:	6923      	ldr	r3, [r4, #16]
200096e8:	199b      	adds	r3, r3, r6
200096ea:	6123      	str	r3, [r4, #16]
200096ec:	2380      	movs	r3, #128	; 0x80
200096ee:	021b      	lsls	r3, r3, #8
200096f0:	431d      	orrs	r5, r3
200096f2:	8aa3      	ldrh	r3, [r4, #20]
200096f4:	e7e6      	b.n	200096c4 <prepare_ep_buffer+0x38>
200096f6:	46c0      	nop			; (mov r8, r8)

200096f8 <sync_ep_buffer>:
200096f8:	6883      	ldr	r3, [r0, #8]
200096fa:	b570      	push	{r4, r5, r6, lr}
200096fc:	0004      	movs	r4, r0
200096fe:	681d      	ldr	r5, [r3, #0]
20009700:	2900      	cmp	r1, #0
20009702:	d000      	beq.n	20009706 <sync_ep_buffer+0xe>
20009704:	0c2d      	lsrs	r5, r5, #16
20009706:	7863      	ldrb	r3, [r4, #1]
20009708:	05ad      	lsls	r5, r5, #22
2000970a:	0dad      	lsrs	r5, r5, #22
2000970c:	2b00      	cmp	r3, #0
2000970e:	d109      	bne.n	20009724 <sync_ep_buffer+0x2c>
20009710:	8ae3      	ldrh	r3, [r4, #22]
20009712:	18eb      	adds	r3, r5, r3
20009714:	82e3      	strh	r3, [r4, #22]
20009716:	8b23      	ldrh	r3, [r4, #24]
20009718:	42ab      	cmp	r3, r5
2000971a:	d901      	bls.n	20009720 <sync_ep_buffer+0x28>
2000971c:	2300      	movs	r3, #0
2000971e:	82a3      	strh	r3, [r4, #20]
20009720:	0028      	movs	r0, r5
20009722:	bd70      	pop	{r4, r5, r6, pc}
20009724:	68e3      	ldr	r3, [r4, #12]
20009726:	0189      	lsls	r1, r1, #6
20009728:	1859      	adds	r1, r3, r1
2000972a:	002a      	movs	r2, r5
2000972c:	6920      	ldr	r0, [r4, #16]
2000972e:	f7fa fcb3 	bl	20004098 <__wrap___aeabi_memcpy>
20009732:	8ae3      	ldrh	r3, [r4, #22]
20009734:	18eb      	adds	r3, r5, r3
20009736:	82e3      	strh	r3, [r4, #22]
20009738:	6923      	ldr	r3, [r4, #16]
2000973a:	195b      	adds	r3, r3, r5
2000973c:	6123      	str	r3, [r4, #16]
2000973e:	e7ea      	b.n	20009716 <sync_ep_buffer+0x1e>

20009740 <_hw_endpoint_xfer_sync>:
20009740:	b510      	push	{r4, lr}
20009742:	0004      	movs	r4, r0
20009744:	6883      	ldr	r3, [r0, #8]
20009746:	2100      	movs	r1, #0
20009748:	681b      	ldr	r3, [r3, #0]
2000974a:	f7ff ffd5 	bl	200096f8 <sync_ep_buffer>
2000974e:	6863      	ldr	r3, [r4, #4]
20009750:	681b      	ldr	r3, [r3, #0]
20009752:	005b      	lsls	r3, r3, #1
20009754:	d502      	bpl.n	2000975c <_hw_endpoint_xfer_sync+0x1c>
20009756:	8b23      	ldrh	r3, [r4, #24]
20009758:	4283      	cmp	r3, r0
2000975a:	d000      	beq.n	2000975e <_hw_endpoint_xfer_sync+0x1e>
2000975c:	bd10      	pop	{r4, pc}
2000975e:	2101      	movs	r1, #1
20009760:	0020      	movs	r0, r4
20009762:	f7ff ffc9 	bl	200096f8 <sync_ep_buffer>
20009766:	e7f9      	b.n	2000975c <_hw_endpoint_xfer_sync+0x1c>

20009768 <hw_endpoint_reset_transfer>:
20009768:	2300      	movs	r3, #0
2000976a:	7683      	strb	r3, [r0, #26]
2000976c:	6143      	str	r3, [r0, #20]
2000976e:	6103      	str	r3, [r0, #16]
20009770:	4770      	bx	lr
20009772:	46c0      	nop			; (mov r8, r8)

20009774 <_hw_endpoint_buffer_control_update32>:
20009774:	b510      	push	{r4, lr}
20009776:	6883      	ldr	r3, [r0, #8]
20009778:	2900      	cmp	r1, #0
2000977a:	d001      	beq.n	20009780 <_hw_endpoint_buffer_control_update32+0xc>
2000977c:	681c      	ldr	r4, [r3, #0]
2000977e:	4021      	ands	r1, r4
20009780:	2a00      	cmp	r2, #0
20009782:	d011      	beq.n	200097a8 <_hw_endpoint_buffer_control_update32+0x34>
20009784:	2480      	movs	r4, #128	; 0x80
20009786:	00e4      	lsls	r4, r4, #3
20009788:	4311      	orrs	r1, r2
2000978a:	4222      	tst	r2, r4
2000978c:	d00c      	beq.n	200097a8 <_hw_endpoint_buffer_control_update32+0x34>
2000978e:	681a      	ldr	r2, [r3, #0]
20009790:	4222      	tst	r2, r4
20009792:	d10b      	bne.n	200097ac <_hw_endpoint_buffer_control_update32+0x38>
20009794:	4a0a      	ldr	r2, [pc, #40]	; (200097c0 <_hw_endpoint_buffer_control_update32+0x4c>)
20009796:	400a      	ands	r2, r1
20009798:	601a      	str	r2, [r3, #0]
2000979a:	e7ff      	b.n	2000979c <_hw_endpoint_buffer_control_update32+0x28>
2000979c:	e7ff      	b.n	2000979e <_hw_endpoint_buffer_control_update32+0x2a>
2000979e:	e7ff      	b.n	200097a0 <_hw_endpoint_buffer_control_update32+0x2c>
200097a0:	e7ff      	b.n	200097a2 <_hw_endpoint_buffer_control_update32+0x2e>
200097a2:	e7ff      	b.n	200097a4 <_hw_endpoint_buffer_control_update32+0x30>
200097a4:	e7ff      	b.n	200097a6 <_hw_endpoint_buffer_control_update32+0x32>
200097a6:	6883      	ldr	r3, [r0, #8]
200097a8:	6019      	str	r1, [r3, #0]
200097aa:	bd10      	pop	{r4, pc}
200097ac:	7881      	ldrb	r1, [r0, #2]
200097ae:	207f      	movs	r0, #127	; 0x7f
200097b0:	09ca      	lsrs	r2, r1, #7
200097b2:	4b04      	ldr	r3, [pc, #16]	; (200097c4 <_hw_endpoint_buffer_control_update32+0x50>)
200097b4:	0092      	lsls	r2, r2, #2
200097b6:	4001      	ands	r1, r0
200097b8:	58d2      	ldr	r2, [r2, r3]
200097ba:	4803      	ldr	r0, [pc, #12]	; (200097c8 <_hw_endpoint_buffer_control_update32+0x54>)
200097bc:	f7fa f8de 	bl	2000397c <panic>
200097c0:	fffffbff 	.word	0xfffffbff
200097c4:	2000a1a8 	.word	0x2000a1a8
200097c8:	20009eb8 	.word	0x20009eb8

200097cc <hw_endpoint_start_next_buffer>:
200097cc:	6843      	ldr	r3, [r0, #4]
200097ce:	b570      	push	{r4, r5, r6, lr}
200097d0:	2100      	movs	r1, #0
200097d2:	2580      	movs	r5, #128	; 0x80
200097d4:	681e      	ldr	r6, [r3, #0]
200097d6:	0004      	movs	r4, r0
200097d8:	f7ff ff58 	bl	2000968c <prepare_ep_buffer>
200097dc:	4b13      	ldr	r3, [pc, #76]	; (2000982c <hw_endpoint_start_next_buffer+0x60>)
200097de:	016d      	lsls	r5, r5, #5
200097e0:	6c1b      	ldr	r3, [r3, #64]	; 0x40
200097e2:	4305      	orrs	r5, r0
200097e4:	079b      	lsls	r3, r3, #30
200097e6:	d50f      	bpl.n	20009808 <hw_endpoint_start_next_buffer+0x3c>
200097e8:	78a3      	ldrb	r3, [r4, #2]
200097ea:	065b      	lsls	r3, r3, #25
200097ec:	d00f      	beq.n	2000980e <hw_endpoint_start_next_buffer+0x42>
200097ee:	4b10      	ldr	r3, [pc, #64]	; (20009830 <hw_endpoint_start_next_buffer+0x64>)
200097f0:	401e      	ands	r6, r3
200097f2:	2380      	movs	r3, #128	; 0x80
200097f4:	059b      	lsls	r3, r3, #22
200097f6:	4333      	orrs	r3, r6
200097f8:	6862      	ldr	r2, [r4, #4]
200097fa:	2100      	movs	r1, #0
200097fc:	6013      	str	r3, [r2, #0]
200097fe:	0020      	movs	r0, r4
20009800:	002a      	movs	r2, r5
20009802:	f7ff ffb7 	bl	20009774 <_hw_endpoint_buffer_control_update32>
20009806:	bd70      	pop	{r4, r5, r6, pc}
20009808:	78a3      	ldrb	r3, [r4, #2]
2000980a:	09db      	lsrs	r3, r3, #7
2000980c:	d0ef      	beq.n	200097ee <hw_endpoint_start_next_buffer+0x22>
2000980e:	8aa3      	ldrh	r3, [r4, #20]
20009810:	2b00      	cmp	r3, #0
20009812:	d0ec      	beq.n	200097ee <hw_endpoint_start_next_buffer+0x22>
20009814:	2101      	movs	r1, #1
20009816:	0020      	movs	r0, r4
20009818:	f7ff ff38 	bl	2000968c <prepare_ep_buffer>
2000981c:	23a0      	movs	r3, #160	; 0xa0
2000981e:	4a05      	ldr	r2, [pc, #20]	; (20009834 <hw_endpoint_start_next_buffer+0x68>)
20009820:	05db      	lsls	r3, r3, #23
20009822:	4032      	ands	r2, r6
20009824:	4305      	orrs	r5, r0
20009826:	4313      	orrs	r3, r2
20009828:	e7e6      	b.n	200097f8 <hw_endpoint_start_next_buffer+0x2c>
2000982a:	46c0      	nop			; (mov r8, r8)
2000982c:	50110000 	.word	0x50110000
20009830:	afffffff 	.word	0xafffffff
20009834:	dfffffff 	.word	0xdfffffff

20009838 <hw_endpoint_xfer_continue>:
20009838:	b570      	push	{r4, r5, r6, lr}
2000983a:	7e85      	ldrb	r5, [r0, #26]
2000983c:	0004      	movs	r4, r0
2000983e:	2d00      	cmp	r5, #0
20009840:	d014      	beq.n	2000986c <hw_endpoint_xfer_continue+0x34>
20009842:	f7ff ff7d 	bl	20009740 <_hw_endpoint_xfer_sync>
20009846:	8aa3      	ldrh	r3, [r4, #20]
20009848:	2b00      	cmp	r3, #0
2000984a:	d101      	bne.n	20009850 <hw_endpoint_xfer_continue+0x18>
2000984c:	0028      	movs	r0, r5
2000984e:	bd70      	pop	{r4, r5, r6, pc}
20009850:	0020      	movs	r0, r4
20009852:	f7ff ff01 	bl	20009658 <e15_is_critical_frame_period>
20009856:	2800      	cmp	r0, #0
20009858:	d003      	beq.n	20009862 <hw_endpoint_xfer_continue+0x2a>
2000985a:	2301      	movs	r3, #1
2000985c:	2500      	movs	r5, #0
2000985e:	7723      	strb	r3, [r4, #28]
20009860:	e7f4      	b.n	2000984c <hw_endpoint_xfer_continue+0x14>
20009862:	0020      	movs	r0, r4
20009864:	f7ff ffb2 	bl	200097cc <hw_endpoint_start_next_buffer>
20009868:	2500      	movs	r5, #0
2000986a:	e7ef      	b.n	2000984c <hw_endpoint_xfer_continue+0x14>
2000986c:	7881      	ldrb	r1, [r0, #2]
2000986e:	207f      	movs	r0, #127	; 0x7f
20009870:	09ca      	lsrs	r2, r1, #7
20009872:	4b03      	ldr	r3, [pc, #12]	; (20009880 <hw_endpoint_xfer_continue+0x48>)
20009874:	0092      	lsls	r2, r2, #2
20009876:	4001      	ands	r1, r0
20009878:	58d2      	ldr	r2, [r2, r3]
2000987a:	4802      	ldr	r0, [pc, #8]	; (20009884 <hw_endpoint_xfer_continue+0x4c>)
2000987c:	f7fa f87e 	bl	2000397c <panic>
20009880:	2000a1a8 	.word	0x2000a1a8
20009884:	20009ed8 	.word	0x20009ed8

20009888 <dcd_event_handler>:
20009888:	b5f0      	push	{r4, r5, r6, r7, lr}
2000988a:	46c6      	mov	lr, r8
2000988c:	b500      	push	{lr}
2000988e:	7843      	ldrb	r3, [r0, #1]
20009890:	0005      	movs	r5, r0
20009892:	b084      	sub	sp, #16
20009894:	2b04      	cmp	r3, #4
20009896:	d100      	bne.n	2000989a <dcd_event_handler+0x12>
20009898:	e060      	b.n	2000995c <dcd_event_handler+0xd4>
2000989a:	d82f      	bhi.n	200098fc <dcd_event_handler+0x74>
2000989c:	2b02      	cmp	r3, #2
2000989e:	d100      	bne.n	200098a2 <dcd_event_handler+0x1a>
200098a0:	e06e      	b.n	20009980 <dcd_event_handler+0xf8>
200098a2:	2b03      	cmp	r3, #3
200098a4:	d13e      	bne.n	20009924 <dcd_event_handler+0x9c>
200098a6:	4e5d      	ldr	r6, [pc, #372]	; (20009a1c <dcd_event_handler+0x194>)
200098a8:	4b5d      	ldr	r3, [pc, #372]	; (20009a20 <dcd_event_handler+0x198>)
200098aa:	2400      	movs	r4, #0
200098ac:	7832      	ldrb	r2, [r6, #0]
200098ae:	2b00      	cmp	r3, #0
200098b0:	d100      	bne.n	200098b4 <dcd_event_handler+0x2c>
200098b2:	e07d      	b.n	200099b0 <dcd_event_handler+0x128>
200098b4:	4b5b      	ldr	r3, [pc, #364]	; (20009a24 <dcd_event_handler+0x19c>)
200098b6:	4f5c      	ldr	r7, [pc, #368]	; (20009a28 <dcd_event_handler+0x1a0>)
200098b8:	4698      	mov	r8, r3
200098ba:	e014      	b.n	200098e6 <dcd_event_handler+0x5e>
200098bc:	1aa1      	subs	r1, r4, r2
200098be:	b2c9      	uxtb	r1, r1
200098c0:	2902      	cmp	r1, #2
200098c2:	d80a      	bhi.n	200098da <dcd_event_handler+0x52>
200098c4:	004b      	lsls	r3, r1, #1
200098c6:	185b      	adds	r3, r3, r1
200098c8:	00db      	lsls	r3, r3, #3
200098ca:	19db      	adds	r3, r3, r7
200098cc:	695b      	ldr	r3, [r3, #20]
200098ce:	2b00      	cmp	r3, #0
200098d0:	d003      	beq.n	200098da <dcd_event_handler+0x52>
200098d2:	6869      	ldr	r1, [r5, #4]
200098d4:	7828      	ldrb	r0, [r5, #0]
200098d6:	4798      	blx	r3
200098d8:	7832      	ldrb	r2, [r6, #0]
200098da:	3401      	adds	r4, #1
200098dc:	b2e4      	uxtb	r4, r4
200098de:	1c93      	adds	r3, r2, #2
200098e0:	42a3      	cmp	r3, r4
200098e2:	da00      	bge.n	200098e6 <dcd_event_handler+0x5e>
200098e4:	e078      	b.n	200099d8 <dcd_event_handler+0x150>
200098e6:	42a2      	cmp	r2, r4
200098e8:	d9e8      	bls.n	200098bc <dcd_event_handler+0x34>
200098ea:	4643      	mov	r3, r8
200098ec:	0061      	lsls	r1, r4, #1
200098ee:	681b      	ldr	r3, [r3, #0]
200098f0:	1909      	adds	r1, r1, r4
200098f2:	00c9      	lsls	r1, r1, #3
200098f4:	185b      	adds	r3, r3, r1
200098f6:	2b00      	cmp	r3, #0
200098f8:	d1e8      	bne.n	200098cc <dcd_event_handler+0x44>
200098fa:	e7ee      	b.n	200098da <dcd_event_handler+0x52>
200098fc:	2b05      	cmp	r3, #5
200098fe:	d111      	bne.n	20009924 <dcd_event_handler+0x9c>
20009900:	4b4a      	ldr	r3, [pc, #296]	; (20009a2c <dcd_event_handler+0x1a4>)
20009902:	781a      	ldrb	r2, [r3, #0]
20009904:	07d2      	lsls	r2, r2, #31
20009906:	d525      	bpl.n	20009954 <dcd_event_handler+0xcc>
20009908:	2104      	movs	r1, #4
2000990a:	781a      	ldrb	r2, [r3, #0]
2000990c:	438a      	bics	r2, r1
2000990e:	701a      	strb	r2, [r3, #0]
20009910:	4b47      	ldr	r3, [pc, #284]	; (20009a30 <dcd_event_handler+0x1a8>)
20009912:	681c      	ldr	r4, [r3, #0]
20009914:	6962      	ldr	r2, [r4, #20]
20009916:	f3ef 8110 	mrs	r1, PRIMASK
2000991a:	b672      	cpsid	i
2000991c:	6813      	ldr	r3, [r2, #0]
2000991e:	2b00      	cmp	r3, #0
20009920:	d109      	bne.n	20009936 <dcd_event_handler+0xae>
20009922:	e7fb      	b.n	2000991c <dcd_event_handler+0x94>
20009924:	4b42      	ldr	r3, [pc, #264]	; (20009a30 <dcd_event_handler+0x1a8>)
20009926:	681c      	ldr	r4, [r3, #0]
20009928:	6962      	ldr	r2, [r4, #20]
2000992a:	f3ef 8110 	mrs	r1, PRIMASK
2000992e:	b672      	cpsid	i
20009930:	6813      	ldr	r3, [r2, #0]
20009932:	2b00      	cmp	r3, #0
20009934:	d0fc      	beq.n	20009930 <dcd_event_handler+0xa8>
20009936:	f3bf 8f5f 	dmb	sy
2000993a:	61a1      	str	r1, [r4, #24]
2000993c:	0029      	movs	r1, r5
2000993e:	0020      	movs	r0, r4
20009940:	f7fc fd90 	bl	20006464 <tu_fifo_write>
20009944:	6962      	ldr	r2, [r4, #20]
20009946:	69a3      	ldr	r3, [r4, #24]
20009948:	f3bf 8f5f 	dmb	sy
2000994c:	2100      	movs	r1, #0
2000994e:	6011      	str	r1, [r2, #0]
20009950:	f383 8810 	msr	PRIMASK, r3
20009954:	b004      	add	sp, #16
20009956:	bc80      	pop	{r7}
20009958:	46b8      	mov	r8, r7
2000995a:	bdf0      	pop	{r4, r5, r6, r7, pc}
2000995c:	4b33      	ldr	r3, [pc, #204]	; (20009a2c <dcd_event_handler+0x1a4>)
2000995e:	781a      	ldrb	r2, [r3, #0]
20009960:	07d2      	lsls	r2, r2, #31
20009962:	d5f7      	bpl.n	20009954 <dcd_event_handler+0xcc>
20009964:	2104      	movs	r1, #4
20009966:	781a      	ldrb	r2, [r3, #0]
20009968:	430a      	orrs	r2, r1
2000996a:	701a      	strb	r2, [r3, #0]
2000996c:	4b30      	ldr	r3, [pc, #192]	; (20009a30 <dcd_event_handler+0x1a8>)
2000996e:	681c      	ldr	r4, [r3, #0]
20009970:	6962      	ldr	r2, [r4, #20]
20009972:	f3ef 8110 	mrs	r1, PRIMASK
20009976:	b672      	cpsid	i
20009978:	6813      	ldr	r3, [r2, #0]
2000997a:	2b00      	cmp	r3, #0
2000997c:	d1db      	bne.n	20009936 <dcd_event_handler+0xae>
2000997e:	e7fb      	b.n	20009978 <dcd_event_handler+0xf0>
20009980:	2001      	movs	r0, #1
20009982:	4a2a      	ldr	r2, [pc, #168]	; (20009a2c <dcd_event_handler+0x1a4>)
20009984:	7811      	ldrb	r1, [r2, #0]
20009986:	4381      	bics	r1, r0
20009988:	7011      	strb	r1, [r2, #0]
2000998a:	7811      	ldrb	r1, [r2, #0]
2000998c:	4399      	bics	r1, r3
2000998e:	2300      	movs	r3, #0
20009990:	7011      	strb	r1, [r2, #0]
20009992:	2104      	movs	r1, #4
20009994:	7053      	strb	r3, [r2, #1]
20009996:	7813      	ldrb	r3, [r2, #0]
20009998:	438b      	bics	r3, r1
2000999a:	7013      	strb	r3, [r2, #0]
2000999c:	4b24      	ldr	r3, [pc, #144]	; (20009a30 <dcd_event_handler+0x1a8>)
2000999e:	681c      	ldr	r4, [r3, #0]
200099a0:	6962      	ldr	r2, [r4, #20]
200099a2:	f3ef 8110 	mrs	r1, PRIMASK
200099a6:	b672      	cpsid	i
200099a8:	6813      	ldr	r3, [r2, #0]
200099aa:	2b00      	cmp	r3, #0
200099ac:	d1c3      	bne.n	20009936 <dcd_event_handler+0xae>
200099ae:	e7fb      	b.n	200099a8 <dcd_event_handler+0x120>
200099b0:	2400      	movs	r4, #0
200099b2:	4f1d      	ldr	r7, [pc, #116]	; (20009a28 <dcd_event_handler+0x1a0>)
200099b4:	2c02      	cmp	r4, #2
200099b6:	d80a      	bhi.n	200099ce <dcd_event_handler+0x146>
200099b8:	0063      	lsls	r3, r4, #1
200099ba:	191b      	adds	r3, r3, r4
200099bc:	00db      	lsls	r3, r3, #3
200099be:	19db      	adds	r3, r3, r7
200099c0:	695b      	ldr	r3, [r3, #20]
200099c2:	2b00      	cmp	r3, #0
200099c4:	d003      	beq.n	200099ce <dcd_event_handler+0x146>
200099c6:	6869      	ldr	r1, [r5, #4]
200099c8:	7828      	ldrb	r0, [r5, #0]
200099ca:	4798      	blx	r3
200099cc:	7832      	ldrb	r2, [r6, #0]
200099ce:	3401      	adds	r4, #1
200099d0:	b2e4      	uxtb	r4, r4
200099d2:	1c93      	adds	r3, r2, #2
200099d4:	42a3      	cmp	r3, r4
200099d6:	daed      	bge.n	200099b4 <dcd_event_handler+0x12c>
200099d8:	4b14      	ldr	r3, [pc, #80]	; (20009a2c <dcd_event_handler+0x1a4>)
200099da:	781a      	ldrb	r2, [r3, #0]
200099dc:	0752      	lsls	r2, r2, #29
200099de:	d5b9      	bpl.n	20009954 <dcd_event_handler+0xcc>
200099e0:	2104      	movs	r1, #4
200099e2:	781a      	ldrb	r2, [r3, #0]
200099e4:	438a      	bics	r2, r1
200099e6:	701a      	strb	r2, [r3, #0]
200099e8:	466b      	mov	r3, sp
200099ea:	220a      	movs	r2, #10
200099ec:	2100      	movs	r1, #0
200099ee:	1d98      	adds	r0, r3, #6
200099f0:	f7fa fb4c 	bl	2000408c <__wrap_memset>
200099f4:	466a      	mov	r2, sp
200099f6:	782b      	ldrb	r3, [r5, #0]
200099f8:	7113      	strb	r3, [r2, #4]
200099fa:	2305      	movs	r3, #5
200099fc:	7153      	strb	r3, [r2, #5]
200099fe:	4b0c      	ldr	r3, [pc, #48]	; (20009a30 <dcd_event_handler+0x1a8>)
20009a00:	681c      	ldr	r4, [r3, #0]
20009a02:	6962      	ldr	r2, [r4, #20]
20009a04:	f3ef 8110 	mrs	r1, PRIMASK
20009a08:	b672      	cpsid	i
20009a0a:	6813      	ldr	r3, [r2, #0]
20009a0c:	2b00      	cmp	r3, #0
20009a0e:	d0fc      	beq.n	20009a0a <dcd_event_handler+0x182>
20009a10:	f3bf 8f5f 	dmb	sy
20009a14:	61a1      	str	r1, [r4, #24]
20009a16:	a901      	add	r1, sp, #4
20009a18:	e791      	b.n	2000993e <dcd_event_handler+0xb6>
20009a1a:	46c0      	nop			; (mov r8, r8)
20009a1c:	2002058d 	.word	0x2002058d
20009a20:	2000112d 	.word	0x2000112d
20009a24:	2000a778 	.word	0x2000a778
20009a28:	20009f90 	.word	0x20009f90
20009a2c:	2000b9f0 	.word	0x2000b9f0
20009a30:	2000ba48 	.word	0x2000ba48
20009a34:	424f5250 	.word	0x424f5250
20009a38:	57532045 	.word	0x57532045
20009a3c:	004b4c43 	.word	0x004b4c43
20009a40:	424f5250 	.word	0x424f5250
20009a44:	57532045 	.word	0x57532045
20009a48:	004f4944 	.word	0x004f4944
20009a4c:	424f5250 	.word	0x424f5250
20009a50:	57532045 	.word	0x57532045
20009a54:	00004944 	.word	0x00004944
20009a58:	424f5250 	.word	0x424f5250
20009a5c:	41552045 	.word	0x41552045
20009a60:	49205452 	.word	0x49205452
20009a64:	5245544e 	.word	0x5245544e
20009a68:	45434146 	.word	0x45434146
20009a6c:	72617520 	.word	0x72617520
20009a70:	00003174 	.word	0x00003174
20009a74:	424f5250 	.word	0x424f5250
20009a78:	41552045 	.word	0x41552045
20009a7c:	42205452 	.word	0x42205452
20009a80:	52445541 	.word	0x52445541
20009a84:	20455441 	.word	0x20455441
20009a88:	32353131 	.word	0x32353131
20009a8c:	00003030 	.word	0x00003030
20009a90:	424f5250 	.word	0x424f5250
20009a94:	41552045 	.word	0x41552045
20009a98:	54205452 	.word	0x54205452
20009a9c:	00000058 	.word	0x00000058
20009aa0:	424f5250 	.word	0x424f5250
20009aa4:	41552045 	.word	0x41552045
20009aa8:	52205452 	.word	0x52205452
20009aac:	00000058 	.word	0x00000058

20009ab0 <__bi_16.0>:
20009ab0:	50520009 00001000 20009a34              ..RP....4.. 

20009abc <__bi_20.1>:
20009abc:	50520009 00004000 20009a40              ..RP.@..@.. 

20009ac8 <__bi_24.2>:
20009ac8:	50520009 00002000 20009a4c              ..RP. ..L.. 

20009ad4 <__bi_32.3>:
20009ad4:	50520006 a1f4b453 20009a58              ..RPS...X.. 

20009ae0 <__bi_33.4>:
20009ae0:	50520006 a1f4b453 20009a74              ..RPS...t.. 

20009aec <__bi_34.5>:
20009aec:	50520009 00000010 20009a90              ..RP....... 

20009af8 <__bi_35.6>:
20009af8:	50520009 00000020 20009aa0 54524155     ..RP ...... UART
20009b08:	00000000 00445554 00504144 63617473     ....TUD.DAP.stac
20009b18:	766f206b 6c667265 2820776f 20746f6e     k overflow (not 
20009b28:	20656874 706c6568 206c7566 646e696b     the helpful kind
20009b38:	6f662029 73252072 0000000a 6c6c614d     ) for %s....Mall
20009b48:	4620636f 656c6961 00000a64              oc Failed...

20009b54 <desc_ms_os_20>:
20009b54:	0000000a 06030000 000800b2 00000001     ................
20009b64:	000800a8 00000002 001400a0 49570003     ..............WI
20009b74:	4253554e 00000000 00000000 00840000     NUSB............
20009b84:	00070004 0044002a 00760065 00630069     ....*.D.e.v.i.c.
20009b94:	00490065 0074006e 00720065 00610066     e.I.n.t.e.r.f.a.
20009ba4:	00650063 00550047 00440049 00000073     c.e.G.U.I.D.s...
20009bb4:	007b0050 00440043 00330042 00350042     P.{.C.D.B.3.B.5.
20009bc4:	00440041 0032002d 00330039 002d0042     A.D.-.2.9.3.B.-.
20009bd4:	00360034 00330036 0041002d 00330041     4.6.6.3.-.A.A.3.
20009be4:	002d0036 00410031 00450041 00360034     6.-.1.A.A.E.4.6.
20009bf4:	00360034 00370033 00360037 0000007d     4.6.3.7.7.6.}...
20009c04:	00000000                                ....

20009c08 <desc_bos>:
20009c08:	00210f05 05101c01 dd60df00 c74589d8     ..!.......`...E.
20009c18:	65d29c4c 8a649e9d 0300009f 0100b206     L..e..d.........
20009c28:	00000000 70736152 72726562 69502079     ....Raspberry Pi
20009c38:	00000000 75626544 72502067 2065626f     ....Debug Probe 
20009c48:	534d4328 442d5349 00295041 49534d43     (CMSIS-DAP).CMSI
20009c58:	41442d53 31762050 746e4920 61667265     S-DAP v1 Interfa
20009c68:	00006563 49534d43 41442d53 32762050     ce..CMSIS-DAP v2
20009c78:	746e4920 61667265 00006563 2d434443      Interface..CDC-
20009c88:	204d4341 54524155 746e4920 61667265     ACM UART Interfa
20009c98:	00006563                                ce..

20009c9c <__compound_literal.0>:
20009c9c:	00000409                                ....

20009ca0 <desc_hid_report>:
20009ca0:	09ff0006 0901a101 26001502 087500ff     ...........&..u.
20009cb0:	02814095 00150309 7500ff26 91409508     .@......&..u..@.
20009cc0:	0000c002                                ....

20009cc4 <desc_device>:
20009cc4:	02100112 40000000 000c2e8a 02010200     .......@........
20009cd4:	00000103                                ....

20009cd8 <probe_program>:
20009cd8:	20009ce0 0000ff0b                       ... ....

20009ce0 <probe_program_instructions>:
20009ce0:	710180a0 90a01941 60816028 a04260a5     ...qA...(`.`.`B.
20009cf0:	10475901 00008020                       .YG. ...

20009cf8 <_dap_edpt_driver>:
20009cf8:	20000e2d 20000e31 20000e39 20000e35     -.. 1.. 9.. 5.. 
20009d08:	20000ee9 00000000 2e302e32 00000030     ... ....2.0.0...
20009d18:	200012fa 200012d6 200012c6 200012b6     ... ... ... ... 
20009d28:	20001294 2000125a 20001230 2000117e     ... Z.. 0.. ~.. 
20009d38:	2000121c 20001442 200013d4 2000117e     ... B.. ... ~.. 
20009d48:	2000117e 2000117e 2000117e 2000117e     ~.. ~.. ~.. ~.. 
20009d58:	200013de 20001320 20001376 2000135e     ...  .. v.. ^.. 
20009d68:	2000139c 20001206 2000145e 2000117e     ... ... ^.. ~.. 
20009d78:	2000117e 2000117e 2000117e 2000117e     ~.. ~.. ~.. ~.. 
20009d88:	2000117e 20001186 64726148 65726177     ~.. ... Hardware
20009d98:	616c6120 25206d72 6c612064 64616572      alarm %d alread
20009da8:	6c632079 656d6961 00000064 73206f4e     y claimed...No s
20009db8:	6c6e6970 736b636f 65726120 61766120     pinlocks are ava
20009dc8:	62616c69 0000656c 2a2a2a0a 4e415020     ilable...*** PAN
20009dd8:	2a204349 000a2a2a 20746f6e 70707573     IC ***..not supp
20009de8:	6574726f 00000064 64726148 73736120     orted...Hard ass
20009df8:	00747265 656c6552 00657361 746f6f62     ert.Release.boot
20009e08:	32775f32 38307135 00000030 2e352e31     2_w25q080...1.5.
20009e18:	00000031 6f636970 00000000 75626564     1...pico....debu
20009e28:	6f727067 00006562 20727041 32203031     gprobe..Apr 10 2
20009e38:	00343230                                024.

20009e3c <__bi_81>:
20009e3c:	50520006 4275f0d3 20009dfc              ..RP..uB... 

20009e48 <__bi_75>:
20009e48:	50520006 7f8882e1 20009e04              ..RP....... 

20009e54 <__bi_44>:
20009e54:	50520006 b63cffbb 20009e1c              ..RP..<.... 

20009e60 <crlf_str.0>:
20009e60:	00000a0d 54524155 64747320 00006e69     ....UART stdin..
20009e70:	54524155 64747320 0074756f 54524155     UART stdout.UART
20009e80:	64747320 2f206e69 64747320 0074756f      stdin / stdout.

20009e90 <__bi_33.4>:
20009e90:	50520006 a1f4b453 20009e7c              ..RPS...|.. 

20009e9c <__bi_34.5>:
20009e9c:	50520008 00000092 61686e55 656c646e     ..RP....Unhandle
20009eac:	52492064 78302051 000a7825 25207065     d IRQ 0x%x..ep %
20009ebc:	73252064 73617720 726c6120 79646165     d %s was already
20009ecc:	61766120 62616c69 0000656c 276e6143      available..Can'
20009edc:	6f632074 6e69746e 78206575 20726566     t continue xfer 
20009eec:	69206e6f 7463616e 20657669 25207065     on inactive ep %
20009efc:	73252064 00000000 20004aa0 20004bf8     d %s.....J. .K. 
20009f0c:	20004be0 20004aa0 20004bc2 20004baa     .K. .J. .K. .K. 
20009f1c:	20004b46 20004aee 20004ae2 20004eac     FK. .J. .J. .N. 
20009f2c:	20004e92 20004b98 20004ec0 20004b98     .N. .K. .N. .K. 
20009f3c:	20004e7a 20004e66 20004b98 20004e52     zN. fN. .K. RN. 
20009f4c:	20004e2a 20004b98 20004f44 20004f28     *N. .K. DO. (O. 
20009f5c:	20004f1c 20004b98 20004b98 20004efe     .O. .K. .K. .N. 
20009f6c:	20004f28 20004b98 20004b98 20004b98     (O. .K. .K. .K. 
20009f7c:	20004b98 20004b98 20004b98 20004b98     .K. .K. .K. .K. 
20009f8c:	20004eda                                .N. 

20009f90 <_usbd_driver>:
20009f90:	2000578d 20005809 20005835 20005919     .W. .X. 5X. .Y. 
20009fa0:	200059fd 00000000 20005bcd 20005be1     .Y. .....[. .[. 
20009fb0:	20005bf5 20005c81 20005e49 00000000     .[. .\. I^. ....
20009fc0:	20005ea9 20005f15 20005f31 200002b5     .^. ._. 1_. ... 
20009fd0:	2000600d 00000000 20005cca 20005d74     .`. .....\. t]. 
20009fe0:	20005dd6 20005dc2 20005cca 20005cca     .]. .]. .\. .\. 
20009ff0:	20005cca 20005cca 20005cca 20005d16     .\. .\. .\. .]. 
2000a000:	20005cf2 20005d58 0044454c              .\. X]. LED.

2000a00c <__bi_142.0>:
2000a00c:	50520009 02000000 2000a008              ..RP....... 

2000a018 <__bi_152.1>:
2000a018:	50520008 00000012 70206f4e 72676f72     ..RP....No progr
2000a028:	73206d61 65636170 00000000 20008856     am space....V.. 
2000a038:	2000889a 2000889a 2000892c 20008900     ... ... ,.. ... 
2000a048:	2000893a 2000889a 2000889a 2000892c     :.. ... ... ,.. 
2000a058:	20008900 51726d54 00000000 20726d54     ... TmrQ....Tmr 
2000a068:	00637653                                Svc.

2000a06c <string_desc_arr>:
2000a06c:	20009c9c 20009c2c 20009c3c 2002049c     ... ,.. <.. ... 
2000a07c:	20009c54 20009c6c 20009c84              T.. l.. ... 

2000a088 <desc_configuration>:
2000a088:	00620209 80000103 00040932 00ff0200     ..b.....2.......
2000a098:	05070500 00400204 85050700 00004002     ......@......@..
2000a0a8:	02010b08 00000202 00010409 00020201     ................
2000a0b8:	00240506 24050120 04020001 05020224     ..$. ..$....$...
2000a0c8:	02010624 03810507 09100040 02000204     $.......@.......
2000a0d8:	0000000a 02020507 07000040 40028305     ........@......@
2000a0e8:	00000000                                ....

2000a0ec <debounce_ticks>:
2000a0ec:	00000005                                ....

2000a0f0 <interval>:
2000a0f0:	00000064                                d...

2000a0f4 <default_alarm_pool>:
2000a0f4:	2000a10c 00000000 2000a228 2000fcfc     ... ....(.. ... 
	...

2000a10c <default_alarm_pool_heap>:
2000a10c:	2000fd0c 00000000 00000000 00000010     ... ............

2000a11c <striped_spin_lock_num>:
2000a11c:	00000010                                ....

2000a120 <irq_handler_chain_slots>:
2000a120:	00000000 	.word	0x00000000
2000a124:	00010000 	.word	0x00010000
	...
2000a130:	00020000 	.word	0x00020000
	...
2000a13c:	00030000 	.word	0x00030000
	...
2000a148:	00ff0000 	.word	0x00ff0000
2000a14c:	00000000 	.word	0x00000000

2000a150 <irq_handler_chain_first_slot>:
2000a150:	b501      	push	{r0, lr}
2000a152:	6848      	ldr	r0, [r1, #4]
2000a154:	3101      	adds	r1, #1
2000a156:	468e      	mov	lr, r1
2000a158:	4700      	bx	r0

2000a15a <irq_handler_chain_remove_tail>:
2000a15a:	4670      	mov	r0, lr
2000a15c:	3809      	subs	r0, #9
2000a15e:	4901      	ldr	r1, [pc, #4]	; (2000a164 <irq_handler_chain_remove_tail+0xa>)
2000a160:	4788      	blx	r1
2000a162:	bd01      	pop	{r0, pc}
2000a164:	20002cd5 	.word	0x20002cd5
	...

2000a170 <aeabi_bits_funcs>:
2000a170:	00003350 	.word	0x00003350
2000a174:	0000334c 	.word	0x0000334c
2000a178:	00003354 	.word	0x00003354
2000a17c:	00003352 	.word	0x00003352

2000a180 <aeabi_bits_funcs_end>:
2000a180:	0000534d 	.word	0x0000534d
2000a184:	0000434d 	.word	0x0000434d
2000a188:	00003453 	.word	0x00003453
2000a18c:	00003443 	.word	0x00003443

2000a190 <stdio_uart>:
2000a190:	20004309 00000000 20004355 20004415     .C. ....UC. .D. 
2000a1a0:	00000000 00000100                       ........

2000a1a8 <ep_dir_string>:
2000a1a8:	20009e8c 20009e6c                       ... l.. 

2000a1b0 <_usbd_qdef>:
2000a1b0:	2000ba4c 000c0010 00000000 00000000     L.. ............
	...

2000a1cc <_usbd_rhport>:
2000a1cc:	                                         .

2000a1cd <ucLaunchCoreNum>:
2000a1cd:	                                         ...

2000a1d0 <uxTopUsedPriority>:
2000a1d0:	0000001f                                ....

2000a1d4 <malloc_mutex>:
	...

2000a1dc <print_mutex>:
	...

2000a1e4 <__mutex_array_end>:
2000a1e4:	2000407d 	.word	0x2000407d
2000a1e8:	20003a05 	.word	0x20003a05
2000a1ec:	20003ef5 	.word	0x20003ef5
2000a1f0:	20003fed 	.word	0x20003fed

2000a1f4 <__frame_dummy_init_array_entry>:
2000a1f4:	20000139 20004525 20006fd1              9.. %E. .o. 
